

Microchip MPLAB XC8 Assembler V2.36 build 20220127204148 
                                                                                               Sat Mar 18 22:04:29 2023

Microchip MPLAB XC8 C Compiler v2.36 (Free license) build 20220127204148 Og1 
     1                           	processor	16F1939
     2                           	pagewidth 120
     3                           	opt	flic
     4                           	psect	cinit,global,class=CODE,merge=1,delta=2
     5                           	psect	bssCOMMON,global,class=COMMON,space=1,delta=1,noexec
     6                           	psect	cstackCOMMON,global,class=COMMON,space=1,delta=1,noexec
     7                           	psect	maintext,global,class=CODE,merge=1,split=1,delta=2
     8                           	psect	text1,local,class=CODE,merge=1,delta=2
     9                           	psect	text2,local,class=CODE,merge=1,delta=2
    10                           	psect	text3,local,class=CODE,merge=1,delta=2
    11                           	psect	text4,local,class=CODE,merge=1,delta=2
    12                           	psect	text5,local,class=CODE,merge=1,delta=2
    13                           	psect	text6,local,class=CODE,merge=1,delta=2
    14                           	psect	text7,local,class=CODE,merge=1,delta=2
    15                           	psect	text8,local,class=CODE,merge=1,delta=2
    16                           	psect	text9,local,class=CODE,merge=1,delta=2
    17                           	psect	text10,local,class=CODE,merge=1,delta=2
    18                           	psect	text11,local,class=CODE,merge=1,delta=2
    19                           	psect	idloc,global,abs,ovrld,class=IDLOC,space=5,delta=2,noexec
    20                           	psect	config,global,abs,ovrld,class=CONFIG,space=4,delta=2,noexec
    21                           	dabs	1,0x7E,2
    22  0000                     
    23                           ; Version 2.40
    24                           ; Generated 17/11/2021 GMT
    25                           ; 
    26                           ; Copyright © 2021, Microchip Technology Inc. and its subsidiaries ("Microchip")
    27                           ; All rights reserved.
    28                           ; 
    29                           ; This software is developed by Microchip Technology Inc. and its subsidiaries ("Microch
      +                          ip").
    30                           ; 
    31                           ; Redistribution and use in source and binary forms, with or without modification, are
    32                           ; permitted provided that the following conditions are met:
    33                           ; 
    34                           ;     1. Redistributions of source code must retain the above copyright notice, this lis
      +                          t of
    35                           ;        conditions and the following disclaimer.
    36                           ; 
    37                           ;     2. Redistributions in binary form must reproduce the above copyright notice, this 
      +                          list
    38                           ;        of conditions and the following disclaimer in the documentation and/or other
    39                           ;        materials provided with the distribution. Publication is not required when
    40                           ;        this file is used in an embedded application.
    41                           ; 
    42                           ;     3. Microchip's name may not be used to endorse or promote products derived from th
      +                          is
    43                           ;        software without specific prior written permission.
    44                           ; 
    45                           ; THIS SOFTWARE IS PROVIDED BY MICROCHIP "AS IS" AND ANY EXPRESS OR IMPLIED WARRANTIES,
    46                           ; INCLUDING, BUT NOT LIMITED TO, THE IMPLIED WARRANTIES OF MERCHANTABILITY AND FITNESS F
      +                          OR
    47                           ; PURPOSE ARE DISCLAIMED.  IN NO EVENT SHALL MICROCHIP BE LIABLE FOR ANY DIRECT, INDIREC
      +                          T,
    48                           ; INCIDENTAL, SPECIAL, EXEMPLARY, OR CONSEQUENTIAL DAMAGES (INCLUDING BUT NOT LIMITED TO
    49                           ; PROCUREMENT OF SUBSTITUTE GOODS OR SERVICES; LOSS OF USE, DATA OR PROFITS; OR BUSINESS
    50                           ; INTERRUPTION) HOWSOEVER CAUSED AND ON ANY THEORY OF LIABILITY, WHETHER IN CONTRACT, ST
      +                          RICT
    51                           ; LIABILITY, OR TORT (INCLUDING NEGLIGENCE OR OTHERWISE) ARISING IN ANY WAY OUT OF THE U
      +                          SE OF
    52                           ; THIS SOFTWARE, EVEN IF ADVISED OF THE POSSIBILITY OF SUCH DAMAGE.
    53                           ; 
    54                           ; 
    55                           ; Code-generator required, PIC16F1939 Definitions
    56                           ; 
    57                           ; SFR Addresses
    58  0000                     	;# 
    59  0001                     	;# 
    60  0002                     	;# 
    61  0003                     	;# 
    62  0004                     	;# 
    63  0005                     	;# 
    64  0006                     	;# 
    65  0007                     	;# 
    66  0008                     	;# 
    67  0009                     	;# 
    68  000A                     	;# 
    69  000B                     	;# 
    70  000C                     	;# 
    71  000D                     	;# 
    72  000E                     	;# 
    73  000F                     	;# 
    74  0010                     	;# 
    75  0011                     	;# 
    76  0012                     	;# 
    77  0013                     	;# 
    78  0015                     	;# 
    79  0016                     	;# 
    80  0016                     	;# 
    81  0017                     	;# 
    82  0018                     	;# 
    83  0019                     	;# 
    84  001A                     	;# 
    85  001B                     	;# 
    86  001C                     	;# 
    87  001E                     	;# 
    88  001F                     	;# 
    89  008C                     	;# 
    90  008D                     	;# 
    91  008E                     	;# 
    92  008F                     	;# 
    93  0090                     	;# 
    94  0091                     	;# 
    95  0092                     	;# 
    96  0093                     	;# 
    97  0095                     	;# 
    98  0096                     	;# 
    99  0097                     	;# 
   100  0098                     	;# 
   101  0099                     	;# 
   102  009A                     	;# 
   103  009B                     	;# 
   104  009B                     	;# 
   105  009C                     	;# 
   106  009D                     	;# 
   107  009E                     	;# 
   108  010C                     	;# 
   109  010D                     	;# 
   110  010E                     	;# 
   111  010F                     	;# 
   112  0110                     	;# 
   113  0111                     	;# 
   114  0112                     	;# 
   115  0113                     	;# 
   116  0114                     	;# 
   117  0115                     	;# 
   118  0116                     	;# 
   119  0117                     	;# 
   120  0118                     	;# 
   121  0119                     	;# 
   122  011A                     	;# 
   123  011B                     	;# 
   124  011D                     	;# 
   125  018C                     	;# 
   126  018D                     	;# 
   127  018F                     	;# 
   128  0190                     	;# 
   129  0191                     	;# 
   130  0191                     	;# 
   131  0192                     	;# 
   132  0193                     	;# 
   133  0193                     	;# 
   134  0193                     	;# 
   135  0194                     	;# 
   136  0195                     	;# 
   137  0196                     	;# 
   138  0199                     	;# 
   139  019A                     	;# 
   140  019B                     	;# 
   141  019B                     	;# 
   142  019B                     	;# 
   143  019B                     	;# 
   144  019C                     	;# 
   145  019C                     	;# 
   146  019D                     	;# 
   147  019E                     	;# 
   148  019F                     	;# 
   149  020D                     	;# 
   150  0210                     	;# 
   151  0211                     	;# 
   152  0212                     	;# 
   153  0213                     	;# 
   154  0214                     	;# 
   155  0215                     	;# 
   156  0215                     	;# 
   157  0216                     	;# 
   158  0217                     	;# 
   159  0291                     	;# 
   160  0291                     	;# 
   161  0292                     	;# 
   162  0293                     	;# 
   163  0294                     	;# 
   164  0295                     	;# 
   165  0295                     	;# 
   166  0296                     	;# 
   167  0298                     	;# 
   168  0298                     	;# 
   169  0299                     	;# 
   170  029A                     	;# 
   171  029B                     	;# 
   172  029C                     	;# 
   173  029C                     	;# 
   174  029D                     	;# 
   175  029E                     	;# 
   176  029F                     	;# 
   177  0311                     	;# 
   178  0311                     	;# 
   179  0312                     	;# 
   180  0313                     	;# 
   181  0314                     	;# 
   182  0315                     	;# 
   183  0315                     	;# 
   184  0316                     	;# 
   185  0318                     	;# 
   186  0318                     	;# 
   187  0319                     	;# 
   188  031A                     	;# 
   189  031C                     	;# 
   190  031C                     	;# 
   191  031D                     	;# 
   192  031E                     	;# 
   193  0394                     	;# 
   194  0395                     	;# 
   195  0396                     	;# 
   196  0415                     	;# 
   197  0416                     	;# 
   198  0417                     	;# 
   199  041C                     	;# 
   200  041D                     	;# 
   201  041E                     	;# 
   202  0791                     	;# 
   203  0792                     	;# 
   204  0793                     	;# 
   205  0794                     	;# 
   206  0795                     	;# 
   207  0798                     	;# 
   208  0799                     	;# 
   209  079A                     	;# 
   210  07A0                     	;# 
   211  07A1                     	;# 
   212  07A2                     	;# 
   213  07A3                     	;# 
   214  07A4                     	;# 
   215  07A5                     	;# 
   216  07A6                     	;# 
   217  07A7                     	;# 
   218  07A8                     	;# 
   219  07A9                     	;# 
   220  07AA                     	;# 
   221  07AB                     	;# 
   222  0FE4                     	;# 
   223  0FE5                     	;# 
   224  0FE6                     	;# 
   225  0FE7                     	;# 
   226  0FE8                     	;# 
   227  0FE9                     	;# 
   228  0FEA                     	;# 
   229  0FEB                     	;# 
   230  0FED                     	;# 
   231  0FEE                     	;# 
   232  0FEF                     	;# 
   233  0000                     	;# 
   234  0001                     	;# 
   235  0002                     	;# 
   236  0003                     	;# 
   237  0004                     	;# 
   238  0005                     	;# 
   239  0006                     	;# 
   240  0007                     	;# 
   241  0008                     	;# 
   242  0009                     	;# 
   243  000A                     	;# 
   244  000B                     	;# 
   245  000C                     	;# 
   246  000D                     	;# 
   247  000E                     	;# 
   248  000F                     	;# 
   249  0010                     	;# 
   250  0011                     	;# 
   251  0012                     	;# 
   252  0013                     	;# 
   253  0015                     	;# 
   254  0016                     	;# 
   255  0016                     	;# 
   256  0017                     	;# 
   257  0018                     	;# 
   258  0019                     	;# 
   259  001A                     	;# 
   260  001B                     	;# 
   261  001C                     	;# 
   262  001E                     	;# 
   263  001F                     	;# 
   264  008C                     	;# 
   265  008D                     	;# 
   266  008E                     	;# 
   267  008F                     	;# 
   268  0090                     	;# 
   269  0091                     	;# 
   270  0092                     	;# 
   271  0093                     	;# 
   272  0095                     	;# 
   273  0096                     	;# 
   274  0097                     	;# 
   275  0098                     	;# 
   276  0099                     	;# 
   277  009A                     	;# 
   278  009B                     	;# 
   279  009B                     	;# 
   280  009C                     	;# 
   281  009D                     	;# 
   282  009E                     	;# 
   283  010C                     	;# 
   284  010D                     	;# 
   285  010E                     	;# 
   286  010F                     	;# 
   287  0110                     	;# 
   288  0111                     	;# 
   289  0112                     	;# 
   290  0113                     	;# 
   291  0114                     	;# 
   292  0115                     	;# 
   293  0116                     	;# 
   294  0117                     	;# 
   295  0118                     	;# 
   296  0119                     	;# 
   297  011A                     	;# 
   298  011B                     	;# 
   299  011D                     	;# 
   300  018C                     	;# 
   301  018D                     	;# 
   302  018F                     	;# 
   303  0190                     	;# 
   304  0191                     	;# 
   305  0191                     	;# 
   306  0192                     	;# 
   307  0193                     	;# 
   308  0193                     	;# 
   309  0193                     	;# 
   310  0194                     	;# 
   311  0195                     	;# 
   312  0196                     	;# 
   313  0199                     	;# 
   314  019A                     	;# 
   315  019B                     	;# 
   316  019B                     	;# 
   317  019B                     	;# 
   318  019B                     	;# 
   319  019C                     	;# 
   320  019C                     	;# 
   321  019D                     	;# 
   322  019E                     	;# 
   323  019F                     	;# 
   324  020D                     	;# 
   325  0210                     	;# 
   326  0211                     	;# 
   327  0212                     	;# 
   328  0213                     	;# 
   329  0214                     	;# 
   330  0215                     	;# 
   331  0215                     	;# 
   332  0216                     	;# 
   333  0217                     	;# 
   334  0291                     	;# 
   335  0291                     	;# 
   336  0292                     	;# 
   337  0293                     	;# 
   338  0294                     	;# 
   339  0295                     	;# 
   340  0295                     	;# 
   341  0296                     	;# 
   342  0298                     	;# 
   343  0298                     	;# 
   344  0299                     	;# 
   345  029A                     	;# 
   346  029B                     	;# 
   347  029C                     	;# 
   348  029C                     	;# 
   349  029D                     	;# 
   350  029E                     	;# 
   351  029F                     	;# 
   352  0311                     	;# 
   353  0311                     	;# 
   354  0312                     	;# 
   355  0313                     	;# 
   356  0314                     	;# 
   357  0315                     	;# 
   358  0315                     	;# 
   359  0316                     	;# 
   360  0318                     	;# 
   361  0318                     	;# 
   362  0319                     	;# 
   363  031A                     	;# 
   364  031C                     	;# 
   365  031C                     	;# 
   366  031D                     	;# 
   367  031E                     	;# 
   368  0394                     	;# 
   369  0395                     	;# 
   370  0396                     	;# 
   371  0415                     	;# 
   372  0416                     	;# 
   373  0417                     	;# 
   374  041C                     	;# 
   375  041D                     	;# 
   376  041E                     	;# 
   377  0791                     	;# 
   378  0792                     	;# 
   379  0793                     	;# 
   380  0794                     	;# 
   381  0795                     	;# 
   382  0798                     	;# 
   383  0799                     	;# 
   384  079A                     	;# 
   385  07A0                     	;# 
   386  07A1                     	;# 
   387  07A2                     	;# 
   388  07A3                     	;# 
   389  07A4                     	;# 
   390  07A5                     	;# 
   391  07A6                     	;# 
   392  07A7                     	;# 
   393  07A8                     	;# 
   394  07A9                     	;# 
   395  07AA                     	;# 
   396  07AB                     	;# 
   397  0FE4                     	;# 
   398  0FE5                     	;# 
   399  0FE6                     	;# 
   400  0FE7                     	;# 
   401  0FE8                     	;# 
   402  0FE9                     	;# 
   403  0FEA                     	;# 
   404  0FEB                     	;# 
   405  0FED                     	;# 
   406  0FEE                     	;# 
   407  0FEF                     	;# 
   408  0000                     	;# 
   409  0001                     	;# 
   410  0002                     	;# 
   411  0003                     	;# 
   412  0004                     	;# 
   413  0005                     	;# 
   414  0006                     	;# 
   415  0007                     	;# 
   416  0008                     	;# 
   417  0009                     	;# 
   418  000A                     	;# 
   419  000B                     	;# 
   420  000C                     	;# 
   421  000D                     	;# 
   422  000E                     	;# 
   423  000F                     	;# 
   424  0010                     	;# 
   425  0011                     	;# 
   426  0012                     	;# 
   427  0013                     	;# 
   428  0015                     	;# 
   429  0016                     	;# 
   430  0016                     	;# 
   431  0017                     	;# 
   432  0018                     	;# 
   433  0019                     	;# 
   434  001A                     	;# 
   435  001B                     	;# 
   436  001C                     	;# 
   437  001E                     	;# 
   438  001F                     	;# 
   439  008C                     	;# 
   440  008D                     	;# 
   441  008E                     	;# 
   442  008F                     	;# 
   443  0090                     	;# 
   444  0091                     	;# 
   445  0092                     	;# 
   446  0093                     	;# 
   447  0095                     	;# 
   448  0096                     	;# 
   449  0097                     	;# 
   450  0098                     	;# 
   451  0099                     	;# 
   452  009A                     	;# 
   453  009B                     	;# 
   454  009B                     	;# 
   455  009C                     	;# 
   456  009D                     	;# 
   457  009E                     	;# 
   458  010C                     	;# 
   459  010D                     	;# 
   460  010E                     	;# 
   461  010F                     	;# 
   462  0110                     	;# 
   463  0111                     	;# 
   464  0112                     	;# 
   465  0113                     	;# 
   466  0114                     	;# 
   467  0115                     	;# 
   468  0116                     	;# 
   469  0117                     	;# 
   470  0118                     	;# 
   471  0119                     	;# 
   472  011A                     	;# 
   473  011B                     	;# 
   474  011D                     	;# 
   475  018C                     	;# 
   476  018D                     	;# 
   477  018F                     	;# 
   478  0190                     	;# 
   479  0191                     	;# 
   480  0191                     	;# 
   481  0192                     	;# 
   482  0193                     	;# 
   483  0193                     	;# 
   484  0193                     	;# 
   485  0194                     	;# 
   486  0195                     	;# 
   487  0196                     	;# 
   488  0199                     	;# 
   489  019A                     	;# 
   490  019B                     	;# 
   491  019B                     	;# 
   492  019B                     	;# 
   493  019B                     	;# 
   494  019C                     	;# 
   495  019C                     	;# 
   496  019D                     	;# 
   497  019E                     	;# 
   498  019F                     	;# 
   499  020D                     	;# 
   500  0210                     	;# 
   501  0211                     	;# 
   502  0212                     	;# 
   503  0213                     	;# 
   504  0214                     	;# 
   505  0215                     	;# 
   506  0215                     	;# 
   507  0216                     	;# 
   508  0217                     	;# 
   509  0291                     	;# 
   510  0291                     	;# 
   511  0292                     	;# 
   512  0293                     	;# 
   513  0294                     	;# 
   514  0295                     	;# 
   515  0295                     	;# 
   516  0296                     	;# 
   517  0298                     	;# 
   518  0298                     	;# 
   519  0299                     	;# 
   520  029A                     	;# 
   521  029B                     	;# 
   522  029C                     	;# 
   523  029C                     	;# 
   524  029D                     	;# 
   525  029E                     	;# 
   526  029F                     	;# 
   527  0311                     	;# 
   528  0311                     	;# 
   529  0312                     	;# 
   530  0313                     	;# 
   531  0314                     	;# 
   532  0315                     	;# 
   533  0315                     	;# 
   534  0316                     	;# 
   535  0318                     	;# 
   536  0318                     	;# 
   537  0319                     	;# 
   538  031A                     	;# 
   539  031C                     	;# 
   540  031C                     	;# 
   541  031D                     	;# 
   542  031E                     	;# 
   543  0394                     	;# 
   544  0395                     	;# 
   545  0396                     	;# 
   546  0415                     	;# 
   547  0416                     	;# 
   548  0417                     	;# 
   549  041C                     	;# 
   550  041D                     	;# 
   551  041E                     	;# 
   552  0791                     	;# 
   553  0792                     	;# 
   554  0793                     	;# 
   555  0794                     	;# 
   556  0795                     	;# 
   557  0798                     	;# 
   558  0799                     	;# 
   559  079A                     	;# 
   560  07A0                     	;# 
   561  07A1                     	;# 
   562  07A2                     	;# 
   563  07A3                     	;# 
   564  07A4                     	;# 
   565  07A5                     	;# 
   566  07A6                     	;# 
   567  07A7                     	;# 
   568  07A8                     	;# 
   569  07A9                     	;# 
   570  07AA                     	;# 
   571  07AB                     	;# 
   572  0FE4                     	;# 
   573  0FE5                     	;# 
   574  0FE6                     	;# 
   575  0FE7                     	;# 
   576  0FE8                     	;# 
   577  0FE9                     	;# 
   578  0FEA                     	;# 
   579  0FEB                     	;# 
   580  0FED                     	;# 
   581  0FEE                     	;# 
   582  0FEF                     	;# 
   583  0000                     	;# 
   584  0001                     	;# 
   585  0002                     	;# 
   586  0003                     	;# 
   587  0004                     	;# 
   588  0005                     	;# 
   589  0006                     	;# 
   590  0007                     	;# 
   591  0008                     	;# 
   592  0009                     	;# 
   593  000A                     	;# 
   594  000B                     	;# 
   595  000C                     	;# 
   596  000D                     	;# 
   597  000E                     	;# 
   598  000F                     	;# 
   599  0010                     	;# 
   600  0011                     	;# 
   601  0012                     	;# 
   602  0013                     	;# 
   603  0015                     	;# 
   604  0016                     	;# 
   605  0016                     	;# 
   606  0017                     	;# 
   607  0018                     	;# 
   608  0019                     	;# 
   609  001A                     	;# 
   610  001B                     	;# 
   611  001C                     	;# 
   612  001E                     	;# 
   613  001F                     	;# 
   614  008C                     	;# 
   615  008D                     	;# 
   616  008E                     	;# 
   617  008F                     	;# 
   618  0090                     	;# 
   619  0091                     	;# 
   620  0092                     	;# 
   621  0093                     	;# 
   622  0095                     	;# 
   623  0096                     	;# 
   624  0097                     	;# 
   625  0098                     	;# 
   626  0099                     	;# 
   627  009A                     	;# 
   628  009B                     	;# 
   629  009B                     	;# 
   630  009C                     	;# 
   631  009D                     	;# 
   632  009E                     	;# 
   633  010C                     	;# 
   634  010D                     	;# 
   635  010E                     	;# 
   636  010F                     	;# 
   637  0110                     	;# 
   638  0111                     	;# 
   639  0112                     	;# 
   640  0113                     	;# 
   641  0114                     	;# 
   642  0115                     	;# 
   643  0116                     	;# 
   644  0117                     	;# 
   645  0118                     	;# 
   646  0119                     	;# 
   647  011A                     	;# 
   648  011B                     	;# 
   649  011D                     	;# 
   650  018C                     	;# 
   651  018D                     	;# 
   652  018F                     	;# 
   653  0190                     	;# 
   654  0191                     	;# 
   655  0191                     	;# 
   656  0192                     	;# 
   657  0193                     	;# 
   658  0193                     	;# 
   659  0193                     	;# 
   660  0194                     	;# 
   661  0195                     	;# 
   662  0196                     	;# 
   663  0199                     	;# 
   664  019A                     	;# 
   665  019B                     	;# 
   666  019B                     	;# 
   667  019B                     	;# 
   668  019B                     	;# 
   669  019C                     	;# 
   670  019C                     	;# 
   671  019D                     	;# 
   672  019E                     	;# 
   673  019F                     	;# 
   674  020D                     	;# 
   675  0210                     	;# 
   676  0211                     	;# 
   677  0212                     	;# 
   678  0213                     	;# 
   679  0214                     	;# 
   680  0215                     	;# 
   681  0215                     	;# 
   682  0216                     	;# 
   683  0217                     	;# 
   684  0291                     	;# 
   685  0291                     	;# 
   686  0292                     	;# 
   687  0293                     	;# 
   688  0294                     	;# 
   689  0295                     	;# 
   690  0295                     	;# 
   691  0296                     	;# 
   692  0298                     	;# 
   693  0298                     	;# 
   694  0299                     	;# 
   695  029A                     	;# 
   696  029B                     	;# 
   697  029C                     	;# 
   698  029C                     	;# 
   699  029D                     	;# 
   700  029E                     	;# 
   701  029F                     	;# 
   702  0311                     	;# 
   703  0311                     	;# 
   704  0312                     	;# 
   705  0313                     	;# 
   706  0314                     	;# 
   707  0315                     	;# 
   708  0315                     	;# 
   709  0316                     	;# 
   710  0318                     	;# 
   711  0318                     	;# 
   712  0319                     	;# 
   713  031A                     	;# 
   714  031C                     	;# 
   715  031C                     	;# 
   716  031D                     	;# 
   717  031E                     	;# 
   718  0394                     	;# 
   719  0395                     	;# 
   720  0396                     	;# 
   721  0415                     	;# 
   722  0416                     	;# 
   723  0417                     	;# 
   724  041C                     	;# 
   725  041D                     	;# 
   726  041E                     	;# 
   727  0791                     	;# 
   728  0792                     	;# 
   729  0793                     	;# 
   730  0794                     	;# 
   731  0795                     	;# 
   732  0798                     	;# 
   733  0799                     	;# 
   734  079A                     	;# 
   735  07A0                     	;# 
   736  07A1                     	;# 
   737  07A2                     	;# 
   738  07A3                     	;# 
   739  07A4                     	;# 
   740  07A5                     	;# 
   741  07A6                     	;# 
   742  07A7                     	;# 
   743  07A8                     	;# 
   744  07A9                     	;# 
   745  07AA                     	;# 
   746  07AB                     	;# 
   747  0FE4                     	;# 
   748  0FE5                     	;# 
   749  0FE6                     	;# 
   750  0FE7                     	;# 
   751  0FE8                     	;# 
   752  0FE9                     	;# 
   753  0FEA                     	;# 
   754  0FEB                     	;# 
   755  0FED                     	;# 
   756  0FEE                     	;# 
   757  0FEF                     	;# 
   758  0000                     	;# 
   759  0001                     	;# 
   760  0002                     	;# 
   761  0003                     	;# 
   762  0004                     	;# 
   763  0005                     	;# 
   764  0006                     	;# 
   765  0007                     	;# 
   766  0008                     	;# 
   767  0009                     	;# 
   768  000A                     	;# 
   769  000B                     	;# 
   770  000C                     	;# 
   771  000D                     	;# 
   772  000E                     	;# 
   773  000F                     	;# 
   774  0010                     	;# 
   775  0011                     	;# 
   776  0012                     	;# 
   777  0013                     	;# 
   778  0015                     	;# 
   779  0016                     	;# 
   780  0016                     	;# 
   781  0017                     	;# 
   782  0018                     	;# 
   783  0019                     	;# 
   784  001A                     	;# 
   785  001B                     	;# 
   786  001C                     	;# 
   787  001E                     	;# 
   788  001F                     	;# 
   789  008C                     	;# 
   790  008D                     	;# 
   791  008E                     	;# 
   792  008F                     	;# 
   793  0090                     	;# 
   794  0091                     	;# 
   795  0092                     	;# 
   796  0093                     	;# 
   797  0095                     	;# 
   798  0096                     	;# 
   799  0097                     	;# 
   800  0098                     	;# 
   801  0099                     	;# 
   802  009A                     	;# 
   803  009B                     	;# 
   804  009B                     	;# 
   805  009C                     	;# 
   806  009D                     	;# 
   807  009E                     	;# 
   808  010C                     	;# 
   809  010D                     	;# 
   810  010E                     	;# 
   811  010F                     	;# 
   812  0110                     	;# 
   813  0111                     	;# 
   814  0112                     	;# 
   815  0113                     	;# 
   816  0114                     	;# 
   817  0115                     	;# 
   818  0116                     	;# 
   819  0117                     	;# 
   820  0118                     	;# 
   821  0119                     	;# 
   822  011A                     	;# 
   823  011B                     	;# 
   824  011D                     	;# 
   825  018C                     	;# 
   826  018D                     	;# 
   827  018F                     	;# 
   828  0190                     	;# 
   829  0191                     	;# 
   830  0191                     	;# 
   831  0192                     	;# 
   832  0193                     	;# 
   833  0193                     	;# 
   834  0193                     	;# 
   835  0194                     	;# 
   836  0195                     	;# 
   837  0196                     	;# 
   838  0199                     	;# 
   839  019A                     	;# 
   840  019B                     	;# 
   841  019B                     	;# 
   842  019B                     	;# 
   843  019B                     	;# 
   844  019C                     	;# 
   845  019C                     	;# 
   846  019D                     	;# 
   847  019E                     	;# 
   848  019F                     	;# 
   849  020D                     	;# 
   850  0210                     	;# 
   851  0211                     	;# 
   852  0212                     	;# 
   853  0213                     	;# 
   854  0214                     	;# 
   855  0215                     	;# 
   856  0215                     	;# 
   857  0216                     	;# 
   858  0217                     	;# 
   859  0291                     	;# 
   860  0291                     	;# 
   861  0292                     	;# 
   862  0293                     	;# 
   863  0294                     	;# 
   864  0295                     	;# 
   865  0295                     	;# 
   866  0296                     	;# 
   867  0298                     	;# 
   868  0298                     	;# 
   869  0299                     	;# 
   870  029A                     	;# 
   871  029B                     	;# 
   872  029C                     	;# 
   873  029C                     	;# 
   874  029D                     	;# 
   875  029E                     	;# 
   876  029F                     	;# 
   877  0311                     	;# 
   878  0311                     	;# 
   879  0312                     	;# 
   880  0313                     	;# 
   881  0314                     	;# 
   882  0315                     	;# 
   883  0315                     	;# 
   884  0316                     	;# 
   885  0318                     	;# 
   886  0318                     	;# 
   887  0319                     	;# 
   888  031A                     	;# 
   889  031C                     	;# 
   890  031C                     	;# 
   891  031D                     	;# 
   892  031E                     	;# 
   893  0394                     	;# 
   894  0395                     	;# 
   895  0396                     	;# 
   896  0415                     	;# 
   897  0416                     	;# 
   898  0417                     	;# 
   899  041C                     	;# 
   900  041D                     	;# 
   901  041E                     	;# 
   902  0791                     	;# 
   903  0792                     	;# 
   904  0793                     	;# 
   905  0794                     	;# 
   906  0795                     	;# 
   907  0798                     	;# 
   908  0799                     	;# 
   909  079A                     	;# 
   910  07A0                     	;# 
   911  07A1                     	;# 
   912  07A2                     	;# 
   913  07A3                     	;# 
   914  07A4                     	;# 
   915  07A5                     	;# 
   916  07A6                     	;# 
   917  07A7                     	;# 
   918  07A8                     	;# 
   919  07A9                     	;# 
   920  07AA                     	;# 
   921  07AB                     	;# 
   922  0FE4                     	;# 
   923  0FE5                     	;# 
   924  0FE6                     	;# 
   925  0FE7                     	;# 
   926  0FE8                     	;# 
   927  0FE9                     	;# 
   928  0FEA                     	;# 
   929  0FEB                     	;# 
   930  0FED                     	;# 
   931  0FEE                     	;# 
   932  0FEF                     	;# 
   933  0000                     	;# 
   934  0001                     	;# 
   935  0002                     	;# 
   936  0003                     	;# 
   937  0004                     	;# 
   938  0005                     	;# 
   939  0006                     	;# 
   940  0007                     	;# 
   941  0008                     	;# 
   942  0009                     	;# 
   943  000A                     	;# 
   944  000B                     	;# 
   945  000C                     	;# 
   946  000D                     	;# 
   947  000E                     	;# 
   948  000F                     	;# 
   949  0010                     	;# 
   950  0011                     	;# 
   951  0012                     	;# 
   952  0013                     	;# 
   953  0015                     	;# 
   954  0016                     	;# 
   955  0016                     	;# 
   956  0017                     	;# 
   957  0018                     	;# 
   958  0019                     	;# 
   959  001A                     	;# 
   960  001B                     	;# 
   961  001C                     	;# 
   962  001E                     	;# 
   963  001F                     	;# 
   964  008C                     	;# 
   965  008D                     	;# 
   966  008E                     	;# 
   967  008F                     	;# 
   968  0090                     	;# 
   969  0091                     	;# 
   970  0092                     	;# 
   971  0093                     	;# 
   972  0095                     	;# 
   973  0096                     	;# 
   974  0097                     	;# 
   975  0098                     	;# 
   976  0099                     	;# 
   977  009A                     	;# 
   978  009B                     	;# 
   979  009B                     	;# 
   980  009C                     	;# 
   981  009D                     	;# 
   982  009E                     	;# 
   983  010C                     	;# 
   984  010D                     	;# 
   985  010E                     	;# 
   986  010F                     	;# 
   987  0110                     	;# 
   988  0111                     	;# 
   989  0112                     	;# 
   990  0113                     	;# 
   991  0114                     	;# 
   992  0115                     	;# 
   993  0116                     	;# 
   994  0117                     	;# 
   995  0118                     	;# 
   996  0119                     	;# 
   997  011A                     	;# 
   998  011B                     	;# 
   999  011D                     	;# 
  1000  018C                     	;# 
  1001  018D                     	;# 
  1002  018F                     	;# 
  1003  0190                     	;# 
  1004  0191                     	;# 
  1005  0191                     	;# 
  1006  0192                     	;# 
  1007  0193                     	;# 
  1008  0193                     	;# 
  1009  0193                     	;# 
  1010  0194                     	;# 
  1011  0195                     	;# 
  1012  0196                     	;# 
  1013  0199                     	;# 
  1014  019A                     	;# 
  1015  019B                     	;# 
  1016  019B                     	;# 
  1017  019B                     	;# 
  1018  019B                     	;# 
  1019  019C                     	;# 
  1020  019C                     	;# 
  1021  019D                     	;# 
  1022  019E                     	;# 
  1023  019F                     	;# 
  1024  020D                     	;# 
  1025  0210                     	;# 
  1026  0211                     	;# 
  1027  0212                     	;# 
  1028  0213                     	;# 
  1029  0214                     	;# 
  1030  0215                     	;# 
  1031  0215                     	;# 
  1032  0216                     	;# 
  1033  0217                     	;# 
  1034  0291                     	;# 
  1035  0291                     	;# 
  1036  0292                     	;# 
  1037  0293                     	;# 
  1038  0294                     	;# 
  1039  0295                     	;# 
  1040  0295                     	;# 
  1041  0296                     	;# 
  1042  0298                     	;# 
  1043  0298                     	;# 
  1044  0299                     	;# 
  1045  029A                     	;# 
  1046  029B                     	;# 
  1047  029C                     	;# 
  1048  029C                     	;# 
  1049  029D                     	;# 
  1050  029E                     	;# 
  1051  029F                     	;# 
  1052  0311                     	;# 
  1053  0311                     	;# 
  1054  0312                     	;# 
  1055  0313                     	;# 
  1056  0314                     	;# 
  1057  0315                     	;# 
  1058  0315                     	;# 
  1059  0316                     	;# 
  1060  0318                     	;# 
  1061  0318                     	;# 
  1062  0319                     	;# 
  1063  031A                     	;# 
  1064  031C                     	;# 
  1065  031C                     	;# 
  1066  031D                     	;# 
  1067  031E                     	;# 
  1068  0394                     	;# 
  1069  0395                     	;# 
  1070  0396                     	;# 
  1071  0415                     	;# 
  1072  0416                     	;# 
  1073  0417                     	;# 
  1074  041C                     	;# 
  1075  041D                     	;# 
  1076  041E                     	;# 
  1077  0791                     	;# 
  1078  0792                     	;# 
  1079  0793                     	;# 
  1080  0794                     	;# 
  1081  0795                     	;# 
  1082  0798                     	;# 
  1083  0799                     	;# 
  1084  079A                     	;# 
  1085  07A0                     	;# 
  1086  07A1                     	;# 
  1087  07A2                     	;# 
  1088  07A3                     	;# 
  1089  07A4                     	;# 
  1090  07A5                     	;# 
  1091  07A6                     	;# 
  1092  07A7                     	;# 
  1093  07A8                     	;# 
  1094  07A9                     	;# 
  1095  07AA                     	;# 
  1096  07AB                     	;# 
  1097  0FE4                     	;# 
  1098  0FE5                     	;# 
  1099  0FE6                     	;# 
  1100  0FE7                     	;# 
  1101  0FE8                     	;# 
  1102  0FE9                     	;# 
  1103  0FEA                     	;# 
  1104  0FEB                     	;# 
  1105  0FED                     	;# 
  1106  0FEE                     	;# 
  1107  0FEF                     	;# 
  1108  0000                     	;# 
  1109  0001                     	;# 
  1110  0002                     	;# 
  1111  0003                     	;# 
  1112  0004                     	;# 
  1113  0005                     	;# 
  1114  0006                     	;# 
  1115  0007                     	;# 
  1116  0008                     	;# 
  1117  0009                     	;# 
  1118  000A                     	;# 
  1119  000B                     	;# 
  1120  000C                     	;# 
  1121  000D                     	;# 
  1122  000E                     	;# 
  1123  000F                     	;# 
  1124  0010                     	;# 
  1125  0011                     	;# 
  1126  0012                     	;# 
  1127  0013                     	;# 
  1128  0015                     	;# 
  1129  0016                     	;# 
  1130  0016                     	;# 
  1131  0017                     	;# 
  1132  0018                     	;# 
  1133  0019                     	;# 
  1134  001A                     	;# 
  1135  001B                     	;# 
  1136  001C                     	;# 
  1137  001E                     	;# 
  1138  001F                     	;# 
  1139  008C                     	;# 
  1140  008D                     	;# 
  1141  008E                     	;# 
  1142  008F                     	;# 
  1143  0090                     	;# 
  1144  0091                     	;# 
  1145  0092                     	;# 
  1146  0093                     	;# 
  1147  0095                     	;# 
  1148  0096                     	;# 
  1149  0097                     	;# 
  1150  0098                     	;# 
  1151  0099                     	;# 
  1152  009A                     	;# 
  1153  009B                     	;# 
  1154  009B                     	;# 
  1155  009C                     	;# 
  1156  009D                     	;# 
  1157  009E                     	;# 
  1158  010C                     	;# 
  1159  010D                     	;# 
  1160  010E                     	;# 
  1161  010F                     	;# 
  1162  0110                     	;# 
  1163  0111                     	;# 
  1164  0112                     	;# 
  1165  0113                     	;# 
  1166  0114                     	;# 
  1167  0115                     	;# 
  1168  0116                     	;# 
  1169  0117                     	;# 
  1170  0118                     	;# 
  1171  0119                     	;# 
  1172  011A                     	;# 
  1173  011B                     	;# 
  1174  011D                     	;# 
  1175  018C                     	;# 
  1176  018D                     	;# 
  1177  018F                     	;# 
  1178  0190                     	;# 
  1179  0191                     	;# 
  1180  0191                     	;# 
  1181  0192                     	;# 
  1182  0193                     	;# 
  1183  0193                     	;# 
  1184  0193                     	;# 
  1185  0194                     	;# 
  1186  0195                     	;# 
  1187  0196                     	;# 
  1188  0199                     	;# 
  1189  019A                     	;# 
  1190  019B                     	;# 
  1191  019B                     	;# 
  1192  019B                     	;# 
  1193  019B                     	;# 
  1194  019C                     	;# 
  1195  019C                     	;# 
  1196  019D                     	;# 
  1197  019E                     	;# 
  1198  019F                     	;# 
  1199  020D                     	;# 
  1200  0210                     	;# 
  1201  0211                     	;# 
  1202  0212                     	;# 
  1203  0213                     	;# 
  1204  0214                     	;# 
  1205  0215                     	;# 
  1206  0215                     	;# 
  1207  0216                     	;# 
  1208  0217                     	;# 
  1209  0291                     	;# 
  1210  0291                     	;# 
  1211  0292                     	;# 
  1212  0293                     	;# 
  1213  0294                     	;# 
  1214  0295                     	;# 
  1215  0295                     	;# 
  1216  0296                     	;# 
  1217  0298                     	;# 
  1218  0298                     	;# 
  1219  0299                     	;# 
  1220  029A                     	;# 
  1221  029B                     	;# 
  1222  029C                     	;# 
  1223  029C                     	;# 
  1224  029D                     	;# 
  1225  029E                     	;# 
  1226  029F                     	;# 
  1227  0311                     	;# 
  1228  0311                     	;# 
  1229  0312                     	;# 
  1230  0313                     	;# 
  1231  0314                     	;# 
  1232  0315                     	;# 
  1233  0315                     	;# 
  1234  0316                     	;# 
  1235  0318                     	;# 
  1236  0318                     	;# 
  1237  0319                     	;# 
  1238  031A                     	;# 
  1239  031C                     	;# 
  1240  031C                     	;# 
  1241  031D                     	;# 
  1242  031E                     	;# 
  1243  0394                     	;# 
  1244  0395                     	;# 
  1245  0396                     	;# 
  1246  0415                     	;# 
  1247  0416                     	;# 
  1248  0417                     	;# 
  1249  041C                     	;# 
  1250  041D                     	;# 
  1251  041E                     	;# 
  1252  0791                     	;# 
  1253  0792                     	;# 
  1254  0793                     	;# 
  1255  0794                     	;# 
  1256  0795                     	;# 
  1257  0798                     	;# 
  1258  0799                     	;# 
  1259  079A                     	;# 
  1260  07A0                     	;# 
  1261  07A1                     	;# 
  1262  07A2                     	;# 
  1263  07A3                     	;# 
  1264  07A4                     	;# 
  1265  07A5                     	;# 
  1266  07A6                     	;# 
  1267  07A7                     	;# 
  1268  07A8                     	;# 
  1269  07A9                     	;# 
  1270  07AA                     	;# 
  1271  07AB                     	;# 
  1272  0FE4                     	;# 
  1273  0FE5                     	;# 
  1274  0FE6                     	;# 
  1275  0FE7                     	;# 
  1276  0FE8                     	;# 
  1277  0FE9                     	;# 
  1278  0FEA                     	;# 
  1279  0FEB                     	;# 
  1280  0FED                     	;# 
  1281  0FEE                     	;# 
  1282  0FEF                     	;# 
  1283  001C                     _T2CONbits	set	28
  1284  001C                     _T2CON	set	28
  1285  0011                     _PIR1bits	set	17
  1286  001A                     _TMR2	set	26
  1287  001B                     _PR2	set	27
  1288  000C                     _PORTAbits	set	12
  1289  009D                     _ADCON0bits	set	157
  1290  009D                     _ADCON0	set	157
  1291  009C                     _ADRESH	set	156
  1292  009B                     _ADRESL	set	155
  1293  009E                     _ADCON1	set	158
  1294  0095                     _OPTION_REGbits	set	149
  1295  008F                     _TRISD	set	143
  1296  008E                     _TRISC	set	142
  1297  008D                     _TRISB	set	141
  1298  008C                     _TRISA	set	140
  1299  0090                     _TRISE	set	144
  1300  0097                     _WDTCON	set	151
  1301  0098                     _OSCTUNE	set	152
  1302  0099                     _OSCCON	set	153
  1303  04D6                     _PLLR	set	1238
  1304  011D                     _APFCON	set	285
  1305  010E                     _LATC	set	270
  1306  010D                     _LATB	set	269
  1307  010C                     _LATA	set	268
  1308  010F                     _LATD	set	271
  1309  0110                     _LATE	set	272
  1310  0116                     _BORCON	set	278
  1311  010C                     _LATAbits	set	268
  1312  018C                     _ANSELA	set	396
  1313  0190                     _ANSELE	set	400
  1314  018D                     _ANSELB	set	397
  1315  018F                     _ANSELD	set	399
  1316  020D                     _WPUB	set	525
  1317  0210                     _WPUE	set	528
  1318  029E                     _CCPTMRS0bits	set	670
  1319  0319                     _CCPR4H	set	793
  1320  0318                     _CCPR4L	set	792
  1321  031A                     _CCP4CON	set	794
  1322                           
  1323                           	psect	cinit
  1324  07F9                     start_initialization:	
  1325                           ; #config settings
  1326                           
  1327  07F9                     __initialization:
  1328                           
  1329                           ; Clear objects allocated to COMMON
  1330  07F9  01F0               	clrf	__pbssCOMMON& (0+127)
  1331  07FA  01F1               	clrf	(__pbssCOMMON+1)& (0+127)
  1332  07FB  01F2               	clrf	(__pbssCOMMON+2)& (0+127)
  1333  07FC  01F3               	clrf	(__pbssCOMMON+3)& (0+127)
  1334  07FD                     end_of_initialization:	
  1335                           ;End of C runtime variable initialization code
  1336                           
  1337  07FD                     __end_of__initialization:
  1338  07FD  0020               	movlb	0
  1339  07FE  3187  2FD4         	ljmp	_main	;jump to C main() function
  1340                           
  1341                           	psect	bssCOMMON
  1342  0070                     __pbssCOMMON:
  1343  0070                     _ADC_InterruptHandler:
  1344  0070                     	ds	2
  1345  0072                     _conver:
  1346  0072                     	ds	2
  1347                           
  1348                           	psect	cstackCOMMON
  1349  0074                     __pcstackCOMMON:
  1350  0074                     ?_SYSTEM_Initialize:
  1351  0074                     ??_SYSTEM_Initialize:	
  1352                           ; 1 bytes @ 0x0
  1353                           
  1354  0074                     ?_girarI:	
  1355                           ; 1 bytes @ 0x0
  1356                           
  1357  0074                     ??_girarI:	
  1358                           ; 1 bytes @ 0x0
  1359                           
  1360  0074                     ?_girarD:	
  1361                           ; 1 bytes @ 0x0
  1362                           
  1363  0074                     ??_girarD:	
  1364                           ; 1 bytes @ 0x0
  1365                           
  1366  0074                     ?_PWM4_LoadDutyValue:	
  1367                           ; 1 bytes @ 0x0
  1368                           
  1369  0074                     ?_PIN_MANAGER_Initialize:	
  1370                           ; 1 bytes @ 0x0
  1371                           
  1372  0074                     ??_PIN_MANAGER_Initialize:	
  1373                           ; 1 bytes @ 0x0
  1374                           
  1375  0074                     ?_OSCILLATOR_Initialize:	
  1376                           ; 1 bytes @ 0x0
  1377                           
  1378  0074                     ??_OSCILLATOR_Initialize:	
  1379                           ; 1 bytes @ 0x0
  1380                           
  1381  0074                     ?_WDT_Initialize:	
  1382                           ; 1 bytes @ 0x0
  1383                           
  1384  0074                     ??_WDT_Initialize:	
  1385                           ; 1 bytes @ 0x0
  1386                           
  1387  0074                     ?_PWM4_Initialize:	
  1388                           ; 1 bytes @ 0x0
  1389                           
  1390  0074                     ??_PWM4_Initialize:	
  1391                           ; 1 bytes @ 0x0
  1392                           
  1393  0074                     ?_TMR2_Initialize:	
  1394                           ; 1 bytes @ 0x0
  1395                           
  1396  0074                     ??_TMR2_Initialize:	
  1397                           ; 1 bytes @ 0x0
  1398                           
  1399  0074                     ?_ADC_Initialize:	
  1400                           ; 1 bytes @ 0x0
  1401                           
  1402  0074                     ??_ADC_Initialize:	
  1403                           ; 1 bytes @ 0x0
  1404                           
  1405  0074                     ?_main:	
  1406                           ; 1 bytes @ 0x0
  1407                           
  1408  0074                     ?_ADC_GetConversion:	
  1409                           ; 1 bytes @ 0x0
  1410                           
  1411  0074                     PWM4_LoadDutyValue@dutyValue:	
  1412                           ; 2 bytes @ 0x0
  1413                           
  1414                           
  1415                           ; 2 bytes @ 0x0
  1416  0074                     	ds	2
  1417  0076                     ??_ADC_GetConversion:
  1418  0076                     ??_PWM4_LoadDutyValue:	
  1419                           ; 1 bytes @ 0x2
  1420                           
  1421                           
  1422                           ; 1 bytes @ 0x2
  1423  0076                     	ds	1
  1424  0077                     ADC_GetConversion@channel:
  1425                           
  1426                           ; 1 bytes @ 0x3
  1427  0077                     	ds	1
  1428  0078                     ??_main:
  1429                           
  1430                           	psect	maintext
  1431  07D4                     __pmaintext:	
  1432                           ; 1 bytes @ 0x4
  1433 ;;
  1434 ;;Main: autosize = 0, tempsize = 0, incstack = 0, save=0
  1435 ;;
  1436 ;; *************** function _main *****************
  1437 ;; Defined at:
  1438 ;;		line 13 in file "main.c"
  1439 ;; Parameters:    Size  Location     Type
  1440 ;;		None
  1441 ;; Auto vars:     Size  Location     Type
  1442 ;;		None
  1443 ;; Return value:  Size  Location     Type
  1444 ;;                  1    wreg      void 
  1445 ;; Registers used:
  1446 ;;		wreg, status,2, status,0, pclath, cstack
  1447 ;; Tracked objects:
  1448 ;;		On entry : B1F/0
  1449 ;;		On exit  : 0/0
  1450 ;;		Unchanged: 0/0
  1451 ;; Data sizes:     COMMON   BANK0   BANK1   BANK2   BANK3   BANK4   BANK5   BANK6   BANK7   BANK8   BANK9  BANK10  BANK1
      +1  BANK12
  1452 ;;      Params:         0       0       0       0       0       0       0       0       0       0       0       0       
      +0       0
  1453 ;;      Locals:         0       0       0       0       0       0       0       0       0       0       0       0       
      +0       0
  1454 ;;      Temps:          0       0       0       0       0       0       0       0       0       0       0       0       
      +0       0
  1455 ;;      Totals:         0       0       0       0       0       0       0       0       0       0       0       0       
      +0       0
  1456 ;;Total ram usage:        0 bytes
  1457 ;; Hardware stack levels required when called: 2
  1458 ;; This function calls:
  1459 ;;		_ADC_GetConversion
  1460 ;;		_PWM4_LoadDutyValue
  1461 ;;		_SYSTEM_Initialize
  1462 ;;		_girarD
  1463 ;;		_girarI
  1464 ;; This function is called by:
  1465 ;;		Startup code after reset
  1466 ;; This function uses a non-reentrant model
  1467 ;;
  1468                           
  1469  07D4                     _main:	
  1470                           ;psect for function _main
  1471                           
  1472  07D4                     l982:	
  1473                           ;incstack = 0
  1474                           ; Regs used in _main: [wreg+status,2+status,0+pclath+cstack]
  1475                           
  1476                           
  1477                           ;main.c: 16:     SYSTEM_Initialize();
  1478  07D4  3187  276D  3187   	fcall	_SYSTEM_Initialize
  1479  07D7                     l984:
  1480                           
  1481                           ;main.c: 19:         if(PORTAbits.RA0 == 1){
  1482  07D7  0020               	movlb	0	; select bank0
  1483  07D8  1C0C               	btfss	12,0	;volatile
  1484  07D9  2FDB               	goto	u91
  1485  07DA  2FDC               	goto	u90
  1486  07DB                     u91:
  1487  07DB  2FE0               	goto	l22
  1488  07DC                     u90:
  1489  07DC                     l986:
  1490                           
  1491                           ;main.c: 20:             girarI();
  1492  07DC  3187  2741  3187   	fcall	_girarI
  1493                           
  1494                           ;main.c: 22:         }
  1495  07DF  2FE7               	goto	l990
  1496  07E0                     l22:	
  1497                           ;main.c: 23:         else if(PORTAbits.RA1 == 1){
  1498                           
  1499  07E0  1C8C               	btfss	12,1	;volatile
  1500  07E1  2FE3               	goto	u101
  1501  07E2  2FE4               	goto	u100
  1502  07E3                     u101:
  1503  07E3  2FE7               	goto	l990
  1504  07E4                     u100:
  1505  07E4                     l988:
  1506                           
  1507                           ;main.c: 24:             girarD();
  1508  07E4  3187  273B  3187   	fcall	_girarD
  1509  07E7                     l990:
  1510                           
  1511                           ;main.c: 27:         conver = ADC_GetConversion(2);
  1512  07E7  3002               	movlw	2
  1513  07E8  3187  2797  3187   	fcall	_ADC_GetConversion
  1514  07EB  0875               	movf	?_ADC_GetConversion+1,w
  1515  07EC  00F3               	movwf	_conver+1
  1516  07ED  0874               	movf	?_ADC_GetConversion,w
  1517  07EE  00F2               	movwf	_conver
  1518  07EF                     l992:
  1519                           
  1520                           ;main.c: 28:         PWM4_LoadDutyValue(50);
  1521  07EF  3032               	movlw	50
  1522  07F0  00F4               	movwf	PWM4_LoadDutyValue@dutyValue
  1523  07F1  3000               	movlw	0
  1524  07F2  00F5               	movwf	PWM4_LoadDutyValue@dutyValue+1
  1525  07F3  3187  2780  3187   	fcall	_PWM4_LoadDutyValue
  1526  07F6  2FD7               	goto	l984
  1527  07F7  3180  2802         	ljmp	start
  1528  07F9                     __end_of_main:
  1529                           
  1530                           	psect	text1
  1531  0741                     __ptext1:	
  1532 ;; *************** function _girarI *****************
  1533 ;; Defined at:
  1534 ;;		line 60 in file "main.c"
  1535 ;; Parameters:    Size  Location     Type
  1536 ;;		None
  1537 ;; Auto vars:     Size  Location     Type
  1538 ;;		None
  1539 ;; Return value:  Size  Location     Type
  1540 ;;                  1    wreg      void 
  1541 ;; Registers used:
  1542 ;;		None
  1543 ;; Tracked objects:
  1544 ;;		On entry : 0/0
  1545 ;;		On exit  : 0/0
  1546 ;;		Unchanged: 0/0
  1547 ;; Data sizes:     COMMON   BANK0   BANK1   BANK2   BANK3   BANK4   BANK5   BANK6   BANK7   BANK8   BANK9  BANK10  BANK1
      +1  BANK12
  1548 ;;      Params:         0       0       0       0       0       0       0       0       0       0       0       0       
      +0       0
  1549 ;;      Locals:         0       0       0       0       0       0       0       0       0       0       0       0       
      +0       0
  1550 ;;      Temps:          0       0       0       0       0       0       0       0       0       0       0       0       
      +0       0
  1551 ;;      Totals:         0       0       0       0       0       0       0       0       0       0       0       0       
      +0       0
  1552 ;;Total ram usage:        0 bytes
  1553 ;; Hardware stack levels used: 1
  1554 ;; This function calls:
  1555 ;;		Nothing
  1556 ;; This function is called by:
  1557 ;;		_main
  1558 ;; This function uses a non-reentrant model
  1559 ;;
  1560                           
  1561  0741                     _girarI:	
  1562                           ;psect for function _girarI
  1563                           
  1564  0741                     l74:	
  1565                           ;incstack = 0
  1566                           ; Regs used in _girarI: []
  1567                           ;main.c: 61:     do { LATAbits.LATA3 = 0; } while(0);
  1568                           
  1569  0741  0022               	movlb	2	; select bank2
  1570  0742  118C               	bcf	12,3	;volatile
  1571  0743                     l76:	
  1572                           ;main.c: 62:     do { LATAbits.LATA4 = 0; } while(0);
  1573                           
  1574  0743  120C               	bcf	12,4	;volatile
  1575  0744                     l78:	
  1576                           ;main.c: 63:     do { LATAbits.LATA5 = 1; } while(0);
  1577                           
  1578  0744  168C               	bsf	12,5	;volatile
  1579  0745                     l80:	
  1580                           ;main.c: 64:     do { LATAbits.LATA6 = 0; } while(0);
  1581                           
  1582  0745  130C               	bcf	12,6	;volatile
  1583  0746                     l82:
  1584  0746  0008               	return
  1585  0747                     __end_of_girarI:
  1586                           
  1587                           	psect	text2
  1588  073B                     __ptext2:	
  1589 ;; *************** function _girarD *****************
  1590 ;; Defined at:
  1591 ;;		line 54 in file "main.c"
  1592 ;; Parameters:    Size  Location     Type
  1593 ;;		None
  1594 ;; Auto vars:     Size  Location     Type
  1595 ;;		None
  1596 ;; Return value:  Size  Location     Type
  1597 ;;                  1    wreg      void 
  1598 ;; Registers used:
  1599 ;;		None
  1600 ;; Tracked objects:
  1601 ;;		On entry : 0/0
  1602 ;;		On exit  : 0/0
  1603 ;;		Unchanged: 0/0
  1604 ;; Data sizes:     COMMON   BANK0   BANK1   BANK2   BANK3   BANK4   BANK5   BANK6   BANK7   BANK8   BANK9  BANK10  BANK1
      +1  BANK12
  1605 ;;      Params:         0       0       0       0       0       0       0       0       0       0       0       0       
      +0       0
  1606 ;;      Locals:         0       0       0       0       0       0       0       0       0       0       0       0       
      +0       0
  1607 ;;      Temps:          0       0       0       0       0       0       0       0       0       0       0       0       
      +0       0
  1608 ;;      Totals:         0       0       0       0       0       0       0       0       0       0       0       0       
      +0       0
  1609 ;;Total ram usage:        0 bytes
  1610 ;; Hardware stack levels used: 1
  1611 ;; This function calls:
  1612 ;;		Nothing
  1613 ;; This function is called by:
  1614 ;;		_main
  1615 ;; This function uses a non-reentrant model
  1616 ;;
  1617                           
  1618  073B                     _girarD:	
  1619                           ;psect for function _girarD
  1620                           
  1621  073B                     l63:	
  1622                           ;incstack = 0
  1623                           ; Regs used in _girarD: []
  1624                           ;main.c: 55:     do { LATAbits.LATA4 = 1; } while(0);
  1625                           
  1626  073B  0022               	movlb	2	; select bank2
  1627  073C  160C               	bsf	12,4	;volatile
  1628  073D                     l65:	
  1629                           ;main.c: 56:     do { LATAbits.LATA3 = 0; } while(0);
  1630                           
  1631  073D  118C               	bcf	12,3	;volatile
  1632  073E                     l67:	
  1633                           ;main.c: 57:     do { LATAbits.LATA5 = 0; } while(0);
  1634                           
  1635  073E  128C               	bcf	12,5	;volatile
  1636  073F                     l69:	
  1637                           ;main.c: 58:     do { LATAbits.LATA6 = 0; } while(0);
  1638                           
  1639  073F  130C               	bcf	12,6	;volatile
  1640  0740                     l71:
  1641  0740  0008               	return
  1642  0741                     __end_of_girarD:
  1643                           
  1644                           	psect	text3
  1645  076D                     __ptext3:	
  1646 ;; *************** function _SYSTEM_Initialize *****************
  1647 ;; Defined at:
  1648 ;;		line 50 in file "mcc_generated_files/mcc.c"
  1649 ;; Parameters:    Size  Location     Type
  1650 ;;		None
  1651 ;; Auto vars:     Size  Location     Type
  1652 ;;		None
  1653 ;; Return value:  Size  Location     Type
  1654 ;;                  1    wreg      void 
  1655 ;; Registers used:
  1656 ;;		wreg, status,2, status,0, pclath, cstack
  1657 ;; Tracked objects:
  1658 ;;		On entry : 0/0
  1659 ;;		On exit  : 0/0
  1660 ;;		Unchanged: 0/0
  1661 ;; Data sizes:     COMMON   BANK0   BANK1   BANK2   BANK3   BANK4   BANK5   BANK6   BANK7   BANK8   BANK9  BANK10  BANK1
      +1  BANK12
  1662 ;;      Params:         0       0       0       0       0       0       0       0       0       0       0       0       
      +0       0
  1663 ;;      Locals:         0       0       0       0       0       0       0       0       0       0       0       0       
      +0       0
  1664 ;;      Temps:          0       0       0       0       0       0       0       0       0       0       0       0       
      +0       0
  1665 ;;      Totals:         0       0       0       0       0       0       0       0       0       0       0       0       
      +0       0
  1666 ;;Total ram usage:        0 bytes
  1667 ;; Hardware stack levels used: 1
  1668 ;; Hardware stack levels required when called: 1
  1669 ;; This function calls:
  1670 ;;		_ADC_Initialize
  1671 ;;		_OSCILLATOR_Initialize
  1672 ;;		_PIN_MANAGER_Initialize
  1673 ;;		_PWM4_Initialize
  1674 ;;		_TMR2_Initialize
  1675 ;;		_WDT_Initialize
  1676 ;; This function is called by:
  1677 ;;		_main
  1678 ;; This function uses a non-reentrant model
  1679 ;;
  1680                           
  1681  076D                     _SYSTEM_Initialize:	
  1682                           ;psect for function _SYSTEM_Initialize
  1683                           
  1684  076D                     l906:	
  1685                           ;incstack = 0
  1686                           ; Regs used in _SYSTEM_Initialize: [wreg+status,2+status,0+pclath+cstack]
  1687                           
  1688                           
  1689                           ;mcc_generated_files/mcc.c: 53:     PIN_MANAGER_Initialize();
  1690  076D  3187  27B2  3187   	fcall	_PIN_MANAGER_Initialize
  1691                           
  1692                           ;mcc_generated_files/mcc.c: 54:     OSCILLATOR_Initialize();
  1693  0770  3187  2761  3187   	fcall	_OSCILLATOR_Initialize
  1694                           
  1695                           ;mcc_generated_files/mcc.c: 55:     WDT_Initialize();
  1696  0773  3187  2737  3187   	fcall	_WDT_Initialize
  1697                           
  1698                           ;mcc_generated_files/mcc.c: 56:     PWM4_Initialize();
  1699  0776  3187  2757  3187   	fcall	_PWM4_Initialize
  1700                           
  1701                           ;mcc_generated_files/mcc.c: 57:     TMR2_Initialize();
  1702  0779  3187  274F  3187   	fcall	_TMR2_Initialize
  1703                           
  1704                           ;mcc_generated_files/mcc.c: 58:     ADC_Initialize();
  1705  077C  3187  2747  3187   	fcall	_ADC_Initialize
  1706  077F                     l107:
  1707  077F  0008               	return
  1708  0780                     __end_of_SYSTEM_Initialize:
  1709                           
  1710                           	psect	text4
  1711  0737                     __ptext4:	
  1712 ;; *************** function _WDT_Initialize *****************
  1713 ;; Defined at:
  1714 ;;		line 75 in file "mcc_generated_files/mcc.c"
  1715 ;; Parameters:    Size  Location     Type
  1716 ;;		None
  1717 ;; Auto vars:     Size  Location     Type
  1718 ;;		None
  1719 ;; Return value:  Size  Location     Type
  1720 ;;                  1    wreg      void 
  1721 ;; Registers used:
  1722 ;;		wreg
  1723 ;; Tracked objects:
  1724 ;;		On entry : 0/0
  1725 ;;		On exit  : 0/0
  1726 ;;		Unchanged: 0/0
  1727 ;; Data sizes:     COMMON   BANK0   BANK1   BANK2   BANK3   BANK4   BANK5   BANK6   BANK7   BANK8   BANK9  BANK10  BANK1
      +1  BANK12
  1728 ;;      Params:         0       0       0       0       0       0       0       0       0       0       0       0       
      +0       0
  1729 ;;      Locals:         0       0       0       0       0       0       0       0       0       0       0       0       
      +0       0
  1730 ;;      Temps:          0       0       0       0       0       0       0       0       0       0       0       0       
      +0       0
  1731 ;;      Totals:         0       0       0       0       0       0       0       0       0       0       0       0       
      +0       0
  1732 ;;Total ram usage:        0 bytes
  1733 ;; Hardware stack levels used: 1
  1734 ;; This function calls:
  1735 ;;		Nothing
  1736 ;; This function is called by:
  1737 ;;		_SYSTEM_Initialize
  1738 ;; This function uses a non-reentrant model
  1739 ;;
  1740                           
  1741  0737                     _WDT_Initialize:	
  1742                           ;psect for function _WDT_Initialize
  1743                           
  1744  0737                     l884:	
  1745                           ;incstack = 0
  1746                           ; Regs used in _WDT_Initialize: [wreg]
  1747                           
  1748                           
  1749                           ;mcc_generated_files/mcc.c: 78:     WDTCON = 0x16;
  1750  0737  3016               	movlw	22
  1751  0738  0021               	movlb	1	; select bank1
  1752  0739  0097               	movwf	23	;volatile
  1753  073A                     l116:
  1754  073A  0008               	return
  1755  073B                     __end_of_WDT_Initialize:
  1756                           
  1757                           	psect	text5
  1758  074F                     __ptext5:	
  1759 ;; *************** function _TMR2_Initialize *****************
  1760 ;; Defined at:
  1761 ;;		line 62 in file "mcc_generated_files/tmr2.c"
  1762 ;; Parameters:    Size  Location     Type
  1763 ;;		None
  1764 ;; Auto vars:     Size  Location     Type
  1765 ;;		None
  1766 ;; Return value:  Size  Location     Type
  1767 ;;                  1    wreg      void 
  1768 ;; Registers used:
  1769 ;;		wreg, status,2
  1770 ;; Tracked objects:
  1771 ;;		On entry : 0/0
  1772 ;;		On exit  : 0/0
  1773 ;;		Unchanged: 0/0
  1774 ;; Data sizes:     COMMON   BANK0   BANK1   BANK2   BANK3   BANK4   BANK5   BANK6   BANK7   BANK8   BANK9  BANK10  BANK1
      +1  BANK12
  1775 ;;      Params:         0       0       0       0       0       0       0       0       0       0       0       0       
      +0       0
  1776 ;;      Locals:         0       0       0       0       0       0       0       0       0       0       0       0       
      +0       0
  1777 ;;      Temps:          0       0       0       0       0       0       0       0       0       0       0       0       
      +0       0
  1778 ;;      Totals:         0       0       0       0       0       0       0       0       0       0       0       0       
      +0       0
  1779 ;;Total ram usage:        0 bytes
  1780 ;; Hardware stack levels used: 1
  1781 ;; This function calls:
  1782 ;;		Nothing
  1783 ;; This function is called by:
  1784 ;;		_SYSTEM_Initialize
  1785 ;; This function uses a non-reentrant model
  1786 ;;
  1787                           
  1788  074F                     _TMR2_Initialize:	
  1789                           ;psect for function _TMR2_Initialize
  1790                           
  1791  074F                     l892:	
  1792                           ;incstack = 0
  1793                           ; Regs used in _TMR2_Initialize: [wreg+status,2]
  1794                           
  1795                           
  1796                           ;mcc_generated_files/tmr2.c: 67:     PR2 = 0x03;
  1797  074F  3003               	movlw	3
  1798  0750  0020               	movlb	0	; select bank0
  1799  0751  009B               	movwf	27	;volatile
  1800  0752                     l894:
  1801                           
  1802                           ;mcc_generated_files/tmr2.c: 70:     TMR2 = 0x00;
  1803  0752  019A               	clrf	26	;volatile
  1804  0753                     l896:
  1805                           
  1806                           ;mcc_generated_files/tmr2.c: 73:     PIR1bits.TMR2IF = 0;
  1807  0753  1091               	bcf	17,1	;volatile
  1808  0754                     l898:
  1809                           
  1810                           ;mcc_generated_files/tmr2.c: 76:     T2CON = 0x7F;
  1811  0754  307F               	movlw	127
  1812  0755  009C               	movwf	28	;volatile
  1813  0756                     l209:
  1814  0756  0008               	return
  1815  0757                     __end_of_TMR2_Initialize:
  1816                           
  1817                           	psect	text6
  1818  0757                     __ptext6:	
  1819 ;; *************** function _PWM4_Initialize *****************
  1820 ;; Defined at:
  1821 ;;		line 64 in file "mcc_generated_files/pwm4.c"
  1822 ;; Parameters:    Size  Location     Type
  1823 ;;		None
  1824 ;; Auto vars:     Size  Location     Type
  1825 ;;		None
  1826 ;; Return value:  Size  Location     Type
  1827 ;;                  1    wreg      void 
  1828 ;; Registers used:
  1829 ;;		wreg, status,2, status,0
  1830 ;; Tracked objects:
  1831 ;;		On entry : 0/0
  1832 ;;		On exit  : 0/0
  1833 ;;		Unchanged: 0/0
  1834 ;; Data sizes:     COMMON   BANK0   BANK1   BANK2   BANK3   BANK4   BANK5   BANK6   BANK7   BANK8   BANK9  BANK10  BANK1
      +1  BANK12
  1835 ;;      Params:         0       0       0       0       0       0       0       0       0       0       0       0       
      +0       0
  1836 ;;      Locals:         0       0       0       0       0       0       0       0       0       0       0       0       
      +0       0
  1837 ;;      Temps:          0       0       0       0       0       0       0       0       0       0       0       0       
      +0       0
  1838 ;;      Totals:         0       0       0       0       0       0       0       0       0       0       0       0       
      +0       0
  1839 ;;Total ram usage:        0 bytes
  1840 ;; Hardware stack levels used: 1
  1841 ;; This function calls:
  1842 ;;		Nothing
  1843 ;; This function is called by:
  1844 ;;		_SYSTEM_Initialize
  1845 ;; This function uses a non-reentrant model
  1846 ;;
  1847                           
  1848  0757                     _PWM4_Initialize:	
  1849                           ;psect for function _PWM4_Initialize
  1850                           
  1851  0757                     l886:	
  1852                           ;incstack = 0
  1853                           ; Regs used in _PWM4_Initialize: [wreg+status,2+status,0]
  1854                           
  1855                           
  1856                           ;mcc_generated_files/pwm4.c: 69:  CCP4CON = 0x3C;
  1857  0757  303C               	movlw	60
  1858  0758  0026               	movlb	6	; select bank6
  1859  0759  009A               	movwf	26	;volatile
  1860                           
  1861                           ;mcc_generated_files/pwm4.c: 72:  CCPR4L = 0x01;
  1862  075A  3001               	movlw	1
  1863  075B  0098               	movwf	24	;volatile
  1864  075C                     l888:
  1865                           
  1866                           ;mcc_generated_files/pwm4.c: 75:  CCPR4H = 0x00;
  1867  075C  0199               	clrf	25	;volatile
  1868  075D                     l890:
  1869                           
  1870                           ;mcc_generated_files/pwm4.c: 78:  CCPTMRS0bits.C4TSEL = 0x0;
  1871  075D  303F               	movlw	-193
  1872  075E  0025               	movlb	5	; select bank5
  1873  075F  059E               	andwf	30,f	;volatile
  1874  0760                     l239:
  1875  0760  0008               	return
  1876  0761                     __end_of_PWM4_Initialize:
  1877                           
  1878                           	psect	text7
  1879  07B2                     __ptext7:	
  1880 ;; *************** function _PIN_MANAGER_Initialize *****************
  1881 ;; Defined at:
  1882 ;;		line 55 in file "mcc_generated_files/pin_manager.c"
  1883 ;; Parameters:    Size  Location     Type
  1884 ;;		None
  1885 ;; Auto vars:     Size  Location     Type
  1886 ;;		None
  1887 ;; Return value:  Size  Location     Type
  1888 ;;                  1    wreg      void 
  1889 ;; Registers used:
  1890 ;;		wreg, status,2
  1891 ;; Tracked objects:
  1892 ;;		On entry : 0/0
  1893 ;;		On exit  : 0/0
  1894 ;;		Unchanged: 0/0
  1895 ;; Data sizes:     COMMON   BANK0   BANK1   BANK2   BANK3   BANK4   BANK5   BANK6   BANK7   BANK8   BANK9  BANK10  BANK1
      +1  BANK12
  1896 ;;      Params:         0       0       0       0       0       0       0       0       0       0       0       0       
      +0       0
  1897 ;;      Locals:         0       0       0       0       0       0       0       0       0       0       0       0       
      +0       0
  1898 ;;      Temps:          0       0       0       0       0       0       0       0       0       0       0       0       
      +0       0
  1899 ;;      Totals:         0       0       0       0       0       0       0       0       0       0       0       0       
      +0       0
  1900 ;;Total ram usage:        0 bytes
  1901 ;; Hardware stack levels used: 1
  1902 ;; This function calls:
  1903 ;;		Nothing
  1904 ;; This function is called by:
  1905 ;;		_SYSTEM_Initialize
  1906 ;; This function uses a non-reentrant model
  1907 ;;
  1908                           
  1909  07B2                     _PIN_MANAGER_Initialize:	
  1910                           ;psect for function _PIN_MANAGER_Initialize
  1911                           
  1912  07B2                     l850:	
  1913                           ;incstack = 0
  1914                           ; Regs used in _PIN_MANAGER_Initialize: [wreg+status,2]
  1915                           
  1916                           
  1917                           ;mcc_generated_files/pin_manager.c: 60:     LATE = 0x00;
  1918  07B2  0022               	movlb	2	; select bank2
  1919  07B3  0190               	clrf	16	;volatile
  1920                           
  1921                           ;mcc_generated_files/pin_manager.c: 61:     LATD = 0x00;
  1922  07B4  018F               	clrf	15	;volatile
  1923                           
  1924                           ;mcc_generated_files/pin_manager.c: 62:     LATA = 0x00;
  1925  07B5  018C               	clrf	12	;volatile
  1926                           
  1927                           ;mcc_generated_files/pin_manager.c: 63:     LATB = 0x00;
  1928  07B6  018D               	clrf	13	;volatile
  1929                           
  1930                           ;mcc_generated_files/pin_manager.c: 64:     LATC = 0x00;
  1931  07B7  018E               	clrf	14	;volatile
  1932  07B8                     l852:
  1933                           
  1934                           ;mcc_generated_files/pin_manager.c: 69:     TRISE = 0x0F;
  1935  07B8  300F               	movlw	15
  1936  07B9  0021               	movlb	1	; select bank1
  1937  07BA  0090               	movwf	16	;volatile
  1938  07BB                     l854:
  1939                           
  1940                           ;mcc_generated_files/pin_manager.c: 70:     TRISA = 0x87;
  1941  07BB  3087               	movlw	135
  1942  07BC  008C               	movwf	12	;volatile
  1943  07BD                     l856:
  1944                           
  1945                           ;mcc_generated_files/pin_manager.c: 71:     TRISB = 0xFF;
  1946  07BD  30FF               	movlw	255
  1947  07BE  008D               	movwf	13	;volatile
  1948  07BF                     l858:
  1949                           
  1950                           ;mcc_generated_files/pin_manager.c: 72:     TRISC = 0xFF;
  1951  07BF  30FF               	movlw	255
  1952  07C0  008E               	movwf	14	;volatile
  1953  07C1                     l860:
  1954                           
  1955                           ;mcc_generated_files/pin_manager.c: 73:     TRISD = 0xFD;
  1956  07C1  30FD               	movlw	253
  1957  07C2  008F               	movwf	15	;volatile
  1958  07C3                     l862:
  1959                           
  1960                           ;mcc_generated_files/pin_manager.c: 78:     ANSELD = 0xFF;
  1961  07C3  30FF               	movlw	255
  1962  07C4  0023               	movlb	3	; select bank3
  1963  07C5  008F               	movwf	15	;volatile
  1964  07C6                     l864:
  1965                           
  1966                           ;mcc_generated_files/pin_manager.c: 79:     ANSELB = 0x3F;
  1967  07C6  303F               	movlw	63
  1968  07C7  008D               	movwf	13	;volatile
  1969  07C8                     l866:
  1970                           
  1971                           ;mcc_generated_files/pin_manager.c: 80:     ANSELE = 0x07;
  1972  07C8  3007               	movlw	7
  1973  07C9  0090               	movwf	16	;volatile
  1974  07CA                     l868:
  1975                           
  1976                           ;mcc_generated_files/pin_manager.c: 81:     ANSELA = 0x04;
  1977  07CA  3004               	movlw	4
  1978  07CB  008C               	movwf	12	;volatile
  1979  07CC                     l870:
  1980                           
  1981                           ;mcc_generated_files/pin_manager.c: 86:     WPUE = 0x00;
  1982  07CC  0024               	movlb	4	; select bank4
  1983  07CD  0190               	clrf	16	;volatile
  1984  07CE                     l872:
  1985                           
  1986                           ;mcc_generated_files/pin_manager.c: 87:     WPUB = 0x00;
  1987  07CE  018D               	clrf	13	;volatile
  1988  07CF                     l874:
  1989                           
  1990                           ;mcc_generated_files/pin_manager.c: 88:     OPTION_REGbits.nWPUEN = 1;
  1991  07CF  0021               	movlb	1	; select bank1
  1992  07D0  1795               	bsf	21,7	;volatile
  1993  07D1                     l876:
  1994                           
  1995                           ;mcc_generated_files/pin_manager.c: 94:     APFCON = 0x00;
  1996  07D1  0022               	movlb	2	; select bank2
  1997  07D2  019D               	clrf	29	;volatile
  1998  07D3                     l155:
  1999  07D3  0008               	return
  2000  07D4                     __end_of_PIN_MANAGER_Initialize:
  2001                           
  2002                           	psect	text8
  2003  0761                     __ptext8:	
  2004 ;; *************** function _OSCILLATOR_Initialize *****************
  2005 ;; Defined at:
  2006 ;;		line 61 in file "mcc_generated_files/mcc.c"
  2007 ;; Parameters:    Size  Location     Type
  2008 ;;		None
  2009 ;; Auto vars:     Size  Location     Type
  2010 ;;		None
  2011 ;; Return value:  Size  Location     Type
  2012 ;;                  1    wreg      void 
  2013 ;; Registers used:
  2014 ;;		wreg, status,2
  2015 ;; Tracked objects:
  2016 ;;		On entry : 0/0
  2017 ;;		On exit  : 0/0
  2018 ;;		Unchanged: 0/0
  2019 ;; Data sizes:     COMMON   BANK0   BANK1   BANK2   BANK3   BANK4   BANK5   BANK6   BANK7   BANK8   BANK9  BANK10  BANK1
      +1  BANK12
  2020 ;;      Params:         0       0       0       0       0       0       0       0       0       0       0       0       
      +0       0
  2021 ;;      Locals:         0       0       0       0       0       0       0       0       0       0       0       0       
      +0       0
  2022 ;;      Temps:          0       0       0       0       0       0       0       0       0       0       0       0       
      +0       0
  2023 ;;      Totals:         0       0       0       0       0       0       0       0       0       0       0       0       
      +0       0
  2024 ;;Total ram usage:        0 bytes
  2025 ;; Hardware stack levels used: 1
  2026 ;; This function calls:
  2027 ;;		Nothing
  2028 ;; This function is called by:
  2029 ;;		_SYSTEM_Initialize
  2030 ;; This function uses a non-reentrant model
  2031 ;;
  2032                           
  2033  0761                     _OSCILLATOR_Initialize:	
  2034                           ;psect for function _OSCILLATOR_Initialize
  2035                           
  2036  0761                     l878:	
  2037                           ;incstack = 0
  2038                           ; Regs used in _OSCILLATOR_Initialize: [wreg+status,2]
  2039                           
  2040                           
  2041                           ;mcc_generated_files/mcc.c: 64:     OSCCON = 0x70;
  2042  0761  3070               	movlw	112
  2043  0762  0021               	movlb	1	; select bank1
  2044  0763  0099               	movwf	25	;volatile
  2045  0764                     l880:
  2046                           
  2047                           ;mcc_generated_files/mcc.c: 66:     OSCTUNE = 0x00;
  2048  0764  0198               	clrf	24	;volatile
  2049  0765                     l882:
  2050                           
  2051                           ;mcc_generated_files/mcc.c: 68:     BORCON = 0x00;
  2052  0765  0022               	movlb	2	; select bank2
  2053  0766  0196               	clrf	22	;volatile
  2054  0767                     l110:	
  2055                           ;mcc_generated_files/mcc.c: 71:     {;mcc_generated_files/mcc.c: 72:     }
  2056                           
  2057                           
  2058                           ;mcc_generated_files/mcc.c: 70:     while(PLLR == 0)
  2059  0767  0021               	movlb	1	; select bank1
  2060  0768  1F1A               	btfss	26,6	;volatile
  2061  0769  2F6B               	goto	u11
  2062  076A  2F6C               	goto	u10
  2063  076B                     u11:
  2064  076B  2F67               	goto	l110
  2065  076C                     u10:
  2066  076C                     l113:
  2067  076C  0008               	return
  2068  076D                     __end_of_OSCILLATOR_Initialize:
  2069                           
  2070                           	psect	text9
  2071  0747                     __ptext9:	
  2072 ;; *************** function _ADC_Initialize *****************
  2073 ;; Defined at:
  2074 ;;		line 67 in file "mcc_generated_files/adc.c"
  2075 ;; Parameters:    Size  Location     Type
  2076 ;;		None
  2077 ;; Auto vars:     Size  Location     Type
  2078 ;;		None
  2079 ;; Return value:  Size  Location     Type
  2080 ;;                  1    wreg      void 
  2081 ;; Registers used:
  2082 ;;		wreg, status,2
  2083 ;; Tracked objects:
  2084 ;;		On entry : 0/0
  2085 ;;		On exit  : 0/0
  2086 ;;		Unchanged: 0/0
  2087 ;; Data sizes:     COMMON   BANK0   BANK1   BANK2   BANK3   BANK4   BANK5   BANK6   BANK7   BANK8   BANK9  BANK10  BANK1
      +1  BANK12
  2088 ;;      Params:         0       0       0       0       0       0       0       0       0       0       0       0       
      +0       0
  2089 ;;      Locals:         0       0       0       0       0       0       0       0       0       0       0       0       
      +0       0
  2090 ;;      Temps:          0       0       0       0       0       0       0       0       0       0       0       0       
      +0       0
  2091 ;;      Totals:         0       0       0       0       0       0       0       0       0       0       0       0       
      +0       0
  2092 ;;Total ram usage:        0 bytes
  2093 ;; Hardware stack levels used: 1
  2094 ;; This function calls:
  2095 ;;		Nothing
  2096 ;; This function is called by:
  2097 ;;		_SYSTEM_Initialize
  2098 ;; This function uses a non-reentrant model
  2099 ;;
  2100                           
  2101  0747                     _ADC_Initialize:	
  2102                           ;psect for function _ADC_Initialize
  2103                           
  2104  0747                     l900:	
  2105                           ;incstack = 0
  2106                           ; Regs used in _ADC_Initialize: [wreg+status,2]
  2107                           
  2108                           
  2109                           ;mcc_generated_files/adc.c: 72:     ADCON1 = 0xE0;
  2110  0747  30E0               	movlw	224
  2111  0748  0021               	movlb	1	; select bank1
  2112  0749  009E               	movwf	30	;volatile
  2113  074A                     l902:
  2114                           
  2115                           ;mcc_generated_files/adc.c: 75:     ADRESL = 0x00;
  2116  074A  019B               	clrf	27	;volatile
  2117  074B                     l904:
  2118                           
  2119                           ;mcc_generated_files/adc.c: 78:     ADRESH = 0x00;
  2120  074B  019C               	clrf	28	;volatile
  2121                           
  2122                           ;mcc_generated_files/adc.c: 81:     ADCON0 = 0x01;
  2123  074C  3001               	movlw	1
  2124  074D  009D               	movwf	29	;volatile
  2125  074E                     l175:
  2126  074E  0008               	return
  2127  074F                     __end_of_ADC_Initialize:
  2128                           
  2129                           	psect	text10
  2130  0780                     __ptext10:	
  2131 ;; *************** function _PWM4_LoadDutyValue *****************
  2132 ;; Defined at:
  2133 ;;		line 82 in file "mcc_generated_files/pwm4.c"
  2134 ;; Parameters:    Size  Location     Type
  2135 ;;  dutyValue       2    0[COMMON] unsigned short 
  2136 ;; Auto vars:     Size  Location     Type
  2137 ;;		None
  2138 ;; Return value:  Size  Location     Type
  2139 ;;                  1    wreg      void 
  2140 ;; Registers used:
  2141 ;;		wreg, status,2, status,0
  2142 ;; Tracked objects:
  2143 ;;		On entry : 0/0
  2144 ;;		On exit  : 0/0
  2145 ;;		Unchanged: 0/0
  2146 ;; Data sizes:     COMMON   BANK0   BANK1   BANK2   BANK3   BANK4   BANK5   BANK6   BANK7   BANK8   BANK9  BANK10  BANK1
      +1  BANK12
  2147 ;;      Params:         2       0       0       0       0       0       0       0       0       0       0       0       
      +0       0
  2148 ;;      Locals:         0       0       0       0       0       0       0       0       0       0       0       0       
      +0       0
  2149 ;;      Temps:          2       0       0       0       0       0       0       0       0       0       0       0       
      +0       0
  2150 ;;      Totals:         4       0       0       0       0       0       0       0       0       0       0       0       
      +0       0
  2151 ;;Total ram usage:        4 bytes
  2152 ;; Hardware stack levels used: 1
  2153 ;; This function calls:
  2154 ;;		Nothing
  2155 ;; This function is called by:
  2156 ;;		_main
  2157 ;; This function uses a non-reentrant model
  2158 ;;
  2159                           
  2160  0780                     _PWM4_LoadDutyValue:	
  2161                           ;psect for function _PWM4_LoadDutyValue
  2162                           
  2163  0780                     l980:	
  2164                           ;incstack = 0
  2165                           ; Regs used in _PWM4_LoadDutyValue: [wreg+status,2+status,0]
  2166                           
  2167                           
  2168                           ;mcc_generated_files/pwm4.c: 82: void PWM4_LoadDutyValue(uint16_t dutyValue);mcc_generat
      +                          ed_files/pwm4.c: 83: {;mcc_generated_files/pwm4.c: 85:     CCPR4L = ((dutyValue & 0x03FC
      +                          )>>2);
  2169  0780  0875               	movf	PWM4_LoadDutyValue@dutyValue+1,w
  2170  0781  00F7               	movwf	??_PWM4_LoadDutyValue+1
  2171  0782  0874               	movf	PWM4_LoadDutyValue@dutyValue,w
  2172  0783  00F6               	movwf	??_PWM4_LoadDutyValue
  2173  0784  36F7               	lsrf	??_PWM4_LoadDutyValue+1,f
  2174  0785  0CF6               	rrf	??_PWM4_LoadDutyValue,f
  2175  0786  36F7               	lsrf	??_PWM4_LoadDutyValue+1,f
  2176  0787  0CF6               	rrf	??_PWM4_LoadDutyValue,f
  2177  0788  0876               	movf	??_PWM4_LoadDutyValue,w
  2178  0789  0026               	movlb	6	; select bank6
  2179  078A  0098               	movwf	24	;volatile
  2180                           
  2181                           ;mcc_generated_files/pwm4.c: 88:     CCP4CON = ((uint8_t)(CCP4CON & 0xCF) | ((dutyValue 
      +                          & 0x0003)<<4));
  2182  078B  0874               	movf	PWM4_LoadDutyValue@dutyValue,w
  2183  078C  3903               	andlw	3
  2184  078D  00F6               	movwf	??_PWM4_LoadDutyValue
  2185  078E  3004               	movlw	4
  2186  078F                     u85:
  2187  078F  35F6               	lslf	??_PWM4_LoadDutyValue,f
  2188  0790  0B89               	decfsz	9,f
  2189  0791  2F8F               	goto	u85
  2190  0792  081A               	movf	26,w	;volatile
  2191  0793  39CF               	andlw	207
  2192  0794  0476               	iorwf	??_PWM4_LoadDutyValue,w
  2193  0795  009A               	movwf	26	;volatile
  2194  0796                     l242:
  2195  0796  0008               	return
  2196  0797                     __end_of_PWM4_LoadDutyValue:
  2197                           
  2198                           	psect	text11
  2199  0797                     __ptext11:	
  2200 ;; *************** function _ADC_GetConversion *****************
  2201 ;; Defined at:
  2202 ;;		line 112 in file "mcc_generated_files/adc.c"
  2203 ;; Parameters:    Size  Location     Type
  2204 ;;  channel         1    wreg     enum E2956
  2205 ;; Auto vars:     Size  Location     Type
  2206 ;;  channel         1    3[COMMON] enum E2956
  2207 ;; Return value:  Size  Location     Type
  2208 ;;                  2    0[COMMON] unsigned short 
  2209 ;; Registers used:
  2210 ;;		wreg, status,2, status,0
  2211 ;; Tracked objects:
  2212 ;;		On entry : 0/0
  2213 ;;		On exit  : 0/0
  2214 ;;		Unchanged: 0/0
  2215 ;; Data sizes:     COMMON   BANK0   BANK1   BANK2   BANK3   BANK4   BANK5   BANK6   BANK7   BANK8   BANK9  BANK10  BANK1
      +1  BANK12
  2216 ;;      Params:         2       0       0       0       0       0       0       0       0       0       0       0       
      +0       0
  2217 ;;      Locals:         1       0       0       0       0       0       0       0       0       0       0       0       
      +0       0
  2218 ;;      Temps:          1       0       0       0       0       0       0       0       0       0       0       0       
      +0       0
  2219 ;;      Totals:         4       0       0       0       0       0       0       0       0       0       0       0       
      +0       0
  2220 ;;Total ram usage:        4 bytes
  2221 ;; Hardware stack levels used: 1
  2222 ;; This function calls:
  2223 ;;		Nothing
  2224 ;; This function is called by:
  2225 ;;		_main
  2226 ;; This function uses a non-reentrant model
  2227 ;;
  2228                           
  2229  0797                     _ADC_GetConversion:	
  2230                           ;psect for function _ADC_GetConversion
  2231                           
  2232                           
  2233                           ;incstack = 0
  2234                           ; Regs used in _ADC_GetConversion: [wreg+status,2+status,0]
  2235                           ;ADC_GetConversion@channel stored from wreg
  2236  0797  00F7               	movwf	ADC_GetConversion@channel
  2237  0798                     l968:
  2238                           
  2239                           ;mcc_generated_files/adc.c: 112: adc_result_t ADC_GetConversion(adc_channel_t channel);m
      +                          cc_generated_files/adc.c: 113: {;mcc_generated_files/adc.c: 115:     ADCON0bits.CHS = ch
      +                          annel;
  2240  0798  0877               	movf	ADC_GetConversion@channel,w
  2241  0799  00F6               	movwf	??_ADC_GetConversion
  2242  079A  0DF6               	rlf	??_ADC_GetConversion,f
  2243  079B  0DF6               	rlf	??_ADC_GetConversion,f
  2244  079C  0021               	movlb	1	; select bank1
  2245  079D  081D               	movf	29,w	;volatile
  2246  079E  0676               	xorwf	??_ADC_GetConversion,w
  2247  079F  3983               	andlw	-125
  2248  07A0  0676               	xorwf	??_ADC_GetConversion,w
  2249  07A1  009D               	movwf	29	;volatile
  2250  07A2                     l970:
  2251                           
  2252                           ;mcc_generated_files/adc.c: 118:     ADCON0bits.ADON = 1;
  2253  07A2  141D               	bsf	29,0	;volatile
  2254  07A3                     l972:
  2255                           
  2256                           ;mcc_generated_files/adc.c: 121:     _delay((unsigned long)((5)*(32000000/4000000.0)));
  2257  07A3  300D               	movlw	13
  2258  07A4                     u117:
  2259  07A4  0B89               	decfsz	9,f
  2260  07A5  2FA4               	goto	u117
  2261  07A6  0000               	nop
  2262  07A7                     l974:
  2263                           
  2264                           ;mcc_generated_files/adc.c: 124:     ADCON0bits.GO_nDONE = 1;
  2265  07A7  0021               	movlb	1	; select bank1
  2266  07A8  149D               	bsf	29,1	;volatile
  2267  07A9                     l190:	
  2268                           ;mcc_generated_files/adc.c: 128:     {;mcc_generated_files/adc.c: 129:     }
  2269                           
  2270                           
  2271                           ;mcc_generated_files/adc.c: 127:     while (ADCON0bits.GO_nDONE)
  2272  07A9  189D               	btfsc	29,1	;volatile
  2273  07AA  2FAC               	goto	u71
  2274  07AB  2FAD               	goto	u70
  2275  07AC                     u71:
  2276  07AC  2FA9               	goto	l190
  2277  07AD                     u70:
  2278  07AD                     l976:
  2279                           
  2280                           ;mcc_generated_files/adc.c: 132:     return ((adc_result_t)((ADRESH << 8) + ADRESL));
  2281  07AD  081C               	movf	28,w	;volatile
  2282  07AE  00F5               	movwf	?_ADC_GetConversion+1
  2283  07AF  081B               	movf	27,w	;volatile
  2284  07B0  00F4               	movwf	?_ADC_GetConversion
  2285  07B1                     l193:
  2286  07B1  0008               	return
  2287  07B2                     __end_of_ADC_GetConversion:
  2288  007E                     btemp	set	126	;btemp
  2289  007E                     wtemp0	set	126
  2290                           
  2291                           	psect	idloc
  2292                           
  2293                           ;Config register IDLOC0 @ 0x8000
  2294                           ;	unspecified, using default values
  2295  8000                     	org	32768
  2296  8000  3FFF               	dw	16383
  2297                           
  2298                           ;Config register IDLOC1 @ 0x8001
  2299                           ;	unspecified, using default values
  2300  8001                     	org	32769
  2301  8001  3FFF               	dw	16383
  2302                           
  2303                           ;Config register IDLOC2 @ 0x8002
  2304                           ;	unspecified, using default values
  2305  8002                     	org	32770
  2306  8002  3FFF               	dw	16383
  2307                           
  2308                           ;Config register IDLOC3 @ 0x8003
  2309                           ;	unspecified, using default values
  2310  8003                     	org	32771
  2311  8003  3FFF               	dw	16383
  2312                           
  2313                           	psect	config
  2314                           
  2315                           ;Config register CONFIG1 @ 0x8007
  2316                           ;	Oscillator Selection
  2317                           ;	FOSC = INTOSC, INTOSC oscillator: I/O function on CLKIN pin
  2318                           ;	Watchdog Timer Enable
  2319                           ;	WDTE = OFF, WDT disabled
  2320                           ;	Power-up Timer Enable
  2321                           ;	PWRTE = OFF, PWRT disabled
  2322                           ;	MCLR Pin Function Select
  2323                           ;	MCLRE = ON, MCLR/VPP pin function is MCLR
  2324                           ;	Flash Program Memory Code Protection
  2325                           ;	CP = OFF, Program memory code protection is disabled
  2326                           ;	Data Memory Code Protection
  2327                           ;	CPD = OFF, Data memory code protection is disabled
  2328                           ;	Brown-out Reset Enable
  2329                           ;	BOREN = ON, Brown-out Reset enabled
  2330                           ;	Clock Out Enable
  2331                           ;	CLKOUTEN = OFF, CLKOUT function is disabled. I/O or oscillator function on the CLKOUT 
      +                          pin
  2332                           ;	Internal/External Switchover
  2333                           ;	IESO = ON, Internal/External Switchover mode is enabled
  2334                           ;	Fail-Safe Clock Monitor Enable
  2335                           ;	FCMEN = ON, Fail-Safe Clock Monitor is enabled
  2336  8007                     	org	32775
  2337  8007  3FE4               	dw	16356
  2338                           
  2339                           ;Config register CONFIG2 @ 0x8008
  2340                           ;	Flash Memory Self-Write Protection
  2341                           ;	WRT = OFF, Write protection off
  2342                           ;	Voltage Regulator Capacitor Enable
  2343                           ;	VCAPEN = OFF, All VCAP pin functionality is disabled
  2344                           ;	PLL Enable
  2345                           ;	PLLEN = ON, 4x PLL enabled
  2346                           ;	Stack Overflow/Underflow Reset Enable
  2347                           ;	STVREN = ON, Stack Overflow or Underflow will cause a Reset
  2348                           ;	Brown-out Reset Voltage Selection
  2349                           ;	BORV = LO, Brown-out Reset Voltage (Vbor), low trip point selected.
  2350                           ;	Low-Voltage Programming Enable
  2351                           ;	LVP = ON, Low-voltage programming enabled
  2352  8008                     	org	32776
  2353  8008  3FFF               	dw	16383

Data Sizes:
    Strings     0
    Constant    0
    Data        0
    BSS         4
    Persistent  32
    Stack       0

Auto Spaces:
    Space          Size  Autos    Used
    COMMON           14      4       8
    BANK0            80      0       0
    BANK1            80      0       0
    BANK2            80      0       0
    BANK3            80      0       0
    BANK4            80      0       0
    BANK5            80      0       0
    BANK6            80      0       0
    BANK7            80      0       0
    BANK8            80      0       0
    BANK9            80      0       0
    BANK10           80      0       0
    BANK11           80      0       0
    BANK12           48      0       0

Pointer List with Targets:

    ADC_InterruptHandler	PTR FTN()void  size(2) Largest target is 1
		 -> Absolute function(), 


Critical Paths under _main in COMMON

    _main->_ADC_GetConversion
    _main->_PWM4_LoadDutyValue

Critical Paths under _main in BANK0

    None.

Critical Paths under _main in BANK1

    None.

Critical Paths under _main in BANK2

    None.

Critical Paths under _main in BANK3

    None.

Critical Paths under _main in BANK4

    None.

Critical Paths under _main in BANK5

    None.

Critical Paths under _main in BANK6

    None.

Critical Paths under _main in BANK7

    None.

Critical Paths under _main in BANK8

    None.

Critical Paths under _main in BANK9

    None.

Critical Paths under _main in BANK10

    None.

Critical Paths under _main in BANK11

    None.

Critical Paths under _main in BANK12

    None.

Call Graph Tables:

 ---------------------------------------------------------------------------------
 (Depth) Function   	        Calls       Base Space   Used Autos Params    Refs
 ---------------------------------------------------------------------------------
 (0) _main                                                 0     0      0     142
                  _ADC_GetConversion
                 _PWM4_LoadDutyValue
                  _SYSTEM_Initialize
                             _girarD
                             _girarI
 ---------------------------------------------------------------------------------
 (1) _girarI                                               0     0      0       0
 ---------------------------------------------------------------------------------
 (1) _girarD                                               0     0      0       0
 ---------------------------------------------------------------------------------
 (1) _SYSTEM_Initialize                                    0     0      0       0
                     _ADC_Initialize
              _OSCILLATOR_Initialize
             _PIN_MANAGER_Initialize
                    _PWM4_Initialize
                    _TMR2_Initialize
                     _WDT_Initialize
 ---------------------------------------------------------------------------------
 (2) _WDT_Initialize                                       0     0      0       0
 ---------------------------------------------------------------------------------
 (2) _TMR2_Initialize                                      0     0      0       0
 ---------------------------------------------------------------------------------
 (2) _PWM4_Initialize                                      0     0      0       0
 ---------------------------------------------------------------------------------
 (2) _PIN_MANAGER_Initialize                               0     0      0       0
 ---------------------------------------------------------------------------------
 (2) _OSCILLATOR_Initialize                                0     0      0       0
 ---------------------------------------------------------------------------------
 (2) _ADC_Initialize                                       0     0      0       0
 ---------------------------------------------------------------------------------
 (1) _PWM4_LoadDutyValue                                   4     2      2     120
                                              0 COMMON     4     2      2
 ---------------------------------------------------------------------------------
 (1) _ADC_GetConversion                                    4     2      2      22
                                              0 COMMON     4     2      2
 ---------------------------------------------------------------------------------
 Estimated maximum stack depth 2
 ---------------------------------------------------------------------------------

 Call Graph Graphs:

 _main (ROOT)
   _ADC_GetConversion
   _PWM4_LoadDutyValue
   _SYSTEM_Initialize
     _ADC_Initialize
     _OSCILLATOR_Initialize
     _PIN_MANAGER_Initialize
     _PWM4_Initialize
     _TMR2_Initialize
     _WDT_Initialize
   _girarD
   _girarI

 Address spaces:
Name               Size   Autos  Total    Cost      Usage
BIGRAM             3F0      0       0       0        0.0%
EEDATA             100      0       0       0        0.0%
NULL                 0      0       0       0        0.0%
CODE                 0      0       0       0        0.0%
BITCOMMON            E      0       0       1        0.0%
BITSFR0              0      0       0       1        0.0%
SFR0                 0      0       0       1        0.0%
COMMON               E      4       8       2       57.1%
BITSFR1              0      0       0       2        0.0%
SFR1                 0      0       0       2        0.0%
BITSFR2              0      0       0       3        0.0%
SFR2                 0      0       0       3        0.0%
STACK                0      0       0       3        0.0%
BITBANK0            50      0       0       4        0.0%
BITSFR3              0      0       0       4        0.0%
SFR3                 0      0       0       4        0.0%
BANK0               50      0       0       5        0.0%
BITSFR4              0      0       0       5        0.0%
SFR4                 0      0       0       5        0.0%
BITBANK1            50      0       0       6        0.0%
BITSFR5              0      0       0       6        0.0%
SFR5                 0      0       0       6        0.0%
BANK1               50      0       0       7        0.0%
BITSFR6              0      0       0       7        0.0%
SFR6                 0      0       0       7        0.0%
BITBANK2            50      0       0       8        0.0%
BITSFR7              0      0       0       8        0.0%
SFR7                 0      0       0       8        0.0%
BANK2               50      0       0       9        0.0%
BITSFR8              0      0       0       9        0.0%
SFR8                 0      0       0       9        0.0%
BITBANK3            50      0       0      10        0.0%
BITSFR9              0      0       0      10        0.0%
SFR9                 0      0       0      10        0.0%
BANK3               50      0       0      11        0.0%
BITSFR10             0      0       0      11        0.0%
SFR10                0      0       0      11        0.0%
BITBANK4            50      0       0      12        0.0%
BITSFR11             0      0       0      12        0.0%
SFR11                0      0       0      12        0.0%
BANK4               50      0       0      13        0.0%
BITSFR12             0      0       0      13        0.0%
SFR12                0      0       0      13        0.0%
BITBANK5            50      0       0      14        0.0%
BITSFR13             0      0       0      14        0.0%
SFR13                0      0       0      14        0.0%
BANK5               50      0       0      15        0.0%
BITSFR14             0      0       0      15        0.0%
SFR14                0      0       0      15        0.0%
BITBANK6            50      0       0      16        0.0%
BITSFR15             0      0       0      16        0.0%
SFR15                0      0       0      16        0.0%
BANK6               50      0       0      17        0.0%
BITSFR16             0      0       0      17        0.0%
SFR16                0      0       0      17        0.0%
BITBANK7            50      0       0      18        0.0%
BITSFR17             0      0       0      18        0.0%
SFR17                0      0       0      18        0.0%
BANK7               50      0       0      19        0.0%
BITSFR18             0      0       0      19        0.0%
SFR18                0      0       0      19        0.0%
BITSFR19             0      0       0      20        0.0%
SFR19                0      0       0      20        0.0%
ABS                  0      0       8      20        0.0%
BITBANK8            50      0       0      21        0.0%
BITSFR20             0      0       0      21        0.0%
SFR20                0      0       0      21        0.0%
BANK8               50      0       0      22        0.0%
BITSFR21             0      0       0      22        0.0%
SFR21                0      0       0      22        0.0%
BITBANK9            50      0       0      23        0.0%
BITSFR22             0      0       0      23        0.0%
SFR22                0      0       0      23        0.0%
BANK9               50      0       0      24        0.0%
BITSFR23             0      0       0      24        0.0%
SFR23                0      0       0      24        0.0%
BITBANK10           50      0       0      25        0.0%
BITSFR24             0      0       0      25        0.0%
SFR24                0      0       0      25        0.0%
BANK10              50      0       0      26        0.0%
BITSFR25             0      0       0      26        0.0%
SFR25                0      0       0      26        0.0%
BITBANK11           50      0       0      27        0.0%
BITSFR26             0      0       0      27        0.0%
SFR26                0      0       0      27        0.0%
BANK11              50      0       0      28        0.0%
BITSFR27             0      0       0      28        0.0%
SFR27                0      0       0      28        0.0%
BITBANK12           30      0       0      29        0.0%
BITSFR28             0      0       0      29        0.0%
SFR28                0      0       0      29        0.0%
BANK12              30      0       0      30        0.0%
BITSFR29             0      0       0      30        0.0%
SFR29                0      0       0      30        0.0%
BITSFR30             0      0       0      31        0.0%
SFR30                0      0       0      31        0.0%
DATA                 0      0       8      31        0.0%
BITSFR31             0      0       0      32        0.0%
SFR31                0      0       0      32        0.0%


Microchip Technology PIC Macro Assembler V2.36 build 20220127204148 
Symbol Table                                                                                   Sat Mar 18 22:04:29 2023

                            l22 07E0                              l71 0740                              l63 073B  
                            l80 0745                              l65 073D                              l82 0746  
                            l74 0741                              l67 073E                              l76 0743  
                            l69 073F                              l78 0744                              u10 076C  
                            u11 076B                              u70 07AD                              u71 07AC  
                            u90 07DC                              u91 07DB                              u85 078F  
                           l110 0767                             l113 076C                             l107 077F  
                           l116 073A                             l209 0756                             l242 0796  
                           l155 07D3                             l190 07A9                             l175 074E  
                           l239 0760                             l193 07B1                             l900 0747  
                           l902 074A                             l904 074B                             l850 07B2  
                           l906 076D                             l860 07C1                             l852 07B8  
                           l870 07CC                             l862 07C3                             l854 07BB  
                           l880 0764                             l872 07CE                             l864 07C6  
                           l856 07BD                             l970 07A2                             l882 0765  
                           l874 07CF                             l866 07C8                             l858 07BF  
                           l890 075D                             l972 07A3                             l980 0780  
                           l876 07D1                             l868 07CA                             l892 074F  
                           l884 0737                             l974 07A7                             l878 0761  
                           l886 0757                             l894 0752                             l990 07E7  
                           l982 07D4                             l976 07AD                             l968 0798  
                           l888 075C                             l896 0753                             l992 07EF  
                           l984 07D7                             l898 0754                             l986 07DC  
                           l988 07E4                             u100 07E4                             u101 07E3  
                           u117 07A4                             _PR2 001B                 _TMR2_Initialize 074F  
               _PWM4_Initialize 0757                             wreg 0009                            _LATA 010C  
                          _LATB 010D                            _LATC 010E                            _LATD 010F  
                          _LATE 0110                            _PLLR 04D6                            _TMR2 001A  
                          _WPUB 020D                            _WPUE 0210                            _main 07D4  
                          btemp 007E                            start 0002   __end_of_OSCILLATOR_Initialize 076D  
                         ?_main 0074                           _T2CON 001C              _PWM4_LoadDutyValue 0780  
                         _TRISA 008C                           _TRISB 008D                           _TRISC 008E  
                         _TRISD 008F                           _TRISE 0090                  _WDT_Initialize 0737  
           ?_PWM4_LoadDutyValue 0074                           wtemp0 007E                 __initialization 07F9  
                  __end_of_main 07F9            ??_PWM4_LoadDutyValue 0076         __end_of_PWM4_Initialize 0761  
       __end_of_TMR2_Initialize 0757                          ??_main 0078          __end_of_WDT_Initialize 073B  
                        _ADCON0 009D                          _ADCON1 009E                          _ADRESH 009C  
                        _ADRESL 009B                          _CCPR4H 0319                          _CCPR4L 0318  
                        _APFCON 011D                          _ANSELA 018C                          _ANSELB 018D  
                        _ANSELD 018F                          _ANSELE 0190                          _BORCON 0116  
                        _OSCCON 0099                          _WDTCON 0097                    _CCPTMRS0bits 029E  
                        _girarD 073B                          _girarI 0741                          _conver 0072  
               ?_WDT_Initialize 0074        ADC_GetConversion@channel 0077               _SYSTEM_Initialize 076D  
       __end_of__initialization 07FD              ?_SYSTEM_Initialize 0074                  __pcstackCOMMON 0074  
           ??_SYSTEM_Initialize 0074                ?_TMR2_Initialize 0074                ?_PWM4_Initialize 0074  
   PWM4_LoadDutyValue@dutyValue 0074                  _OPTION_REGbits 0095       __end_of_SYSTEM_Initialize 0780  
                    __pmaintext 07D4                         ?_girarD 0074                         ?_girarI 0074  
                       _CCP4CON 031A                         _OSCTUNE 0098            _ADC_InterruptHandler 0070  
                       __ptext1 0741                         __ptext2 073B                         __ptext3 076D  
                       __ptext4 0737                         __ptext5 074F                         __ptext6 0757  
                       __ptext7 07B2                         __ptext8 0761                         __ptext9 0747  
         _OSCILLATOR_Initialize 0761                       _T2CONbits 001C        ??_PIN_MANAGER_Initialize 0074  
          end_of_initialization 07FD                ??_WDT_Initialize 0074                       _PORTAbits 000C  
                __end_of_girarD 0741                  __end_of_girarI 0747                  _ADC_Initialize 0747  
        ?_OSCILLATOR_Initialize 0074             start_initialization 07F9          __end_of_ADC_Initialize 074F  
                      ??_girarD 0074                        ??_girarI 0074                     __pbssCOMMON 0070  
                     ___latbits 0003          _PIN_MANAGER_Initialize 07B2                 ?_ADC_Initialize 0074  
                      _LATAbits 010C                        _PIR1bits 0011                      _ADCON0bits 009D  
             ??_TMR2_Initialize 0074               ??_PWM4_Initialize 0074      __end_of_PWM4_LoadDutyValue 0797  
             _ADC_GetConversion 0797         ??_OSCILLATOR_Initialize 0074              ?_ADC_GetConversion 0074  
           ??_ADC_GetConversion 0076                        __ptext10 0780                        __ptext11 0797  
     __end_of_ADC_GetConversion 07B2         ?_PIN_MANAGER_Initialize 0074                ??_ADC_Initialize 0074  
__end_of_PIN_MANAGER_Initialize 07D4  
