

Microchip MPLAB XC8 Assembler V2.36 build 20220127204148 
                                                                                               Sun May 07 16:33:58 2023

Microchip MPLAB XC8 C Compiler v2.36 (Free license) build 20220127204148 Og1 
     1                           	processor	16F1939
     2                           	pagewidth 120
     3                           	opt	flic
     4                           	psect	stringtext1,global,class=STRCODE,delta=2,noexec
     5                           	psect	stringtext2,global,class=STRCODE,delta=2,noexec
     6                           	psect	cinit,global,class=CODE,merge=1,delta=2
     7                           	psect	bssBANK0,global,class=BANK0,space=1,delta=1,noexec
     8                           	psect	clrtext,global,class=CODE,delta=2
     9                           	psect	cstackCOMMON,global,class=COMMON,space=1,delta=1,noexec
    10                           	psect	cstackBANK0,global,class=BANK0,space=1,delta=1,noexec
    11                           	psect	maintext,global,class=CODE,merge=1,split=1,delta=2
    12                           	psect	text1,local,class=CODE,merge=1,delta=2,group=1
    13                           	psect	text2,local,class=CODE,merge=1,delta=2,group=1
    14                           	psect	text3,local,class=CODE,merge=1,delta=2
    15                           	psect	text4,local,class=CODE,merge=1,delta=2
    16                           	psect	text5,local,class=CODE,merge=1,delta=2
    17                           	psect	text6,local,class=CODE,merge=1,delta=2
    18                           	psect	text7,local,class=CODE,merge=1,delta=2
    19                           	psect	text8,local,class=CODE,merge=1,delta=2
    20                           	psect	text9,local,class=CODE,merge=1,delta=2
    21                           	psect	text10,local,class=CODE,merge=1,delta=2
    22                           	psect	text11,local,class=CODE,merge=1,delta=2
    23                           	psect	text12,local,class=CODE,merge=1,delta=2
    24                           	psect	text13,local,class=CODE,merge=1,inline,delta=2
    25                           	psect	text14,local,class=CODE,merge=1,delta=2
    26                           	psect	text15,local,class=CODE,merge=1,delta=2
    27                           	psect	text16,local,class=CODE,merge=1,delta=2
    28                           	psect	text17,local,class=CODE,merge=1,inline,delta=2
    29                           	psect	text18,local,class=CODE,merge=1,inline,delta=2
    30                           	psect	text19,local,class=CODE,merge=1,delta=2
    31                           	psect	text20,local,class=CODE,merge=1,delta=2
    32                           	psect	text21,local,class=CODE,merge=1,delta=2
    33                           	psect	text22,local,class=CODE,merge=1,delta=2
    34                           	psect	text23,local,class=CODE,merge=1,delta=2
    35                           	psect	text24,local,class=CODE,merge=1,delta=2
    36                           	psect	text25,local,class=CODE,merge=1,delta=2
    37                           	psect	text26,local,class=CODE,merge=1,delta=2
    38                           	psect	text27,local,class=CODE,merge=1,delta=2
    39                           	psect	text28,local,class=CODE,merge=1,delta=2
    40                           	psect	text29,local,class=CODE,merge=1,delta=2
    41                           	psect	text30,local,class=CODE,merge=1,delta=2
    42                           	psect	text31,local,class=CODE,merge=1,delta=2
    43                           	psect	text32,local,class=CODE,merge=1,delta=2
    44                           	psect	text33,local,class=CODE,merge=1,delta=2
    45                           	psect	text34,local,class=CODE,merge=1,delta=2
    46                           	psect	text35,local,class=CODE,merge=1,inline,delta=2
    47                           	psect	text36,local,class=CODE,merge=1,inline,delta=2
    48                           	psect	text37,local,class=CODE,merge=1,inline,delta=2
    49                           	psect	text38,local,class=CODE,merge=1,inline,delta=2
    50                           	psect	text39,local,class=CODE,merge=1,inline,delta=2
    51                           	psect	text40,local,class=CODE,merge=1,inline,delta=2
    52                           	psect	text41,local,class=CODE,merge=1,inline,delta=2
    53                           	psect	text42,local,class=CODE,merge=1,delta=2
    54                           	psect	text43,local,class=CODE,merge=1,delta=2
    55                           	psect	text44,local,class=CODE,merge=1,delta=2
    56                           	psect	text45,local,class=CODE,merge=1,delta=2
    57                           	psect	text46,local,class=CODE,merge=1,delta=2
    58                           	psect	text47,local,class=CODE,merge=1,delta=2
    59                           	psect	text48,local,class=CODE,merge=1,delta=2
    60                           	psect	text49,local,class=CODE,merge=1,delta=2
    61                           	psect	text50,local,class=CODE,merge=1,delta=2
    62                           	psect	text51,local,class=CODE,merge=1,inline,delta=2
    63                           	psect	text52,local,class=CODE,merge=1,inline,delta=2
    64                           	psect	text53,local,class=CODE,merge=1,inline,delta=2
    65                           	psect	text54,local,class=CODE,merge=1,delta=2
    66                           	psect	text55,local,class=CODE,merge=1,inline,delta=2
    67                           	psect	text56,local,class=CODE,merge=1,inline,delta=2
    68                           	psect	text57,local,class=CODE,merge=1,inline,delta=2
    69                           	psect	idloc,global,abs,ovrld,class=IDLOC,space=5,delta=2,noexec
    70                           	psect	config,global,abs,ovrld,class=CONFIG,space=4,delta=2,noexec
    71                           	dabs	1,0x7E,2
    72  0000                     
    73                           ; Version 2.40
    74                           ; Generated 17/11/2021 GMT
    75                           ; 
    76                           ; Copyright © 2021, Microchip Technology Inc. and its subsidiaries ("Microchip")
    77                           ; All rights reserved.
    78                           ; 
    79                           ; This software is developed by Microchip Technology Inc. and its subsidiaries ("Microch
      +                          ip").
    80                           ; 
    81                           ; Redistribution and use in source and binary forms, with or without modification, are
    82                           ; permitted provided that the following conditions are met:
    83                           ; 
    84                           ;     1. Redistributions of source code must retain the above copyright notice, this lis
      +                          t of
    85                           ;        conditions and the following disclaimer.
    86                           ; 
    87                           ;     2. Redistributions in binary form must reproduce the above copyright notice, this 
      +                          list
    88                           ;        of conditions and the following disclaimer in the documentation and/or other
    89                           ;        materials provided with the distribution. Publication is not required when
    90                           ;        this file is used in an embedded application.
    91                           ; 
    92                           ;     3. Microchip's name may not be used to endorse or promote products derived from th
      +                          is
    93                           ;        software without specific prior written permission.
    94                           ; 
    95                           ; THIS SOFTWARE IS PROVIDED BY MICROCHIP "AS IS" AND ANY EXPRESS OR IMPLIED WARRANTIES,
    96                           ; INCLUDING, BUT NOT LIMITED TO, THE IMPLIED WARRANTIES OF MERCHANTABILITY AND FITNESS F
      +                          OR
    97                           ; PURPOSE ARE DISCLAIMED.  IN NO EVENT SHALL MICROCHIP BE LIABLE FOR ANY DIRECT, INDIREC
      +                          T,
    98                           ; INCIDENTAL, SPECIAL, EXEMPLARY, OR CONSEQUENTIAL DAMAGES (INCLUDING BUT NOT LIMITED TO
    99                           ; PROCUREMENT OF SUBSTITUTE GOODS OR SERVICES; LOSS OF USE, DATA OR PROFITS; OR BUSINESS
   100                           ; INTERRUPTION) HOWSOEVER CAUSED AND ON ANY THEORY OF LIABILITY, WHETHER IN CONTRACT, ST
      +                          RICT
   101                           ; LIABILITY, OR TORT (INCLUDING NEGLIGENCE OR OTHERWISE) ARISING IN ANY WAY OUT OF THE U
      +                          SE OF
   102                           ; THIS SOFTWARE, EVEN IF ADVISED OF THE POSSIBILITY OF SUCH DAMAGE.
   103                           ; 
   104                           ; 
   105                           ; Code-generator required, PIC16F1939 Definitions
   106                           ; 
   107                           ; SFR Addresses
   108  0000                     	;# 
   109  0001                     	;# 
   110  0002                     	;# 
   111  0003                     	;# 
   112  0004                     	;# 
   113  0005                     	;# 
   114  0006                     	;# 
   115  0007                     	;# 
   116  0008                     	;# 
   117  0009                     	;# 
   118  000A                     	;# 
   119  000B                     	;# 
   120  000C                     	;# 
   121  000D                     	;# 
   122  000E                     	;# 
   123  000F                     	;# 
   124  0010                     	;# 
   125  0011                     	;# 
   126  0012                     	;# 
   127  0013                     	;# 
   128  0015                     	;# 
   129  0016                     	;# 
   130  0016                     	;# 
   131  0017                     	;# 
   132  0018                     	;# 
   133  0019                     	;# 
   134  001A                     	;# 
   135  001B                     	;# 
   136  001C                     	;# 
   137  001E                     	;# 
   138  001F                     	;# 
   139  008C                     	;# 
   140  008D                     	;# 
   141  008E                     	;# 
   142  008F                     	;# 
   143  0090                     	;# 
   144  0091                     	;# 
   145  0092                     	;# 
   146  0093                     	;# 
   147  0095                     	;# 
   148  0096                     	;# 
   149  0097                     	;# 
   150  0098                     	;# 
   151  0099                     	;# 
   152  009A                     	;# 
   153  009B                     	;# 
   154  009B                     	;# 
   155  009C                     	;# 
   156  009D                     	;# 
   157  009E                     	;# 
   158  010C                     	;# 
   159  010D                     	;# 
   160  010E                     	;# 
   161  010F                     	;# 
   162  0110                     	;# 
   163  0111                     	;# 
   164  0112                     	;# 
   165  0113                     	;# 
   166  0114                     	;# 
   167  0115                     	;# 
   168  0116                     	;# 
   169  0117                     	;# 
   170  0118                     	;# 
   171  0119                     	;# 
   172  011A                     	;# 
   173  011B                     	;# 
   174  011D                     	;# 
   175  018C                     	;# 
   176  018D                     	;# 
   177  018F                     	;# 
   178  0190                     	;# 
   179  0191                     	;# 
   180  0191                     	;# 
   181  0192                     	;# 
   182  0193                     	;# 
   183  0193                     	;# 
   184  0193                     	;# 
   185  0194                     	;# 
   186  0195                     	;# 
   187  0196                     	;# 
   188  0199                     	;# 
   189  019A                     	;# 
   190  019B                     	;# 
   191  019B                     	;# 
   192  019B                     	;# 
   193  019B                     	;# 
   194  019C                     	;# 
   195  019C                     	;# 
   196  019D                     	;# 
   197  019E                     	;# 
   198  019F                     	;# 
   199  020D                     	;# 
   200  0210                     	;# 
   201  0211                     	;# 
   202  0212                     	;# 
   203  0213                     	;# 
   204  0214                     	;# 
   205  0215                     	;# 
   206  0215                     	;# 
   207  0216                     	;# 
   208  0217                     	;# 
   209  0291                     	;# 
   210  0291                     	;# 
   211  0292                     	;# 
   212  0293                     	;# 
   213  0294                     	;# 
   214  0295                     	;# 
   215  0295                     	;# 
   216  0296                     	;# 
   217  0298                     	;# 
   218  0298                     	;# 
   219  0299                     	;# 
   220  029A                     	;# 
   221  029B                     	;# 
   222  029C                     	;# 
   223  029C                     	;# 
   224  029D                     	;# 
   225  029E                     	;# 
   226  029F                     	;# 
   227  0311                     	;# 
   228  0311                     	;# 
   229  0312                     	;# 
   230  0313                     	;# 
   231  0314                     	;# 
   232  0315                     	;# 
   233  0315                     	;# 
   234  0316                     	;# 
   235  0318                     	;# 
   236  0318                     	;# 
   237  0319                     	;# 
   238  031A                     	;# 
   239  031C                     	;# 
   240  031C                     	;# 
   241  031D                     	;# 
   242  031E                     	;# 
   243  0394                     	;# 
   244  0395                     	;# 
   245  0396                     	;# 
   246  0415                     	;# 
   247  0416                     	;# 
   248  0417                     	;# 
   249  041C                     	;# 
   250  041D                     	;# 
   251  041E                     	;# 
   252  0791                     	;# 
   253  0792                     	;# 
   254  0793                     	;# 
   255  0794                     	;# 
   256  0795                     	;# 
   257  0798                     	;# 
   258  0799                     	;# 
   259  079A                     	;# 
   260  07A0                     	;# 
   261  07A1                     	;# 
   262  07A2                     	;# 
   263  07A3                     	;# 
   264  07A4                     	;# 
   265  07A5                     	;# 
   266  07A6                     	;# 
   267  07A7                     	;# 
   268  07A8                     	;# 
   269  07A9                     	;# 
   270  07AA                     	;# 
   271  07AB                     	;# 
   272  0FE4                     	;# 
   273  0FE5                     	;# 
   274  0FE6                     	;# 
   275  0FE7                     	;# 
   276  0FE8                     	;# 
   277  0FE9                     	;# 
   278  0FEA                     	;# 
   279  0FEB                     	;# 
   280  0FED                     	;# 
   281  0FEE                     	;# 
   282  0FEF                     	;# 
   283  0000                     	;# 
   284  0001                     	;# 
   285  0002                     	;# 
   286  0003                     	;# 
   287  0004                     	;# 
   288  0005                     	;# 
   289  0006                     	;# 
   290  0007                     	;# 
   291  0008                     	;# 
   292  0009                     	;# 
   293  000A                     	;# 
   294  000B                     	;# 
   295  000C                     	;# 
   296  000D                     	;# 
   297  000E                     	;# 
   298  000F                     	;# 
   299  0010                     	;# 
   300  0011                     	;# 
   301  0012                     	;# 
   302  0013                     	;# 
   303  0015                     	;# 
   304  0016                     	;# 
   305  0016                     	;# 
   306  0017                     	;# 
   307  0018                     	;# 
   308  0019                     	;# 
   309  001A                     	;# 
   310  001B                     	;# 
   311  001C                     	;# 
   312  001E                     	;# 
   313  001F                     	;# 
   314  008C                     	;# 
   315  008D                     	;# 
   316  008E                     	;# 
   317  008F                     	;# 
   318  0090                     	;# 
   319  0091                     	;# 
   320  0092                     	;# 
   321  0093                     	;# 
   322  0095                     	;# 
   323  0096                     	;# 
   324  0097                     	;# 
   325  0098                     	;# 
   326  0099                     	;# 
   327  009A                     	;# 
   328  009B                     	;# 
   329  009B                     	;# 
   330  009C                     	;# 
   331  009D                     	;# 
   332  009E                     	;# 
   333  010C                     	;# 
   334  010D                     	;# 
   335  010E                     	;# 
   336  010F                     	;# 
   337  0110                     	;# 
   338  0111                     	;# 
   339  0112                     	;# 
   340  0113                     	;# 
   341  0114                     	;# 
   342  0115                     	;# 
   343  0116                     	;# 
   344  0117                     	;# 
   345  0118                     	;# 
   346  0119                     	;# 
   347  011A                     	;# 
   348  011B                     	;# 
   349  011D                     	;# 
   350  018C                     	;# 
   351  018D                     	;# 
   352  018F                     	;# 
   353  0190                     	;# 
   354  0191                     	;# 
   355  0191                     	;# 
   356  0192                     	;# 
   357  0193                     	;# 
   358  0193                     	;# 
   359  0193                     	;# 
   360  0194                     	;# 
   361  0195                     	;# 
   362  0196                     	;# 
   363  0199                     	;# 
   364  019A                     	;# 
   365  019B                     	;# 
   366  019B                     	;# 
   367  019B                     	;# 
   368  019B                     	;# 
   369  019C                     	;# 
   370  019C                     	;# 
   371  019D                     	;# 
   372  019E                     	;# 
   373  019F                     	;# 
   374  020D                     	;# 
   375  0210                     	;# 
   376  0211                     	;# 
   377  0212                     	;# 
   378  0213                     	;# 
   379  0214                     	;# 
   380  0215                     	;# 
   381  0215                     	;# 
   382  0216                     	;# 
   383  0217                     	;# 
   384  0291                     	;# 
   385  0291                     	;# 
   386  0292                     	;# 
   387  0293                     	;# 
   388  0294                     	;# 
   389  0295                     	;# 
   390  0295                     	;# 
   391  0296                     	;# 
   392  0298                     	;# 
   393  0298                     	;# 
   394  0299                     	;# 
   395  029A                     	;# 
   396  029B                     	;# 
   397  029C                     	;# 
   398  029C                     	;# 
   399  029D                     	;# 
   400  029E                     	;# 
   401  029F                     	;# 
   402  0311                     	;# 
   403  0311                     	;# 
   404  0312                     	;# 
   405  0313                     	;# 
   406  0314                     	;# 
   407  0315                     	;# 
   408  0315                     	;# 
   409  0316                     	;# 
   410  0318                     	;# 
   411  0318                     	;# 
   412  0319                     	;# 
   413  031A                     	;# 
   414  031C                     	;# 
   415  031C                     	;# 
   416  031D                     	;# 
   417  031E                     	;# 
   418  0394                     	;# 
   419  0395                     	;# 
   420  0396                     	;# 
   421  0415                     	;# 
   422  0416                     	;# 
   423  0417                     	;# 
   424  041C                     	;# 
   425  041D                     	;# 
   426  041E                     	;# 
   427  0791                     	;# 
   428  0792                     	;# 
   429  0793                     	;# 
   430  0794                     	;# 
   431  0795                     	;# 
   432  0798                     	;# 
   433  0799                     	;# 
   434  079A                     	;# 
   435  07A0                     	;# 
   436  07A1                     	;# 
   437  07A2                     	;# 
   438  07A3                     	;# 
   439  07A4                     	;# 
   440  07A5                     	;# 
   441  07A6                     	;# 
   442  07A7                     	;# 
   443  07A8                     	;# 
   444  07A9                     	;# 
   445  07AA                     	;# 
   446  07AB                     	;# 
   447  0FE4                     	;# 
   448  0FE5                     	;# 
   449  0FE6                     	;# 
   450  0FE7                     	;# 
   451  0FE8                     	;# 
   452  0FE9                     	;# 
   453  0FEA                     	;# 
   454  0FEB                     	;# 
   455  0FED                     	;# 
   456  0FEE                     	;# 
   457  0FEF                     	;# 
   458  0000                     	;# 
   459  0001                     	;# 
   460  0002                     	;# 
   461  0003                     	;# 
   462  0004                     	;# 
   463  0005                     	;# 
   464  0006                     	;# 
   465  0007                     	;# 
   466  0008                     	;# 
   467  0009                     	;# 
   468  000A                     	;# 
   469  000B                     	;# 
   470  000C                     	;# 
   471  000D                     	;# 
   472  000E                     	;# 
   473  000F                     	;# 
   474  0010                     	;# 
   475  0011                     	;# 
   476  0012                     	;# 
   477  0013                     	;# 
   478  0015                     	;# 
   479  0016                     	;# 
   480  0016                     	;# 
   481  0017                     	;# 
   482  0018                     	;# 
   483  0019                     	;# 
   484  001A                     	;# 
   485  001B                     	;# 
   486  001C                     	;# 
   487  001E                     	;# 
   488  001F                     	;# 
   489  008C                     	;# 
   490  008D                     	;# 
   491  008E                     	;# 
   492  008F                     	;# 
   493  0090                     	;# 
   494  0091                     	;# 
   495  0092                     	;# 
   496  0093                     	;# 
   497  0095                     	;# 
   498  0096                     	;# 
   499  0097                     	;# 
   500  0098                     	;# 
   501  0099                     	;# 
   502  009A                     	;# 
   503  009B                     	;# 
   504  009B                     	;# 
   505  009C                     	;# 
   506  009D                     	;# 
   507  009E                     	;# 
   508  010C                     	;# 
   509  010D                     	;# 
   510  010E                     	;# 
   511  010F                     	;# 
   512  0110                     	;# 
   513  0111                     	;# 
   514  0112                     	;# 
   515  0113                     	;# 
   516  0114                     	;# 
   517  0115                     	;# 
   518  0116                     	;# 
   519  0117                     	;# 
   520  0118                     	;# 
   521  0119                     	;# 
   522  011A                     	;# 
   523  011B                     	;# 
   524  011D                     	;# 
   525  018C                     	;# 
   526  018D                     	;# 
   527  018F                     	;# 
   528  0190                     	;# 
   529  0191                     	;# 
   530  0191                     	;# 
   531  0192                     	;# 
   532  0193                     	;# 
   533  0193                     	;# 
   534  0193                     	;# 
   535  0194                     	;# 
   536  0195                     	;# 
   537  0196                     	;# 
   538  0199                     	;# 
   539  019A                     	;# 
   540  019B                     	;# 
   541  019B                     	;# 
   542  019B                     	;# 
   543  019B                     	;# 
   544  019C                     	;# 
   545  019C                     	;# 
   546  019D                     	;# 
   547  019E                     	;# 
   548  019F                     	;# 
   549  020D                     	;# 
   550  0210                     	;# 
   551  0211                     	;# 
   552  0212                     	;# 
   553  0213                     	;# 
   554  0214                     	;# 
   555  0215                     	;# 
   556  0215                     	;# 
   557  0216                     	;# 
   558  0217                     	;# 
   559  0291                     	;# 
   560  0291                     	;# 
   561  0292                     	;# 
   562  0293                     	;# 
   563  0294                     	;# 
   564  0295                     	;# 
   565  0295                     	;# 
   566  0296                     	;# 
   567  0298                     	;# 
   568  0298                     	;# 
   569  0299                     	;# 
   570  029A                     	;# 
   571  029B                     	;# 
   572  029C                     	;# 
   573  029C                     	;# 
   574  029D                     	;# 
   575  029E                     	;# 
   576  029F                     	;# 
   577  0311                     	;# 
   578  0311                     	;# 
   579  0312                     	;# 
   580  0313                     	;# 
   581  0314                     	;# 
   582  0315                     	;# 
   583  0315                     	;# 
   584  0316                     	;# 
   585  0318                     	;# 
   586  0318                     	;# 
   587  0319                     	;# 
   588  031A                     	;# 
   589  031C                     	;# 
   590  031C                     	;# 
   591  031D                     	;# 
   592  031E                     	;# 
   593  0394                     	;# 
   594  0395                     	;# 
   595  0396                     	;# 
   596  0415                     	;# 
   597  0416                     	;# 
   598  0417                     	;# 
   599  041C                     	;# 
   600  041D                     	;# 
   601  041E                     	;# 
   602  0791                     	;# 
   603  0792                     	;# 
   604  0793                     	;# 
   605  0794                     	;# 
   606  0795                     	;# 
   607  0798                     	;# 
   608  0799                     	;# 
   609  079A                     	;# 
   610  07A0                     	;# 
   611  07A1                     	;# 
   612  07A2                     	;# 
   613  07A3                     	;# 
   614  07A4                     	;# 
   615  07A5                     	;# 
   616  07A6                     	;# 
   617  07A7                     	;# 
   618  07A8                     	;# 
   619  07A9                     	;# 
   620  07AA                     	;# 
   621  07AB                     	;# 
   622  0FE4                     	;# 
   623  0FE5                     	;# 
   624  0FE6                     	;# 
   625  0FE7                     	;# 
   626  0FE8                     	;# 
   627  0FE9                     	;# 
   628  0FEA                     	;# 
   629  0FEB                     	;# 
   630  0FED                     	;# 
   631  0FEE                     	;# 
   632  0FEF                     	;# 
   633  0000                     	;# 
   634  0001                     	;# 
   635  0002                     	;# 
   636  0003                     	;# 
   637  0004                     	;# 
   638  0005                     	;# 
   639  0006                     	;# 
   640  0007                     	;# 
   641  0008                     	;# 
   642  0009                     	;# 
   643  000A                     	;# 
   644  000B                     	;# 
   645  000C                     	;# 
   646  000D                     	;# 
   647  000E                     	;# 
   648  000F                     	;# 
   649  0010                     	;# 
   650  0011                     	;# 
   651  0012                     	;# 
   652  0013                     	;# 
   653  0015                     	;# 
   654  0016                     	;# 
   655  0016                     	;# 
   656  0017                     	;# 
   657  0018                     	;# 
   658  0019                     	;# 
   659  001A                     	;# 
   660  001B                     	;# 
   661  001C                     	;# 
   662  001E                     	;# 
   663  001F                     	;# 
   664  008C                     	;# 
   665  008D                     	;# 
   666  008E                     	;# 
   667  008F                     	;# 
   668  0090                     	;# 
   669  0091                     	;# 
   670  0092                     	;# 
   671  0093                     	;# 
   672  0095                     	;# 
   673  0096                     	;# 
   674  0097                     	;# 
   675  0098                     	;# 
   676  0099                     	;# 
   677  009A                     	;# 
   678  009B                     	;# 
   679  009B                     	;# 
   680  009C                     	;# 
   681  009D                     	;# 
   682  009E                     	;# 
   683  010C                     	;# 
   684  010D                     	;# 
   685  010E                     	;# 
   686  010F                     	;# 
   687  0110                     	;# 
   688  0111                     	;# 
   689  0112                     	;# 
   690  0113                     	;# 
   691  0114                     	;# 
   692  0115                     	;# 
   693  0116                     	;# 
   694  0117                     	;# 
   695  0118                     	;# 
   696  0119                     	;# 
   697  011A                     	;# 
   698  011B                     	;# 
   699  011D                     	;# 
   700  018C                     	;# 
   701  018D                     	;# 
   702  018F                     	;# 
   703  0190                     	;# 
   704  0191                     	;# 
   705  0191                     	;# 
   706  0192                     	;# 
   707  0193                     	;# 
   708  0193                     	;# 
   709  0193                     	;# 
   710  0194                     	;# 
   711  0195                     	;# 
   712  0196                     	;# 
   713  0199                     	;# 
   714  019A                     	;# 
   715  019B                     	;# 
   716  019B                     	;# 
   717  019B                     	;# 
   718  019B                     	;# 
   719  019C                     	;# 
   720  019C                     	;# 
   721  019D                     	;# 
   722  019E                     	;# 
   723  019F                     	;# 
   724  020D                     	;# 
   725  0210                     	;# 
   726  0211                     	;# 
   727  0212                     	;# 
   728  0213                     	;# 
   729  0214                     	;# 
   730  0215                     	;# 
   731  0215                     	;# 
   732  0216                     	;# 
   733  0217                     	;# 
   734  0291                     	;# 
   735  0291                     	;# 
   736  0292                     	;# 
   737  0293                     	;# 
   738  0294                     	;# 
   739  0295                     	;# 
   740  0295                     	;# 
   741  0296                     	;# 
   742  0298                     	;# 
   743  0298                     	;# 
   744  0299                     	;# 
   745  029A                     	;# 
   746  029B                     	;# 
   747  029C                     	;# 
   748  029C                     	;# 
   749  029D                     	;# 
   750  029E                     	;# 
   751  029F                     	;# 
   752  0311                     	;# 
   753  0311                     	;# 
   754  0312                     	;# 
   755  0313                     	;# 
   756  0314                     	;# 
   757  0315                     	;# 
   758  0315                     	;# 
   759  0316                     	;# 
   760  0318                     	;# 
   761  0318                     	;# 
   762  0319                     	;# 
   763  031A                     	;# 
   764  031C                     	;# 
   765  031C                     	;# 
   766  031D                     	;# 
   767  031E                     	;# 
   768  0394                     	;# 
   769  0395                     	;# 
   770  0396                     	;# 
   771  0415                     	;# 
   772  0416                     	;# 
   773  0417                     	;# 
   774  041C                     	;# 
   775  041D                     	;# 
   776  041E                     	;# 
   777  0791                     	;# 
   778  0792                     	;# 
   779  0793                     	;# 
   780  0794                     	;# 
   781  0795                     	;# 
   782  0798                     	;# 
   783  0799                     	;# 
   784  079A                     	;# 
   785  07A0                     	;# 
   786  07A1                     	;# 
   787  07A2                     	;# 
   788  07A3                     	;# 
   789  07A4                     	;# 
   790  07A5                     	;# 
   791  07A6                     	;# 
   792  07A7                     	;# 
   793  07A8                     	;# 
   794  07A9                     	;# 
   795  07AA                     	;# 
   796  07AB                     	;# 
   797  0FE4                     	;# 
   798  0FE5                     	;# 
   799  0FE6                     	;# 
   800  0FE7                     	;# 
   801  0FE8                     	;# 
   802  0FE9                     	;# 
   803  0FEA                     	;# 
   804  0FEB                     	;# 
   805  0FED                     	;# 
   806  0FEE                     	;# 
   807  0FEF                     	;# 
   808  0000                     	;# 
   809  0001                     	;# 
   810  0002                     	;# 
   811  0003                     	;# 
   812  0004                     	;# 
   813  0005                     	;# 
   814  0006                     	;# 
   815  0007                     	;# 
   816  0008                     	;# 
   817  0009                     	;# 
   818  000A                     	;# 
   819  000B                     	;# 
   820  000C                     	;# 
   821  000D                     	;# 
   822  000E                     	;# 
   823  000F                     	;# 
   824  0010                     	;# 
   825  0011                     	;# 
   826  0012                     	;# 
   827  0013                     	;# 
   828  0015                     	;# 
   829  0016                     	;# 
   830  0016                     	;# 
   831  0017                     	;# 
   832  0018                     	;# 
   833  0019                     	;# 
   834  001A                     	;# 
   835  001B                     	;# 
   836  001C                     	;# 
   837  001E                     	;# 
   838  001F                     	;# 
   839  008C                     	;# 
   840  008D                     	;# 
   841  008E                     	;# 
   842  008F                     	;# 
   843  0090                     	;# 
   844  0091                     	;# 
   845  0092                     	;# 
   846  0093                     	;# 
   847  0095                     	;# 
   848  0096                     	;# 
   849  0097                     	;# 
   850  0098                     	;# 
   851  0099                     	;# 
   852  009A                     	;# 
   853  009B                     	;# 
   854  009B                     	;# 
   855  009C                     	;# 
   856  009D                     	;# 
   857  009E                     	;# 
   858  010C                     	;# 
   859  010D                     	;# 
   860  010E                     	;# 
   861  010F                     	;# 
   862  0110                     	;# 
   863  0111                     	;# 
   864  0112                     	;# 
   865  0113                     	;# 
   866  0114                     	;# 
   867  0115                     	;# 
   868  0116                     	;# 
   869  0117                     	;# 
   870  0118                     	;# 
   871  0119                     	;# 
   872  011A                     	;# 
   873  011B                     	;# 
   874  011D                     	;# 
   875  018C                     	;# 
   876  018D                     	;# 
   877  018F                     	;# 
   878  0190                     	;# 
   879  0191                     	;# 
   880  0191                     	;# 
   881  0192                     	;# 
   882  0193                     	;# 
   883  0193                     	;# 
   884  0193                     	;# 
   885  0194                     	;# 
   886  0195                     	;# 
   887  0196                     	;# 
   888  0199                     	;# 
   889  019A                     	;# 
   890  019B                     	;# 
   891  019B                     	;# 
   892  019B                     	;# 
   893  019B                     	;# 
   894  019C                     	;# 
   895  019C                     	;# 
   896  019D                     	;# 
   897  019E                     	;# 
   898  019F                     	;# 
   899  020D                     	;# 
   900  0210                     	;# 
   901  0211                     	;# 
   902  0212                     	;# 
   903  0213                     	;# 
   904  0214                     	;# 
   905  0215                     	;# 
   906  0215                     	;# 
   907  0216                     	;# 
   908  0217                     	;# 
   909  0291                     	;# 
   910  0291                     	;# 
   911  0292                     	;# 
   912  0293                     	;# 
   913  0294                     	;# 
   914  0295                     	;# 
   915  0295                     	;# 
   916  0296                     	;# 
   917  0298                     	;# 
   918  0298                     	;# 
   919  0299                     	;# 
   920  029A                     	;# 
   921  029B                     	;# 
   922  029C                     	;# 
   923  029C                     	;# 
   924  029D                     	;# 
   925  029E                     	;# 
   926  029F                     	;# 
   927  0311                     	;# 
   928  0311                     	;# 
   929  0312                     	;# 
   930  0313                     	;# 
   931  0314                     	;# 
   932  0315                     	;# 
   933  0315                     	;# 
   934  0316                     	;# 
   935  0318                     	;# 
   936  0318                     	;# 
   937  0319                     	;# 
   938  031A                     	;# 
   939  031C                     	;# 
   940  031C                     	;# 
   941  031D                     	;# 
   942  031E                     	;# 
   943  0394                     	;# 
   944  0395                     	;# 
   945  0396                     	;# 
   946  0415                     	;# 
   947  0416                     	;# 
   948  0417                     	;# 
   949  041C                     	;# 
   950  041D                     	;# 
   951  041E                     	;# 
   952  0791                     	;# 
   953  0792                     	;# 
   954  0793                     	;# 
   955  0794                     	;# 
   956  0795                     	;# 
   957  0798                     	;# 
   958  0799                     	;# 
   959  079A                     	;# 
   960  07A0                     	;# 
   961  07A1                     	;# 
   962  07A2                     	;# 
   963  07A3                     	;# 
   964  07A4                     	;# 
   965  07A5                     	;# 
   966  07A6                     	;# 
   967  07A7                     	;# 
   968  07A8                     	;# 
   969  07A9                     	;# 
   970  07AA                     	;# 
   971  07AB                     	;# 
   972  0FE4                     	;# 
   973  0FE5                     	;# 
   974  0FE6                     	;# 
   975  0FE7                     	;# 
   976  0FE8                     	;# 
   977  0FE9                     	;# 
   978  0FEA                     	;# 
   979  0FEB                     	;# 
   980  0FED                     	;# 
   981  0FEE                     	;# 
   982  0FEF                     	;# 
   983                           
   984                           	psect	stringtext1
   985  0800                     __pstringtext1:
   986  0800                     _i2c_fsmStateTable:
   987  0800  3470               	retlw	low _I2C_DO_IDLE
   988  0801  3403               	retlw	high _I2C_DO_IDLE
   989  0802  34C8               	retlw	low _I2C_DO_SEND_ADR_READ
   990  0803  3403               	retlw	high _I2C_DO_SEND_ADR_READ
   991  0804  34C0               	retlw	low _I2C_DO_SEND_ADR_WRITE
   992  0805  3403               	retlw	high _I2C_DO_SEND_ADR_WRITE
   993  0806  34AD               	retlw	low _I2C_DO_TX
   994  0807  3406               	retlw	high _I2C_DO_TX
   995  0808  3414               	retlw	low _I2C_DO_RX
   996  0809  3406               	retlw	high _I2C_DO_RX
   997  080A  34B9               	retlw	low _I2C_DO_RCEN
   998  080B  3403               	retlw	high _I2C_DO_RCEN
   999  080C  347B               	retlw	low _I2C_DO_TX_EMPTY
  1000  080D  3405               	retlw	high _I2C_DO_TX_EMPTY
  1001  080E  3475               	retlw	low _I2C_DO_SEND_RESTART_READ
  1002  080F  3403               	retlw	high _I2C_DO_SEND_RESTART_READ
  1003  0810  347A               	retlw	low _I2C_DO_SEND_RESTART_WRITE
  1004  0811  3403               	retlw	high _I2C_DO_SEND_RESTART_WRITE
  1005  0812  347F               	retlw	low _I2C_DO_SEND_RESTART
  1006  0813  3403               	retlw	high _I2C_DO_SEND_RESTART
  1007  0814  3484               	retlw	low _I2C_DO_SEND_STOP
  1008  0815  3403               	retlw	high _I2C_DO_SEND_STOP
  1009  0816  3489               	retlw	low _I2C_DO_RX_ACK
  1010  0817  3403               	retlw	high _I2C_DO_RX_ACK
  1011  0818  348E               	retlw	low _I2C_DO_RX_NACK_STOP
  1012  0819  3403               	retlw	high _I2C_DO_RX_NACK_STOP
  1013  081A  3493               	retlw	low _I2C_DO_RX_NACK_RESTART
  1014  081B  3403               	retlw	high _I2C_DO_RX_NACK_RESTART
  1015  081C  3498               	retlw	low _I2C_DO_RESET
  1016  081D  3403               	retlw	high _I2C_DO_RESET
  1017  081E  344F               	retlw	low _I2C_DO_ADDRESS_NACK
  1018  081F  3405               	retlw	high _I2C_DO_ADDRESS_NACK
  1019  0820                     __end_of_i2c_fsmStateTable:
  1020                           
  1021                           	psect	stringtext2
  1022  0820                     __pstringtext2:
  1023  0820                     _digitos:
  1024  0820  343F               	retlw	63
  1025  0821  3406               	retlw	6
  1026  0822  345B               	retlw	91
  1027  0823  344F               	retlw	79
  1028  0824  3466               	retlw	102
  1029  0825  346D               	retlw	109
  1030  0826  347D               	retlw	125
  1031  0827  3407               	retlw	7
  1032  0828  347F               	retlw	127
  1033  0829  346F               	retlw	111
  1034  082A                     __end_of_digitos:
  1035  0011                     _PIR1bits	set	17
  1036  0012                     _PIR2bits	set	18
  1037  0097                     _WDTCON	set	151
  1038  0098                     _OSCTUNE	set	152
  1039  0099                     _OSCCON	set	153
  1040  0091                     _PIE1bits	set	145
  1041  0095                     _OPTION_REGbits	set	149
  1042  008F                     _TRISD	set	143
  1043  008E                     _TRISC	set	142
  1044  008D                     _TRISB	set	141
  1045  008C                     _TRISA	set	140
  1046  0090                     _TRISE	set	144
  1047  04D6                     _PLLR	set	1238
  1048  0116                     _BORCON	set	278
  1049  011D                     _APFCON	set	285
  1050  010E                     _LATC	set	270
  1051  010D                     _LATB	set	269
  1052  010C                     _LATA	set	268
  1053  010F                     _LATD	set	271
  1054  0110                     _LATE	set	272
  1055  018C                     _ANSELA	set	396
  1056  0190                     _ANSELE	set	400
  1057  018D                     _ANSELB	set	397
  1058  018F                     _ANSELD	set	399
  1059  0214                     _SSPSTATbits	set	532
  1060  0216                     _SSPCON2bits	set	534
  1061  0211                     _SSPBUF	set	529
  1062  0215                     _SSPCON1bits	set	533
  1063  0212                     _SSPADD	set	530
  1064  0216                     _SSPCON2	set	534
  1065  0215                     _SSPCON1	set	533
  1066  0214                     _SSPSTAT	set	532
  1067  020D                     _WPUB	set	525
  1068  0210                     _WPUE	set	528
  1069                           
  1070                           	psect	cinit
  1071  07F5                     start_initialization:	
  1072                           ; #config settings
  1073                           
  1074  07F5                     __initialization:
  1075                           
  1076                           ; Clear objects allocated to BANK0
  1077  07F5  3020               	movlw	low __pbssBANK0
  1078  07F6  0084               	movwf	4
  1079  07F7  3000               	movlw	high __pbssBANK0
  1080  07F8  0085               	movwf	5
  1081  07F9  3022               	movlw	34
  1082  07FA  3183  23B3  3187   	fcall	clear_ram0
  1083  07FD                     end_of_initialization:	
  1084                           ;End of C runtime variable initialization code
  1085                           
  1086  07FD                     __end_of__initialization:
  1087  07FD  0020               	movlb	0
  1088  07FE  3187  2F61         	ljmp	_main	;jump to C main() function
  1089                           
  1090                           	psect	bssBANK0
  1091  0020                     __pbssBANK0:
  1092  0020                     _I2C_Status:
  1093  0020                     	ds	29
  1094  003D                     _statusbtn:
  1095  003D                     	ds	2
  1096  003F                     _decenas:
  1097  003F                     	ds	1
  1098  0040                     _unidades:
  1099  0040                     	ds	1
  1100  0041                     _contador:
  1101  0041                     	ds	1
  1102                           
  1103                           	psect	clrtext
  1104  03B3                     clear_ram0:	
  1105                           ;	Called with FSR0 containing the base address, and
  1106                           ;	WREG with the size to clear
  1107                           
  1108  03B3  0064               	clrwdt	;clear the watchdog before getting into this loop
  1109  03B4                     clrloop0:
  1110  03B4  0180               	clrf	0	;clear RAM location pointed to by FSR
  1111  03B5  3101               	addfsr 0,1
  1112  03B6  0B89               	decfsz	9,f	;Have we reached the end of clearing yet?
  1113  03B7  2BB4               	goto	clrloop0	;have we reached the end yet?
  1114  03B8  3400               	retlw	0	;all done for this memory range, return
  1115                           
  1116                           	psect	cstackCOMMON
  1117  0070                     __pcstackCOMMON:
  1118  0070                     ?_SYSTEM_Initialize:
  1119  0070                     ??_SYSTEM_Initialize:	
  1120                           ; 1 bytes @ 0x0
  1121                           
  1122  0070                     ?_I2C_Rd:	
  1123                           ; 1 bytes @ 0x0
  1124                           
  1125  0070                     ?_I2C_DO_IDLE:	
  1126                           ; 1 bytes @ 0x0
  1127                           
  1128  0070                     ??_I2C_DO_IDLE:	
  1129                           ; 1 bytes @ 0x0
  1130                           
  1131  0070                     ?_I2C_DO_SEND_ADR_READ:	
  1132                           ; 1 bytes @ 0x0
  1133                           
  1134  0070                     ??_I2C_DO_SEND_ADR_READ:	
  1135                           ; 1 bytes @ 0x0
  1136                           
  1137  0070                     ?_I2C_DO_SEND_ADR_WRITE:	
  1138                           ; 1 bytes @ 0x0
  1139                           
  1140  0070                     ?_I2C_DO_TX:	
  1141                           ; 1 bytes @ 0x0
  1142                           
  1143  0070                     ?_I2C_DO_RX:	
  1144                           ; 1 bytes @ 0x0
  1145                           
  1146  0070                     ??_I2C_DO_RX:	
  1147                           ; 1 bytes @ 0x0
  1148                           
  1149  0070                     ?_I2C_DO_RCEN:	
  1150                           ; 1 bytes @ 0x0
  1151                           
  1152  0070                     ??_I2C_DO_RCEN:	
  1153                           ; 1 bytes @ 0x0
  1154                           
  1155  0070                     ?_I2C_DO_TX_EMPTY:	
  1156                           ; 1 bytes @ 0x0
  1157                           
  1158  0070                     ??_I2C_DO_TX_EMPTY:	
  1159                           ; 1 bytes @ 0x0
  1160                           
  1161  0070                     ?_I2C_DO_SEND_RESTART_READ:	
  1162                           ; 1 bytes @ 0x0
  1163                           
  1164  0070                     ??_I2C_DO_SEND_RESTART_READ:	
  1165                           ; 1 bytes @ 0x0
  1166                           
  1167  0070                     ?_I2C_DO_SEND_RESTART_WRITE:	
  1168                           ; 1 bytes @ 0x0
  1169                           
  1170  0070                     ??_I2C_DO_SEND_RESTART_WRITE:	
  1171                           ; 1 bytes @ 0x0
  1172                           
  1173  0070                     ?_I2C_DO_SEND_RESTART:	
  1174                           ; 1 bytes @ 0x0
  1175                           
  1176  0070                     ??_I2C_DO_SEND_RESTART:	
  1177                           ; 1 bytes @ 0x0
  1178                           
  1179  0070                     ?_I2C_DO_SEND_STOP:	
  1180                           ; 1 bytes @ 0x0
  1181                           
  1182  0070                     ??_I2C_DO_SEND_STOP:	
  1183                           ; 1 bytes @ 0x0
  1184                           
  1185  0070                     ?_I2C_DO_RX_ACK:	
  1186                           ; 1 bytes @ 0x0
  1187                           
  1188  0070                     ??_I2C_DO_RX_ACK:	
  1189                           ; 1 bytes @ 0x0
  1190                           
  1191  0070                     ?_I2C_DO_RX_NACK_STOP:	
  1192                           ; 1 bytes @ 0x0
  1193                           
  1194  0070                     ??_I2C_DO_RX_NACK_STOP:	
  1195                           ; 1 bytes @ 0x0
  1196                           
  1197  0070                     ?_I2C_DO_RX_NACK_RESTART:	
  1198                           ; 1 bytes @ 0x0
  1199                           
  1200  0070                     ??_I2C_DO_RX_NACK_RESTART:	
  1201                           ; 1 bytes @ 0x0
  1202                           
  1203  0070                     ?_I2C_DO_RESET:	
  1204                           ; 1 bytes @ 0x0
  1205                           
  1206  0070                     ??_I2C_DO_RESET:	
  1207                           ; 1 bytes @ 0x0
  1208                           
  1209  0070                     ?_I2C_DO_ADDRESS_NACK:	
  1210                           ; 1 bytes @ 0x0
  1211                           
  1212  0070                     ??_I2C_DO_ADDRESS_NACK:	
  1213                           ; 1 bytes @ 0x0
  1214                           
  1215  0070                     ?_I2C_MasterClearIrq:	
  1216                           ; 1 bytes @ 0x0
  1217                           
  1218  0070                     ??_I2C_MasterClearIrq:	
  1219                           ; 1 bytes @ 0x0
  1220                           
  1221  0070                     ?_I2C_MasterOpen:	
  1222                           ; 1 bytes @ 0x0
  1223                           
  1224  0070                     ??_I2C_MasterOpen:	
  1225                           ; 1 bytes @ 0x0
  1226                           
  1227  0070                     ?_I2C_MasterDisableIrq:	
  1228                           ; 1 bytes @ 0x0
  1229                           
  1230  0070                     ??_I2C_MasterDisableIrq:	
  1231                           ; 1 bytes @ 0x0
  1232                           
  1233  0070                     ?_I2C_MasterClose:	
  1234                           ; 1 bytes @ 0x0
  1235                           
  1236  0070                     ??_I2C_MasterClose:	
  1237                           ; 1 bytes @ 0x0
  1238                           
  1239  0070                     ?_I2C_MasterStart:	
  1240                           ; 1 bytes @ 0x0
  1241                           
  1242  0070                     ??_I2C_MasterStart:	
  1243                           ; 1 bytes @ 0x0
  1244                           
  1245  0070                     ?_I2C_Poller:	
  1246                           ; 1 bytes @ 0x0
  1247                           
  1248  0070                     ?_I2C_SetCallback:	
  1249                           ; 1 bytes @ 0x0
  1250                           
  1251  0070                     ?_I2C_MasterWaitForEvent:	
  1252                           ; 1 bytes @ 0x0
  1253                           
  1254  0070                     ??_I2C_MasterWaitForEvent:	
  1255                           ; 1 bytes @ 0x0
  1256                           
  1257  0070                     ?_I2C_MasterFsm:	
  1258                           ; 1 bytes @ 0x0
  1259                           
  1260  0070                     ?_I2C_MasterIsNack:	
  1261                           ; 1 bytes @ 0x0
  1262                           
  1263  0070                     ??_I2C_MasterIsNack:	
  1264                           ; 1 bytes @ 0x0
  1265                           
  1266  0070                     ?_I2C_MasterSendTxData:	
  1267                           ; 1 bytes @ 0x0
  1268                           
  1269  0070                     ??_I2C_MasterSendTxData:	
  1270                           ; 1 bytes @ 0x0
  1271                           
  1272  0070                     ?_I2C_MasterGetRxData:	
  1273                           ; 1 bytes @ 0x0
  1274                           
  1275  0070                     ??_I2C_MasterGetRxData:	
  1276                           ; 1 bytes @ 0x0
  1277                           
  1278  0070                     ?_I2C_MasterSendAck:	
  1279                           ; 1 bytes @ 0x0
  1280                           
  1281  0070                     ??_I2C_MasterSendAck:	
  1282                           ; 1 bytes @ 0x0
  1283                           
  1284  0070                     ?_I2C_MasterStartRx:	
  1285                           ; 1 bytes @ 0x0
  1286                           
  1287  0070                     ??_I2C_MasterStartRx:	
  1288                           ; 1 bytes @ 0x0
  1289                           
  1290  0070                     ?_I2C_MasterSetIrq:	
  1291                           ; 1 bytes @ 0x0
  1292                           
  1293  0070                     ??_I2C_MasterSetIrq:	
  1294                           ; 1 bytes @ 0x0
  1295                           
  1296  0070                     ?_I2C_MasterEnableRestart:	
  1297                           ; 1 bytes @ 0x0
  1298                           
  1299  0070                     ??_I2C_MasterEnableRestart:	
  1300                           ; 1 bytes @ 0x0
  1301                           
  1302  0070                     ?_I2C_MasterStop:	
  1303                           ; 1 bytes @ 0x0
  1304                           
  1305  0070                     ??_I2C_MasterStop:	
  1306                           ; 1 bytes @ 0x0
  1307                           
  1308  0070                     ?_I2C_MasterSendNack:	
  1309                           ; 1 bytes @ 0x0
  1310                           
  1311  0070                     ??_I2C_MasterSendNack:	
  1312                           ; 1 bytes @ 0x0
  1313                           
  1314  0070                     ?_OSCILLATOR_Initialize:	
  1315                           ; 1 bytes @ 0x0
  1316                           
  1317  0070                     ??_OSCILLATOR_Initialize:	
  1318                           ; 1 bytes @ 0x0
  1319                           
  1320  0070                     ?_WDT_Initialize:	
  1321                           ; 1 bytes @ 0x0
  1322                           
  1323  0070                     ??_WDT_Initialize:	
  1324                           ; 1 bytes @ 0x0
  1325                           
  1326  0070                     ?_main:	
  1327                           ; 1 bytes @ 0x0
  1328                           
  1329  0070                     ?_PIN_MANAGER_Initialize:	
  1330                           ; 1 bytes @ 0x0
  1331                           
  1332  0070                     ??_PIN_MANAGER_Initialize:	
  1333                           ; 1 bytes @ 0x0
  1334                           
  1335  0070                     ?_I2C_Initialize:	
  1336                           ; 1 bytes @ 0x0
  1337                           
  1338  0070                     ??_I2C_Initialize:	
  1339                           ; 1 bytes @ 0x0
  1340                           
  1341  0070                     ?_I2C_Open:	
  1342                           ; 1 bytes @ 0x0
  1343                           
  1344  0070                     ??_I2C_Open:	
  1345                           ; 1 bytes @ 0x0
  1346                           
  1347  0070                     ?_I2C_Close:	
  1348                           ; 1 bytes @ 0x0
  1349                           
  1350  0070                     ??_I2C_Close:	
  1351                           ; 1 bytes @ 0x0
  1352                           
  1353  0070                     ?_I2C_MasterOperation:	
  1354                           ; 1 bytes @ 0x0
  1355                           
  1356  0070                     ?_I2C_MasterRead:	
  1357                           ; 1 bytes @ 0x0
  1358                           
  1359  0070                     ?_I2C_MasterWrite:	
  1360                           ; 1 bytes @ 0x0
  1361                           
  1362  0070                     ?_I2C_SetBuffer:	
  1363                           ; 1 bytes @ 0x0
  1364                           
  1365  0070                     ?___awdiv:	
  1366                           ; 1 bytes @ 0x0
  1367                           
  1368  0070                     ?___awmod:	
  1369                           ; 2 bytes @ 0x0
  1370                           
  1371  0070                     I2C_MasterSendTxData@data:	
  1372                           ; 2 bytes @ 0x0
  1373                           
  1374  0070                     I2C_SetBuffer@bufferSize:	
  1375                           ; 1 bytes @ 0x0
  1376                           
  1377  0070                     I2C_SetCallback@cb:	
  1378                           ; 2 bytes @ 0x0
  1379                           
  1380  0070                     ___awdiv@divisor:	
  1381                           ; 2 bytes @ 0x0
  1382                           
  1383  0070                     ___awmod@divisor:	
  1384                           ; 2 bytes @ 0x0
  1385                           
  1386                           
  1387                           ; 2 bytes @ 0x0
  1388  0070                     	ds	1
  1389  0071                     ??_I2C_DO_SEND_ADR_WRITE:
  1390  0071                     ??_I2C_DO_TX:	
  1391                           ; 1 bytes @ 0x1
  1392                           
  1393  0071                     I2C_Open@address:	
  1394                           ; 1 bytes @ 0x1
  1395                           
  1396  0071                     I2C_Close@returnValue:	
  1397                           ; 1 bytes @ 0x1
  1398                           
  1399                           
  1400                           ; 1 bytes @ 0x1
  1401  0071                     	ds	1
  1402  0072                     ??_I2C_SetBuffer:
  1403  0072                     I2C_Open@returnValue:	
  1404                           ; 1 bytes @ 0x2
  1405                           
  1406  0072                     I2C_SetCallback@ptr:	
  1407                           ; 1 bytes @ 0x2
  1408                           
  1409  0072                     ___awdiv@dividend:	
  1410                           ; 1 bytes @ 0x2
  1411                           
  1412  0072                     ___awmod@dividend:	
  1413                           ; 2 bytes @ 0x2
  1414                           
  1415                           
  1416                           ; 2 bytes @ 0x2
  1417  0072                     	ds	1
  1418  0073                     ??_I2C_SetCallback:
  1419  0073                     I2C_SetBuffer@buffer:	
  1420                           ; 1 bytes @ 0x3
  1421                           
  1422                           
  1423                           ; 1 bytes @ 0x3
  1424  0073                     	ds	1
  1425  0074                     ??_I2C_MasterFsm:
  1426  0074                     ??___awdiv:	
  1427                           ; 1 bytes @ 0x4
  1428                           
  1429  0074                     ??___awmod:	
  1430                           ; 1 bytes @ 0x4
  1431                           
  1432  0074                     I2C_SetCallback@idx:	
  1433                           ; 1 bytes @ 0x4
  1434                           
  1435                           
  1436                           ; 1 bytes @ 0x4
  1437  0074                     	ds	1
  1438  0075                     ?_I2C_SetDataCompleteCallback:
  1439  0075                     ?_I2C_SetAddressNackCallback:	
  1440                           ; 1 bytes @ 0x5
  1441                           
  1442  0075                     ___awdiv@counter:	
  1443                           ; 1 bytes @ 0x5
  1444                           
  1445  0075                     ___awmod@counter:	
  1446                           ; 1 bytes @ 0x5
  1447                           
  1448  0075                     I2C_SetDataCompleteCallback@cb:	
  1449                           ; 1 bytes @ 0x5
  1450                           
  1451  0075                     I2C_SetAddressNackCallback@cb:	
  1452                           ; 2 bytes @ 0x5
  1453                           
  1454                           
  1455                           ; 2 bytes @ 0x5
  1456  0075                     	ds	1
  1457  0076                     ___awdiv@sign:
  1458  0076                     ___awmod@sign:	
  1459                           ; 1 bytes @ 0x6
  1460                           
  1461                           
  1462                           ; 1 bytes @ 0x6
  1463  0076                     	ds	1
  1464  0077                     ??_I2C_Poller:
  1465  0077                     ??_I2C_MasterOperation:	
  1466                           ; 1 bytes @ 0x7
  1467                           
  1468  0077                     I2C_SetDataCompleteCallback@ptr:	
  1469                           ; 1 bytes @ 0x7
  1470                           
  1471  0077                     I2C_SetAddressNackCallback@ptr:	
  1472                           ; 1 bytes @ 0x7
  1473                           
  1474  0077                     ___awdiv@quotient:	
  1475                           ; 1 bytes @ 0x7
  1476                           
  1477                           
  1478                           ; 2 bytes @ 0x7
  1479  0077                     	ds	1
  1480  0078                     ??_I2C_SetDataCompleteCallback:
  1481  0078                     ??_I2C_SetAddressNackCallback:	
  1482                           ; 1 bytes @ 0x8
  1483                           
  1484  0078                     I2C_MasterOperation@read:	
  1485                           ; 1 bytes @ 0x8
  1486                           
  1487                           
  1488                           ; 1 bytes @ 0x8
  1489  0078                     	ds	1
  1490  0079                     ?_I2C_CallbackReturnStop:
  1491  0079                     ?_I2C_CallbackReturnReset:	
  1492                           ; 1 bytes @ 0x9
  1493                           
  1494  0079                     ?_rd1RegCompleteHandler:	
  1495                           ; 1 bytes @ 0x9
  1496                           
  1497  0079                     ?_wr1RegCompleteHandler:	
  1498                           ; 1 bytes @ 0x9
  1499                           
  1500  0079                     ?_wr2RegCompleteHandler:	
  1501                           ; 1 bytes @ 0x9
  1502                           
  1503  0079                     ?_rdBlkRegCompleteHandler:	
  1504                           ; 1 bytes @ 0x9
  1505                           
  1506  0079                     I2C_MasterOperation@returnValue:	
  1507                           ; 1 bytes @ 0x9
  1508                           
  1509  0079                     I2C_CallbackReturnStop@funPtr:	
  1510                           ; 1 bytes @ 0x9
  1511                           
  1512  0079                     I2C_CallbackReturnReset@funPtr:	
  1513                           ; 1 bytes @ 0x9
  1514                           
  1515  0079                     rd1RegCompleteHandler@ptr:	
  1516                           ; 1 bytes @ 0x9
  1517                           
  1518  0079                     wr1RegCompleteHandler@ptr:	
  1519                           ; 1 bytes @ 0x9
  1520                           
  1521  0079                     wr2RegCompleteHandler@ptr:	
  1522                           ; 1 bytes @ 0x9
  1523                           
  1524  0079                     rdBlkRegCompleteHandler@ptr:	
  1525                           ; 1 bytes @ 0x9
  1526                           
  1527                           
  1528                           ; 1 bytes @ 0x9
  1529  0079                     	ds	1
  1530  007A                     ?_I2C_Write1ByteRegister:
  1531  007A                     ??_I2C_Rd:	
  1532                           ; 1 bytes @ 0xA
  1533                           
  1534  007A                     ??_I2C_CallbackReturnStop:	
  1535                           ; 1 bytes @ 0xA
  1536                           
  1537  007A                     ??_I2C_CallbackReturnReset:	
  1538                           ; 1 bytes @ 0xA
  1539                           
  1540  007A                     ??_rd1RegCompleteHandler:	
  1541                           ; 1 bytes @ 0xA
  1542                           
  1543  007A                     ??_wr1RegCompleteHandler:	
  1544                           ; 1 bytes @ 0xA
  1545                           
  1546  007A                     ??_wr2RegCompleteHandler:	
  1547                           ; 1 bytes @ 0xA
  1548                           
  1549  007A                     ??_rdBlkRegCompleteHandler:	
  1550                           ; 1 bytes @ 0xA
  1551                           
  1552  007A                     ??_I2C_MasterRead:	
  1553                           ; 1 bytes @ 0xA
  1554                           
  1555  007A                     ??_I2C_MasterWrite:	
  1556                           ; 1 bytes @ 0xA
  1557                           
  1558  007A                     I2C_Rd@address:	
  1559                           ; 1 bytes @ 0xA
  1560                           
  1561  007A                     I2C_Write1ByteRegister@reg:	
  1562                           ; 1 bytes @ 0xA
  1563                           
  1564                           
  1565                           ; 1 bytes @ 0xA
  1566  007A                     	ds	1
  1567  007B                     I2C_Rd@returnValue:
  1568  007B                     I2C_Write1ByteRegister@data:	
  1569                           ; 1 bytes @ 0xB
  1570                           
  1571                           
  1572                           ; 1 bytes @ 0xB
  1573  007B                     	ds	1
  1574  007C                     ??_I2C_Write1ByteRegister:
  1575                           
  1576                           ; 1 bytes @ 0xC
  1577  007C                     	ds	1
  1578  007D                     I2C_Write1ByteRegister@address:
  1579                           
  1580                           ; 1 bytes @ 0xD
  1581  007D                     	ds	1
  1582                           
  1583                           	psect	cstackBANK0
  1584  0042                     __pcstackBANK0:
  1585  0042                     ??_main:
  1586                           
  1587                           ; 1 bytes @ 0x0
  1588  0042                     	ds	3
  1589                           
  1590                           	psect	maintext
  1591  0761                     __pmaintext:	
  1592 ;;
  1593 ;;Main: autosize = 0, tempsize = 3, incstack = 0, save=0
  1594 ;;
  1595 ;; *************** function _main *****************
  1596 ;; Defined at:
  1597 ;;		line 23 in file "main.c"
  1598 ;; Parameters:    Size  Location     Type
  1599 ;;		None
  1600 ;; Auto vars:     Size  Location     Type
  1601 ;;		None
  1602 ;; Return value:  Size  Location     Type
  1603 ;;                  1    wreg      void 
  1604 ;; Registers used:
  1605 ;;		wreg, fsr0l, fsr0h, fsr1l, fsr1h, status,2, status,0, pclath, cstack
  1606 ;; Tracked objects:
  1607 ;;		On entry : B1F/0
  1608 ;;		On exit  : 0/0
  1609 ;;		Unchanged: 0/0
  1610 ;; Data sizes:     COMMON   BANK0   BANK1   BANK2   BANK3   BANK4   BANK5   BANK6   BANK7   BANK8   BANK9  BANK10  BANK1
      +1  BANK12
  1611 ;;      Params:         0       0       0       0       0       0       0       0       0       0       0       0       
      +0       0
  1612 ;;      Locals:         0       0       0       0       0       0       0       0       0       0       0       0       
      +0       0
  1613 ;;      Temps:          0       3       0       0       0       0       0       0       0       0       0       0       
      +0       0
  1614 ;;      Totals:         0       3       0       0       0       0       0       0       0       0       0       0       
      +0       0
  1615 ;;Total ram usage:        3 bytes
  1616 ;; Hardware stack levels required when called: 9
  1617 ;; This function calls:
  1618 ;;		_I2C_Rd
  1619 ;;		_I2C_Write1ByteRegister
  1620 ;;		_SYSTEM_Initialize
  1621 ;;		___awdiv
  1622 ;;		___awmod
  1623 ;; This function is called by:
  1624 ;;		Startup code after reset
  1625 ;; This function uses a non-reentrant model
  1626 ;;
  1627                           
  1628  0761                     _main:	
  1629                           ;psect for function _main
  1630                           
  1631  0761                     l2468:	
  1632                           ;incstack = 0
  1633                           ; Regs used in _main: [wreg-fsr1h+status,2+status,0+pclath+cstack]
  1634                           
  1635                           
  1636                           ;main.c: 25:     SYSTEM_Initialize();
  1637  0761  3184  241A  3187   	fcall	_SYSTEM_Initialize
  1638  0764                     l23:	
  1639                           ;main.c: 27:     while (1){
  1640                           
  1641                           
  1642                           ;main.c: 28:         unidades = contador % 10;
  1643  0764  300A               	movlw	10
  1644  0765  00F0               	movwf	___awmod@divisor
  1645  0766  3000               	movlw	0
  1646  0767  00F1               	movwf	___awmod@divisor+1
  1647  0768  0020               	movlb	0	; select bank0
  1648  0769  0841               	movf	_contador,w
  1649  076A  00C2               	movwf	??_main
  1650  076B  01C3               	clrf	??_main+1
  1651  076C  0842               	movf	??_main,w
  1652  076D  00F2               	movwf	___awmod@dividend
  1653  076E  0843               	movf	??_main+1,w
  1654  076F  00F3               	movwf	___awmod@dividend+1
  1655  0770  3186  265A  3187   	fcall	___awmod
  1656  0773  0870               	movf	?___awmod,w
  1657  0774  0020               	movlb	0	; select bank0
  1658  0775  00C4               	movwf	??_main+2
  1659  0776  0844               	movf	??_main+2,w
  1660  0777  00C0               	movwf	_unidades
  1661                           
  1662                           ;main.c: 29:         decenas = contador / 10;
  1663  0778  300A               	movlw	10
  1664  0779  00F0               	movwf	___awdiv@divisor
  1665  077A  3000               	movlw	0
  1666  077B  00F1               	movwf	___awdiv@divisor+1
  1667  077C  0841               	movf	_contador,w
  1668  077D  00C2               	movwf	??_main
  1669  077E  01C3               	clrf	??_main+1
  1670  077F  0842               	movf	??_main,w
  1671  0780  00F2               	movwf	___awdiv@dividend
  1672  0781  0843               	movf	??_main+1,w
  1673  0782  00F3               	movwf	___awdiv@dividend+1
  1674  0783  3187  2702  3187   	fcall	___awdiv
  1675  0786  0870               	movf	?___awdiv,w
  1676  0787  0020               	movlb	0	; select bank0
  1677  0788  00C4               	movwf	??_main+2
  1678  0789  0844               	movf	??_main+2,w
  1679  078A  00BF               	movwf	_decenas
  1680  078B                     l2470:
  1681                           
  1682                           ;main.c: 30:         I2C_Write1ByteRegister(0b0100000<<0, 0, digitos[unidades]);
  1683  078B  01FA               	clrf	I2C_Write1ByteRegister@reg
  1684  078C  0840               	movf	_unidades,w
  1685  078D  3E20               	addlw	low (_digitos| (0+32768))
  1686  078E  0084               	movwf	4
  1687  078F  3088               	movlw	high (_digitos| (0+32768))
  1688  0790  1803               	skipnc
  1689  0791  3E01               	addlw	1
  1690  0792  0085               	movwf	5
  1691  0793  0800               	movf	0,w	;code access
  1692  0794  00C2               	movwf	??_main
  1693  0795  0842               	movf	??_main,w
  1694  0796  00FB               	movwf	I2C_Write1ByteRegister@data
  1695  0797  3020               	movlw	32
  1696  0798  3185  25AA  3187   	fcall	_I2C_Write1ByteRegister
  1697  079B                     l2472:
  1698                           
  1699                           ;main.c: 31:         I2C_Write1ByteRegister(0b0100001<<0, 0, digitos[decenas]);
  1700  079B  01FA               	clrf	I2C_Write1ByteRegister@reg
  1701  079C  0020               	movlb	0	; select bank0
  1702  079D  083F               	movf	_decenas,w
  1703  079E  3E20               	addlw	low (_digitos| (0+32768))
  1704  079F  0084               	movwf	4
  1705  07A0  3088               	movlw	high (_digitos| (0+32768))
  1706  07A1  1803               	skipnc
  1707  07A2  3E01               	addlw	1
  1708  07A3  0085               	movwf	5
  1709  07A4  0800               	movf	0,w	;code access
  1710  07A5  00C2               	movwf	??_main
  1711  07A6  0842               	movf	??_main,w
  1712  07A7  00FB               	movwf	I2C_Write1ByteRegister@data
  1713  07A8  3021               	movlw	33
  1714  07A9  3185  25AA  3187   	fcall	_I2C_Write1ByteRegister
  1715  07AC                     l2474:
  1716                           
  1717                           ;main.c: 33:         statusbtn=I2C_Rd(0b0100000<<0);
  1718  07AC  3020               	movlw	32
  1719  07AD  3184  24BC  3187   	fcall	_I2C_Rd
  1720  07B0  0020               	movlb	0	; select bank0
  1721  07B1  00C2               	movwf	??_main
  1722  07B2  01C3               	clrf	??_main+1
  1723  07B3  0842               	movf	??_main,w
  1724  07B4  00BD               	movwf	_statusbtn
  1725  07B5  0843               	movf	??_main+1,w
  1726  07B6  00BE               	movwf	_statusbtn+1
  1727  07B7                     l2476:
  1728                           
  1729                           ;main.c: 34:         statusbtn = ( statusbtn& 0b10000000 ) >> 7;
  1730  07B7  083E               	movf	_statusbtn+1,w
  1731  07B8  00C3               	movwf	??_main+1
  1732  07B9  083D               	movf	_statusbtn,w
  1733  07BA  00C2               	movwf	??_main
  1734  07BB  3007               	movlw	7
  1735  07BC  00C4               	movwf	??_main+2
  1736  07BD                     u945:
  1737  07BD  0D43               	rlf	??_main+1,w
  1738  07BE  0CC3               	rrf	??_main+1,f
  1739  07BF  0CC2               	rrf	??_main,f
  1740  07C0  0BC4               	decfsz	??_main+2,f
  1741  07C1  2FBD               	goto	u945
  1742  07C2  3001               	movlw	1
  1743  07C3  0542               	andwf	??_main,w
  1744  07C4  00BD               	movwf	_statusbtn
  1745  07C5  3000               	movlw	0
  1746  07C6  0543               	andwf	??_main+1,w
  1747  07C7  00BE               	movwf	_statusbtn+1
  1748  07C8                     l2478:
  1749                           
  1750                           ;main.c: 35:         _delay((unsigned long)((100)*(32000000/4000.0)));
  1751  07C8  3005               	movlw	5
  1752  07C9  0020               	movlb	0	; select bank0
  1753  07CA  00C3               	movwf	??_main+1
  1754  07CB  300F               	movlw	15
  1755  07CC  00C2               	movwf	??_main
  1756  07CD  30F1               	movlw	241
  1757  07CE                     u1117:
  1758  07CE  0B89               	decfsz	9,f
  1759  07CF  2FCE               	goto	u1117
  1760  07D0  0BC2               	decfsz	??_main,f
  1761  07D1  2FCE               	goto	u1117
  1762  07D2  0BC3               	decfsz	??_main+1,f
  1763  07D3  2FCE               	goto	u1117
  1764  07D4                     l2480:
  1765                           
  1766                           ;main.c: 36:         if(statusbtn)
  1767  07D4  0020               	movlb	0	; select bank0
  1768  07D5  083D               	movf	_statusbtn,w
  1769  07D6  043E               	iorwf	_statusbtn+1,w
  1770  07D7  1903               	btfsc	3,2
  1771  07D8  2FDA               	goto	u951
  1772  07D9  2FDB               	goto	u950
  1773  07DA                     u951:
  1774  07DA  2FE0               	goto	l2484
  1775  07DB                     u950:
  1776  07DB                     l2482:
  1777                           
  1778                           ;main.c: 37:             contador++;
  1779  07DB  3001               	movlw	1
  1780  07DC  00C2               	movwf	??_main
  1781  07DD  0842               	movf	??_main,w
  1782  07DE  07C1               	addwf	_contador,f
  1783  07DF  2FE2               	goto	l25
  1784  07E0                     l2484:
  1785                           
  1786                           ;main.c: 39:             contador--;
  1787  07E0  3001               	movlw	1
  1788  07E1  02C1               	subwf	_contador,f
  1789  07E2                     l25:
  1790                           
  1791                           ;main.c: 41:         if(contador==100)
  1792  07E2  3064               	movlw	100
  1793  07E3  0641               	xorwf	_contador,w
  1794  07E4  1D03               	btfss	3,2
  1795  07E5  2FE7               	goto	u961
  1796  07E6  2FE8               	goto	u960
  1797  07E7                     u961:
  1798  07E7  2FE9               	goto	l2488
  1799  07E8                     u960:
  1800  07E8                     l2486:
  1801                           
  1802                           ;main.c: 42:             contador=0;
  1803  07E8  01C1               	clrf	_contador
  1804  07E9                     l2488:
  1805                           
  1806                           ;main.c: 44:         if(contador==255)
  1807  07E9  0A41               	incf	_contador,w
  1808  07EA  1D03               	btfss	3,2
  1809  07EB  2FED               	goto	u971
  1810  07EC  2FEE               	goto	u970
  1811  07ED                     u971:
  1812  07ED  2F64               	goto	l23
  1813  07EE                     u970:
  1814  07EE                     l2490:
  1815                           
  1816                           ;main.c: 45:             contador = 99;
  1817  07EE  3063               	movlw	99
  1818  07EF  00C2               	movwf	??_main
  1819  07F0  0842               	movf	??_main,w
  1820  07F1  00C1               	movwf	_contador
  1821  07F2  2F64               	goto	l23
  1822  07F3  3180  2802         	ljmp	start
  1823  07F5                     __end_of_main:
  1824                           
  1825                           	psect	text1
  1826  065A                     __ptext1:	
  1827 ;; *************** function ___awmod *****************
  1828 ;; Defined at:
  1829 ;;		line 5 in file "C:\Program Files\Microchip\xc8\v2.36\pic\sources\c99\common\awmod.c"
  1830 ;; Parameters:    Size  Location     Type
  1831 ;;  divisor         2    0[COMMON] int 
  1832 ;;  dividend        2    2[COMMON] int 
  1833 ;; Auto vars:     Size  Location     Type
  1834 ;;  sign            1    6[COMMON] unsigned char 
  1835 ;;  counter         1    5[COMMON] unsigned char 
  1836 ;; Return value:  Size  Location     Type
  1837 ;;                  2    0[COMMON] int 
  1838 ;; Registers used:
  1839 ;;		wreg, status,2, status,0
  1840 ;; Tracked objects:
  1841 ;;		On entry : 0/0
  1842 ;;		On exit  : 0/0
  1843 ;;		Unchanged: 0/0
  1844 ;; Data sizes:     COMMON   BANK0   BANK1   BANK2   BANK3   BANK4   BANK5   BANK6   BANK7   BANK8   BANK9  BANK10  BANK1
      +1  BANK12
  1845 ;;      Params:         4       0       0       0       0       0       0       0       0       0       0       0       
      +0       0
  1846 ;;      Locals:         2       0       0       0       0       0       0       0       0       0       0       0       
      +0       0
  1847 ;;      Temps:          1       0       0       0       0       0       0       0       0       0       0       0       
      +0       0
  1848 ;;      Totals:         7       0       0       0       0       0       0       0       0       0       0       0       
      +0       0
  1849 ;;Total ram usage:        7 bytes
  1850 ;; Hardware stack levels used: 1
  1851 ;; This function calls:
  1852 ;;		Nothing
  1853 ;; This function is called by:
  1854 ;;		_main
  1855 ;; This function uses a non-reentrant model
  1856 ;;
  1857                           
  1858  065A                     ___awmod:	
  1859                           ;psect for function ___awmod
  1860                           
  1861  065A                     l2430:	
  1862                           ;incstack = 0
  1863                           ; Regs used in ___awmod: [wreg+status,2+status,0]
  1864                           
  1865  065A  01F6               	clrf	___awmod@sign
  1866  065B                     l2432:
  1867  065B  1FF3               	btfss	___awmod@dividend+1,7
  1868  065C  2E5E               	goto	u851
  1869  065D  2E5F               	goto	u850
  1870  065E                     u851:
  1871  065E  2E66               	goto	l2438
  1872  065F                     u850:
  1873  065F                     l2434:
  1874  065F  09F2               	comf	___awmod@dividend,f
  1875  0660  09F3               	comf	___awmod@dividend+1,f
  1876  0661  0AF2               	incf	___awmod@dividend,f
  1877  0662  1903               	skipnz
  1878  0663  0AF3               	incf	___awmod@dividend+1,f
  1879  0664                     l2436:
  1880  0664  01F6               	clrf	___awmod@sign
  1881  0665  0AF6               	incf	___awmod@sign,f
  1882  0666                     l2438:
  1883  0666  1FF1               	btfss	___awmod@divisor+1,7
  1884  0667  2E69               	goto	u861
  1885  0668  2E6A               	goto	u860
  1886  0669                     u861:
  1887  0669  2E6F               	goto	l2442
  1888  066A                     u860:
  1889  066A                     l2440:
  1890  066A  09F0               	comf	___awmod@divisor,f
  1891  066B  09F1               	comf	___awmod@divisor+1,f
  1892  066C  0AF0               	incf	___awmod@divisor,f
  1893  066D  1903               	skipnz
  1894  066E  0AF1               	incf	___awmod@divisor+1,f
  1895  066F                     l2442:
  1896  066F  0870               	movf	___awmod@divisor,w
  1897  0670  0471               	iorwf	___awmod@divisor+1,w
  1898  0671  1903               	btfsc	3,2
  1899  0672  2E74               	goto	u871
  1900  0673  2E75               	goto	u870
  1901  0674                     u871:
  1902  0674  2E9E               	goto	l2460
  1903  0675                     u870:
  1904  0675                     l2444:
  1905  0675  01F5               	clrf	___awmod@counter
  1906  0676  0AF5               	incf	___awmod@counter,f
  1907  0677  2E81               	goto	l2450
  1908  0678                     l2446:
  1909  0678  3001               	movlw	1
  1910  0679                     u885:
  1911  0679  35F0               	lslf	___awmod@divisor,f
  1912  067A  0DF1               	rlf	___awmod@divisor+1,f
  1913  067B  0B89               	decfsz	9,f
  1914  067C  2E79               	goto	u885
  1915  067D                     l2448:
  1916  067D  3001               	movlw	1
  1917  067E  00F4               	movwf	??___awmod
  1918  067F  0874               	movf	??___awmod,w
  1919  0680  07F5               	addwf	___awmod@counter,f
  1920  0681                     l2450:
  1921  0681  1FF1               	btfss	___awmod@divisor+1,7
  1922  0682  2E84               	goto	u891
  1923  0683  2E85               	goto	u890
  1924  0684                     u891:
  1925  0684  2E78               	goto	l2446
  1926  0685                     u890:
  1927  0685                     l2452:
  1928  0685  0871               	movf	___awmod@divisor+1,w
  1929  0686  0273               	subwf	___awmod@dividend+1,w
  1930  0687  1D03               	skipz
  1931  0688  2E8B               	goto	u905
  1932  0689  0870               	movf	___awmod@divisor,w
  1933  068A  0272               	subwf	___awmod@dividend,w
  1934  068B                     u905:
  1935  068B  1C03               	skipc
  1936  068C  2E8E               	goto	u901
  1937  068D  2E8F               	goto	u900
  1938  068E                     u901:
  1939  068E  2E93               	goto	l2456
  1940  068F                     u900:
  1941  068F                     l2454:
  1942  068F  0870               	movf	___awmod@divisor,w
  1943  0690  02F2               	subwf	___awmod@dividend,f
  1944  0691  0871               	movf	___awmod@divisor+1,w
  1945  0692  3BF3               	subwfb	___awmod@dividend+1,f
  1946  0693                     l2456:
  1947  0693  3001               	movlw	1
  1948  0694                     u915:
  1949  0694  36F1               	lsrf	___awmod@divisor+1,f
  1950  0695  0CF0               	rrf	___awmod@divisor,f
  1951  0696  0B89               	decfsz	9,f
  1952  0697  2E94               	goto	u915
  1953  0698                     l2458:
  1954  0698  3001               	movlw	1
  1955  0699  02F5               	subwf	___awmod@counter,f
  1956  069A  1D03               	btfss	3,2
  1957  069B  2E9D               	goto	u921
  1958  069C  2E9E               	goto	u920
  1959  069D                     u921:
  1960  069D  2E85               	goto	l2452
  1961  069E                     u920:
  1962  069E                     l2460:
  1963  069E  0876               	movf	___awmod@sign,w
  1964  069F  1903               	btfsc	3,2
  1965  06A0  2EA2               	goto	u931
  1966  06A1  2EA3               	goto	u930
  1967  06A2                     u931:
  1968  06A2  2EA8               	goto	l2464
  1969  06A3                     u930:
  1970  06A3                     l2462:
  1971  06A3  09F2               	comf	___awmod@dividend,f
  1972  06A4  09F3               	comf	___awmod@dividend+1,f
  1973  06A5  0AF2               	incf	___awmod@dividend,f
  1974  06A6  1903               	skipnz
  1975  06A7  0AF3               	incf	___awmod@dividend+1,f
  1976  06A8                     l2464:
  1977  06A8  0873               	movf	___awmod@dividend+1,w
  1978  06A9  00F1               	movwf	?___awmod+1
  1979  06AA  0872               	movf	___awmod@dividend,w
  1980  06AB  00F0               	movwf	?___awmod
  1981  06AC                     l850:
  1982  06AC  0008               	return
  1983  06AD                     __end_of___awmod:
  1984                           
  1985                           	psect	text2
  1986  0702                     __ptext2:	
  1987 ;; *************** function ___awdiv *****************
  1988 ;; Defined at:
  1989 ;;		line 5 in file "C:\Program Files\Microchip\xc8\v2.36\pic\sources\c99\common\awdiv.c"
  1990 ;; Parameters:    Size  Location     Type
  1991 ;;  divisor         2    0[COMMON] int 
  1992 ;;  dividend        2    2[COMMON] int 
  1993 ;; Auto vars:     Size  Location     Type
  1994 ;;  quotient        2    7[COMMON] int 
  1995 ;;  sign            1    6[COMMON] unsigned char 
  1996 ;;  counter         1    5[COMMON] unsigned char 
  1997 ;; Return value:  Size  Location     Type
  1998 ;;                  2    0[COMMON] int 
  1999 ;; Registers used:
  2000 ;;		wreg, status,2, status,0
  2001 ;; Tracked objects:
  2002 ;;		On entry : 0/0
  2003 ;;		On exit  : 0/0
  2004 ;;		Unchanged: 0/0
  2005 ;; Data sizes:     COMMON   BANK0   BANK1   BANK2   BANK3   BANK4   BANK5   BANK6   BANK7   BANK8   BANK9  BANK10  BANK1
      +1  BANK12
  2006 ;;      Params:         4       0       0       0       0       0       0       0       0       0       0       0       
      +0       0
  2007 ;;      Locals:         4       0       0       0       0       0       0       0       0       0       0       0       
      +0       0
  2008 ;;      Temps:          1       0       0       0       0       0       0       0       0       0       0       0       
      +0       0
  2009 ;;      Totals:         9       0       0       0       0       0       0       0       0       0       0       0       
      +0       0
  2010 ;;Total ram usage:        9 bytes
  2011 ;; Hardware stack levels used: 1
  2012 ;; This function calls:
  2013 ;;		Nothing
  2014 ;; This function is called by:
  2015 ;;		_main
  2016 ;; This function uses a non-reentrant model
  2017 ;;
  2018                           
  2019  0702                     ___awdiv:	
  2020                           ;psect for function ___awdiv
  2021                           
  2022  0702                     l2386:	
  2023                           ;incstack = 0
  2024                           ; Regs used in ___awdiv: [wreg+status,2+status,0]
  2025                           
  2026  0702  01F6               	clrf	___awdiv@sign
  2027  0703                     l2388:
  2028  0703  1FF1               	btfss	___awdiv@divisor+1,7
  2029  0704  2F06               	goto	u751
  2030  0705  2F07               	goto	u750
  2031  0706                     u751:
  2032  0706  2F0E               	goto	l2394
  2033  0707                     u750:
  2034  0707                     l2390:
  2035  0707  09F0               	comf	___awdiv@divisor,f
  2036  0708  09F1               	comf	___awdiv@divisor+1,f
  2037  0709  0AF0               	incf	___awdiv@divisor,f
  2038  070A  1903               	skipnz
  2039  070B  0AF1               	incf	___awdiv@divisor+1,f
  2040  070C                     l2392:
  2041  070C  01F6               	clrf	___awdiv@sign
  2042  070D  0AF6               	incf	___awdiv@sign,f
  2043  070E                     l2394:
  2044  070E  1FF3               	btfss	___awdiv@dividend+1,7
  2045  070F  2F11               	goto	u761
  2046  0710  2F12               	goto	u760
  2047  0711                     u761:
  2048  0711  2F1B               	goto	l2400
  2049  0712                     u760:
  2050  0712                     l2396:
  2051  0712  09F2               	comf	___awdiv@dividend,f
  2052  0713  09F3               	comf	___awdiv@dividend+1,f
  2053  0714  0AF2               	incf	___awdiv@dividend,f
  2054  0715  1903               	skipnz
  2055  0716  0AF3               	incf	___awdiv@dividend+1,f
  2056  0717                     l2398:
  2057  0717  3001               	movlw	1
  2058  0718  00F4               	movwf	??___awdiv
  2059  0719  0874               	movf	??___awdiv,w
  2060  071A  06F6               	xorwf	___awdiv@sign,f
  2061  071B                     l2400:
  2062  071B  01F7               	clrf	___awdiv@quotient
  2063  071C  01F8               	clrf	___awdiv@quotient+1
  2064  071D                     l2402:
  2065  071D  0870               	movf	___awdiv@divisor,w
  2066  071E  0471               	iorwf	___awdiv@divisor+1,w
  2067  071F  1903               	btfsc	3,2
  2068  0720  2F22               	goto	u771
  2069  0721  2F23               	goto	u770
  2070  0722                     u771:
  2071  0722  2F52               	goto	l2422
  2072  0723                     u770:
  2073  0723                     l2404:
  2074  0723  01F5               	clrf	___awdiv@counter
  2075  0724  0AF5               	incf	___awdiv@counter,f
  2076  0725  2F2F               	goto	l2410
  2077  0726                     l2406:
  2078  0726  3001               	movlw	1
  2079  0727                     u785:
  2080  0727  35F0               	lslf	___awdiv@divisor,f
  2081  0728  0DF1               	rlf	___awdiv@divisor+1,f
  2082  0729  0B89               	decfsz	9,f
  2083  072A  2F27               	goto	u785
  2084  072B                     l2408:
  2085  072B  3001               	movlw	1
  2086  072C  00F4               	movwf	??___awdiv
  2087  072D  0874               	movf	??___awdiv,w
  2088  072E  07F5               	addwf	___awdiv@counter,f
  2089  072F                     l2410:
  2090  072F  1FF1               	btfss	___awdiv@divisor+1,7
  2091  0730  2F32               	goto	u791
  2092  0731  2F33               	goto	u790
  2093  0732                     u791:
  2094  0732  2F26               	goto	l2406
  2095  0733                     u790:
  2096  0733                     l2412:
  2097  0733  3001               	movlw	1
  2098  0734                     u805:
  2099  0734  35F7               	lslf	___awdiv@quotient,f
  2100  0735  0DF8               	rlf	___awdiv@quotient+1,f
  2101  0736  0B89               	decfsz	9,f
  2102  0737  2F34               	goto	u805
  2103  0738  0871               	movf	___awdiv@divisor+1,w
  2104  0739  0273               	subwf	___awdiv@dividend+1,w
  2105  073A  1D03               	skipz
  2106  073B  2F3E               	goto	u815
  2107  073C  0870               	movf	___awdiv@divisor,w
  2108  073D  0272               	subwf	___awdiv@dividend,w
  2109  073E                     u815:
  2110  073E  1C03               	skipc
  2111  073F  2F41               	goto	u811
  2112  0740  2F42               	goto	u810
  2113  0741                     u811:
  2114  0741  2F47               	goto	l2418
  2115  0742                     u810:
  2116  0742                     l2414:
  2117  0742  0870               	movf	___awdiv@divisor,w
  2118  0743  02F2               	subwf	___awdiv@dividend,f
  2119  0744  0871               	movf	___awdiv@divisor+1,w
  2120  0745  3BF3               	subwfb	___awdiv@dividend+1,f
  2121  0746                     l2416:
  2122  0746  1477               	bsf	___awdiv@quotient,0
  2123  0747                     l2418:
  2124  0747  3001               	movlw	1
  2125  0748                     u825:
  2126  0748  36F1               	lsrf	___awdiv@divisor+1,f
  2127  0749  0CF0               	rrf	___awdiv@divisor,f
  2128  074A  0B89               	decfsz	9,f
  2129  074B  2F48               	goto	u825
  2130  074C                     l2420:
  2131  074C  3001               	movlw	1
  2132  074D  02F5               	subwf	___awdiv@counter,f
  2133  074E  1D03               	btfss	3,2
  2134  074F  2F51               	goto	u831
  2135  0750  2F52               	goto	u830
  2136  0751                     u831:
  2137  0751  2F33               	goto	l2412
  2138  0752                     u830:
  2139  0752                     l2422:
  2140  0752  0876               	movf	___awdiv@sign,w
  2141  0753  1903               	btfsc	3,2
  2142  0754  2F56               	goto	u841
  2143  0755  2F57               	goto	u840
  2144  0756                     u841:
  2145  0756  2F5C               	goto	l2426
  2146  0757                     u840:
  2147  0757                     l2424:
  2148  0757  09F7               	comf	___awdiv@quotient,f
  2149  0758  09F8               	comf	___awdiv@quotient+1,f
  2150  0759  0AF7               	incf	___awdiv@quotient,f
  2151  075A  1903               	skipnz
  2152  075B  0AF8               	incf	___awdiv@quotient+1,f
  2153  075C                     l2426:
  2154  075C  0878               	movf	___awdiv@quotient+1,w
  2155  075D  00F1               	movwf	?___awdiv+1
  2156  075E  0877               	movf	___awdiv@quotient,w
  2157  075F  00F0               	movwf	?___awdiv
  2158  0760                     l837:
  2159  0760  0008               	return
  2160  0761                     __end_of___awdiv:
  2161                           
  2162                           	psect	text3
  2163  041A                     __ptext3:	
  2164 ;; *************** function _SYSTEM_Initialize *****************
  2165 ;; Defined at:
  2166 ;;		line 4 in file "mcc_generated_files/mcc.c"
  2167 ;; Parameters:    Size  Location     Type
  2168 ;;		None
  2169 ;; Auto vars:     Size  Location     Type
  2170 ;;		None
  2171 ;; Return value:  Size  Location     Type
  2172 ;;                  1    wreg      void 
  2173 ;; Registers used:
  2174 ;;		wreg, status,2, status,0, pclath, cstack
  2175 ;; Tracked objects:
  2176 ;;		On entry : 0/0
  2177 ;;		On exit  : 0/0
  2178 ;;		Unchanged: 0/0
  2179 ;; Data sizes:     COMMON   BANK0   BANK1   BANK2   BANK3   BANK4   BANK5   BANK6   BANK7   BANK8   BANK9  BANK10  BANK1
      +1  BANK12
  2180 ;;      Params:         0       0       0       0       0       0       0       0       0       0       0       0       
      +0       0
  2181 ;;      Locals:         0       0       0       0       0       0       0       0       0       0       0       0       
      +0       0
  2182 ;;      Temps:          0       0       0       0       0       0       0       0       0       0       0       0       
      +0       0
  2183 ;;      Totals:         0       0       0       0       0       0       0       0       0       0       0       0       
      +0       0
  2184 ;;Total ram usage:        0 bytes
  2185 ;; Hardware stack levels used: 1
  2186 ;; Hardware stack levels required when called: 1
  2187 ;; This function calls:
  2188 ;;		_I2C_Initialize
  2189 ;;		_OSCILLATOR_Initialize
  2190 ;;		_PIN_MANAGER_Initialize
  2191 ;;		_WDT_Initialize
  2192 ;; This function is called by:
  2193 ;;		_main
  2194 ;; This function uses a non-reentrant model
  2195 ;;
  2196                           
  2197  041A                     _SYSTEM_Initialize:	
  2198                           ;psect for function _SYSTEM_Initialize
  2199                           
  2200  041A                     l2356:	
  2201                           ;incstack = 0
  2202                           ; Regs used in _SYSTEM_Initialize: [wreg+status,2+status,0+pclath+cstack]
  2203                           
  2204                           
  2205                           ;mcc_generated_files/mcc.c: 7:     I2C_Initialize();
  2206  041A  3183  23D1  3184   	fcall	_I2C_Initialize
  2207                           
  2208                           ;mcc_generated_files/mcc.c: 8:     PIN_MANAGER_Initialize();
  2209  041D  3184  24DC  3184   	fcall	_PIN_MANAGER_Initialize
  2210                           
  2211                           ;mcc_generated_files/mcc.c: 9:     OSCILLATOR_Initialize();
  2212  0420  3183  23DA  3184   	fcall	_OSCILLATOR_Initialize
  2213                           
  2214                           ;mcc_generated_files/mcc.c: 10:     WDT_Initialize();
  2215  0423  3183  2367  3184   	fcall	_WDT_Initialize
  2216  0426                     l525:
  2217  0426  0008               	return
  2218  0427                     __end_of_SYSTEM_Initialize:
  2219                           
  2220                           	psect	text4
  2221  0367                     __ptext4:	
  2222 ;; *************** function _WDT_Initialize *****************
  2223 ;; Defined at:
  2224 ;;		line 27 in file "mcc_generated_files/mcc.c"
  2225 ;; Parameters:    Size  Location     Type
  2226 ;;		None
  2227 ;; Auto vars:     Size  Location     Type
  2228 ;;		None
  2229 ;; Return value:  Size  Location     Type
  2230 ;;                  1    wreg      void 
  2231 ;; Registers used:
  2232 ;;		wreg
  2233 ;; Tracked objects:
  2234 ;;		On entry : 0/0
  2235 ;;		On exit  : 0/0
  2236 ;;		Unchanged: 0/0
  2237 ;; Data sizes:     COMMON   BANK0   BANK1   BANK2   BANK3   BANK4   BANK5   BANK6   BANK7   BANK8   BANK9  BANK10  BANK1
      +1  BANK12
  2238 ;;      Params:         0       0       0       0       0       0       0       0       0       0       0       0       
      +0       0
  2239 ;;      Locals:         0       0       0       0       0       0       0       0       0       0       0       0       
      +0       0
  2240 ;;      Temps:          0       0       0       0       0       0       0       0       0       0       0       0       
      +0       0
  2241 ;;      Totals:         0       0       0       0       0       0       0       0       0       0       0       0       
      +0       0
  2242 ;;Total ram usage:        0 bytes
  2243 ;; Hardware stack levels used: 1
  2244 ;; This function calls:
  2245 ;;		Nothing
  2246 ;; This function is called by:
  2247 ;;		_SYSTEM_Initialize
  2248 ;; This function uses a non-reentrant model
  2249 ;;
  2250                           
  2251  0367                     _WDT_Initialize:	
  2252                           ;psect for function _WDT_Initialize
  2253                           
  2254  0367                     l2354:	
  2255                           ;incstack = 0
  2256                           ; Regs used in _WDT_Initialize: [wreg]
  2257                           
  2258                           
  2259                           ;mcc_generated_files/mcc.c: 30:     WDTCON = 0x16;
  2260  0367  3016               	movlw	22
  2261  0368  0021               	movlb	1	; select bank1
  2262  0369  0097               	movwf	23	;volatile
  2263  036A                     l534:
  2264  036A  0008               	return
  2265  036B                     __end_of_WDT_Initialize:
  2266                           
  2267                           	psect	text5
  2268  04DC                     __ptext5:	
  2269 ;; *************** function _PIN_MANAGER_Initialize *****************
  2270 ;; Defined at:
  2271 ;;		line 3 in file "mcc_generated_files/pin_manager.c"
  2272 ;; Parameters:    Size  Location     Type
  2273 ;;		None
  2274 ;; Auto vars:     Size  Location     Type
  2275 ;;		None
  2276 ;; Return value:  Size  Location     Type
  2277 ;;                  1    wreg      void 
  2278 ;; Registers used:
  2279 ;;		wreg, status,2
  2280 ;; Tracked objects:
  2281 ;;		On entry : 0/0
  2282 ;;		On exit  : 0/0
  2283 ;;		Unchanged: 0/0
  2284 ;; Data sizes:     COMMON   BANK0   BANK1   BANK2   BANK3   BANK4   BANK5   BANK6   BANK7   BANK8   BANK9  BANK10  BANK1
      +1  BANK12
  2285 ;;      Params:         0       0       0       0       0       0       0       0       0       0       0       0       
      +0       0
  2286 ;;      Locals:         0       0       0       0       0       0       0       0       0       0       0       0       
      +0       0
  2287 ;;      Temps:          0       0       0       0       0       0       0       0       0       0       0       0       
      +0       0
  2288 ;;      Totals:         0       0       0       0       0       0       0       0       0       0       0       0       
      +0       0
  2289 ;;Total ram usage:        0 bytes
  2290 ;; Hardware stack levels used: 1
  2291 ;; This function calls:
  2292 ;;		Nothing
  2293 ;; This function is called by:
  2294 ;;		_SYSTEM_Initialize
  2295 ;; This function uses a non-reentrant model
  2296 ;;
  2297                           
  2298  04DC                     _PIN_MANAGER_Initialize:	
  2299                           ;psect for function _PIN_MANAGER_Initialize
  2300                           
  2301  04DC                     l2252:	
  2302                           ;incstack = 0
  2303                           ; Regs used in _PIN_MANAGER_Initialize: [wreg+status,2]
  2304                           
  2305                           
  2306                           ;mcc_generated_files/pin_manager.c: 8:     LATE = 0x00;
  2307  04DC  0022               	movlb	2	; select bank2
  2308  04DD  0190               	clrf	16	;volatile
  2309                           
  2310                           ;mcc_generated_files/pin_manager.c: 9:     LATD = 0x00;
  2311  04DE  018F               	clrf	15	;volatile
  2312                           
  2313                           ;mcc_generated_files/pin_manager.c: 10:     LATA = 0x00;
  2314  04DF  018C               	clrf	12	;volatile
  2315                           
  2316                           ;mcc_generated_files/pin_manager.c: 11:     LATB = 0x00;
  2317  04E0  018D               	clrf	13	;volatile
  2318                           
  2319                           ;mcc_generated_files/pin_manager.c: 12:     LATC = 0x00;
  2320  04E1  018E               	clrf	14	;volatile
  2321  04E2                     l2254:
  2322                           
  2323                           ;mcc_generated_files/pin_manager.c: 17:     TRISE = 0x0F;
  2324  04E2  300F               	movlw	15
  2325  04E3  0021               	movlb	1	; select bank1
  2326  04E4  0090               	movwf	16	;volatile
  2327  04E5                     l2256:
  2328                           
  2329                           ;mcc_generated_files/pin_manager.c: 18:     TRISA = 0xFF;
  2330  04E5  30FF               	movlw	255
  2331  04E6  008C               	movwf	12	;volatile
  2332  04E7                     l2258:
  2333                           
  2334                           ;mcc_generated_files/pin_manager.c: 19:     TRISB = 0xFE;
  2335  04E7  30FE               	movlw	254
  2336  04E8  008D               	movwf	13	;volatile
  2337  04E9                     l2260:
  2338                           
  2339                           ;mcc_generated_files/pin_manager.c: 20:     TRISC = 0xFF;
  2340  04E9  30FF               	movlw	255
  2341  04EA  008E               	movwf	14	;volatile
  2342  04EB                     l2262:
  2343                           
  2344                           ;mcc_generated_files/pin_manager.c: 21:     TRISD = 0xFF;
  2345  04EB  30FF               	movlw	255
  2346  04EC  008F               	movwf	15	;volatile
  2347  04ED                     l2264:
  2348                           
  2349                           ;mcc_generated_files/pin_manager.c: 26:     ANSELD = 0xFF;
  2350  04ED  30FF               	movlw	255
  2351  04EE  0023               	movlb	3	; select bank3
  2352  04EF  008F               	movwf	15	;volatile
  2353  04F0                     l2266:
  2354                           
  2355                           ;mcc_generated_files/pin_manager.c: 27:     ANSELB = 0x3F;
  2356  04F0  303F               	movlw	63
  2357  04F1  008D               	movwf	13	;volatile
  2358  04F2                     l2268:
  2359                           
  2360                           ;mcc_generated_files/pin_manager.c: 28:     ANSELE = 0x07;
  2361  04F2  3007               	movlw	7
  2362  04F3  0090               	movwf	16	;volatile
  2363  04F4                     l2270:
  2364                           
  2365                           ;mcc_generated_files/pin_manager.c: 29:     ANSELA = 0x3F;
  2366  04F4  303F               	movlw	63
  2367  04F5  008C               	movwf	12	;volatile
  2368  04F6                     l2272:
  2369                           
  2370                           ;mcc_generated_files/pin_manager.c: 34:     WPUE = 0x00;
  2371  04F6  0024               	movlb	4	; select bank4
  2372  04F7  0190               	clrf	16	;volatile
  2373  04F8                     l2274:
  2374                           
  2375                           ;mcc_generated_files/pin_manager.c: 35:     WPUB = 0x00;
  2376  04F8  018D               	clrf	13	;volatile
  2377  04F9                     l2276:
  2378                           
  2379                           ;mcc_generated_files/pin_manager.c: 36:     OPTION_REGbits.nWPUEN = 1;
  2380  04F9  0021               	movlb	1	; select bank1
  2381  04FA  1795               	bsf	21,7	;volatile
  2382  04FB                     l2278:
  2383                           
  2384                           ;mcc_generated_files/pin_manager.c: 41:     APFCON = 0x00;
  2385  04FB  0022               	movlb	2	; select bank2
  2386  04FC  019D               	clrf	29	;volatile
  2387  04FD                     l69:
  2388  04FD  0008               	return
  2389  04FE                     __end_of_PIN_MANAGER_Initialize:
  2390                           
  2391                           	psect	text6
  2392  03DA                     __ptext6:	
  2393 ;; *************** function _OSCILLATOR_Initialize *****************
  2394 ;; Defined at:
  2395 ;;		line 13 in file "mcc_generated_files/mcc.c"
  2396 ;; Parameters:    Size  Location     Type
  2397 ;;		None
  2398 ;; Auto vars:     Size  Location     Type
  2399 ;;		None
  2400 ;; Return value:  Size  Location     Type
  2401 ;;                  1    wreg      void 
  2402 ;; Registers used:
  2403 ;;		wreg, status,2
  2404 ;; Tracked objects:
  2405 ;;		On entry : 0/0
  2406 ;;		On exit  : 0/0
  2407 ;;		Unchanged: 0/0
  2408 ;; Data sizes:     COMMON   BANK0   BANK1   BANK2   BANK3   BANK4   BANK5   BANK6   BANK7   BANK8   BANK9  BANK10  BANK1
      +1  BANK12
  2409 ;;      Params:         0       0       0       0       0       0       0       0       0       0       0       0       
      +0       0
  2410 ;;      Locals:         0       0       0       0       0       0       0       0       0       0       0       0       
      +0       0
  2411 ;;      Temps:          0       0       0       0       0       0       0       0       0       0       0       0       
      +0       0
  2412 ;;      Totals:         0       0       0       0       0       0       0       0       0       0       0       0       
      +0       0
  2413 ;;Total ram usage:        0 bytes
  2414 ;; Hardware stack levels used: 1
  2415 ;; This function calls:
  2416 ;;		Nothing
  2417 ;; This function is called by:
  2418 ;;		_SYSTEM_Initialize
  2419 ;; This function uses a non-reentrant model
  2420 ;;
  2421                           
  2422  03DA                     _OSCILLATOR_Initialize:	
  2423                           ;psect for function _OSCILLATOR_Initialize
  2424                           
  2425  03DA                     l2348:	
  2426                           ;incstack = 0
  2427                           ; Regs used in _OSCILLATOR_Initialize: [wreg+status,2]
  2428                           
  2429                           
  2430                           ;mcc_generated_files/mcc.c: 16:     OSCCON = 0x70;
  2431  03DA  3070               	movlw	112
  2432  03DB  0021               	movlb	1	; select bank1
  2433  03DC  0099               	movwf	25	;volatile
  2434  03DD                     l2350:
  2435                           
  2436                           ;mcc_generated_files/mcc.c: 18:     OSCTUNE = 0x00;
  2437  03DD  0198               	clrf	24	;volatile
  2438  03DE                     l2352:
  2439                           
  2440                           ;mcc_generated_files/mcc.c: 20:     BORCON = 0x00;
  2441  03DE  0022               	movlb	2	; select bank2
  2442  03DF  0196               	clrf	22	;volatile
  2443  03E0                     l528:	
  2444                           ;mcc_generated_files/mcc.c: 23:     {;mcc_generated_files/mcc.c: 24:     }
  2445                           
  2446                           
  2447                           ;mcc_generated_files/mcc.c: 22:     while(PLLR == 0)
  2448  03E0  0021               	movlb	1	; select bank1
  2449  03E1  1F1A               	btfss	26,6	;volatile
  2450  03E2  2BE4               	goto	u701
  2451  03E3  2BE5               	goto	u700
  2452  03E4                     u701:
  2453  03E4  2BE0               	goto	l528
  2454  03E5                     u700:
  2455  03E5                     l531:
  2456  03E5  0008               	return
  2457  03E6                     __end_of_OSCILLATOR_Initialize:
  2458                           
  2459                           	psect	text7
  2460  03D1                     __ptext7:	
  2461 ;; *************** function _I2C_Initialize *****************
  2462 ;; Defined at:
  2463 ;;		line 121 in file "mcc_generated_files/i2c_master.c"
  2464 ;; Parameters:    Size  Location     Type
  2465 ;;		None
  2466 ;; Auto vars:     Size  Location     Type
  2467 ;;		None
  2468 ;; Return value:  Size  Location     Type
  2469 ;;                  1    wreg      void 
  2470 ;; Registers used:
  2471 ;;		wreg, status,2
  2472 ;; Tracked objects:
  2473 ;;		On entry : 0/0
  2474 ;;		On exit  : 0/0
  2475 ;;		Unchanged: 0/0
  2476 ;; Data sizes:     COMMON   BANK0   BANK1   BANK2   BANK3   BANK4   BANK5   BANK6   BANK7   BANK8   BANK9  BANK10  BANK1
      +1  BANK12
  2477 ;;      Params:         0       0       0       0       0       0       0       0       0       0       0       0       
      +0       0
  2478 ;;      Locals:         0       0       0       0       0       0       0       0       0       0       0       0       
      +0       0
  2479 ;;      Temps:          0       0       0       0       0       0       0       0       0       0       0       0       
      +0       0
  2480 ;;      Totals:         0       0       0       0       0       0       0       0       0       0       0       0       
      +0       0
  2481 ;;Total ram usage:        0 bytes
  2482 ;; Hardware stack levels used: 1
  2483 ;; This function calls:
  2484 ;;		Nothing
  2485 ;; This function is called by:
  2486 ;;		_SYSTEM_Initialize
  2487 ;; This function uses a non-reentrant model
  2488 ;;
  2489                           
  2490  03D1                     _I2C_Initialize:	
  2491                           ;psect for function _I2C_Initialize
  2492                           
  2493  03D1                     l2280:	
  2494                           ;incstack = 0
  2495                           ; Regs used in _I2C_Initialize: [wreg+status,2]
  2496                           
  2497                           
  2498                           ;mcc_generated_files/i2c_master.c: 123:     SSPSTAT = 0x00;
  2499  03D1  0024               	movlb	4	; select bank4
  2500  03D2  0194               	clrf	20	;volatile
  2501  03D3                     l2282:
  2502                           
  2503                           ;mcc_generated_files/i2c_master.c: 124:     SSPCON1 = 0x08;
  2504  03D3  3008               	movlw	8
  2505  03D4  0095               	movwf	21	;volatile
  2506  03D5                     l2284:
  2507                           
  2508                           ;mcc_generated_files/i2c_master.c: 125:     SSPCON2 = 0x00;
  2509  03D5  0196               	clrf	22	;volatile
  2510                           
  2511                           ;mcc_generated_files/i2c_master.c: 126:     SSPADD = 0x4F;
  2512  03D6  304F               	movlw	79
  2513  03D7  0092               	movwf	18	;volatile
  2514  03D8                     l2286:
  2515                           
  2516                           ;mcc_generated_files/i2c_master.c: 127:     SSPCON1bits.SSPEN = 0;
  2517  03D8  1295               	bcf	21,5	;volatile
  2518  03D9                     l187:
  2519  03D9  0008               	return
  2520  03DA                     __end_of_I2C_Initialize:
  2521                           
  2522                           	psect	text8
  2523  05AA                     __ptext8:	
  2524 ;; *************** function _I2C_Write1ByteRegister *****************
  2525 ;; Defined at:
  2526 ;;		line 674 in file "mcc_generated_files/i2c_master.c"
  2527 ;; Parameters:    Size  Location     Type
  2528 ;;  address         1    wreg     unsigned char 
  2529 ;;  reg             1   10[COMMON] unsigned char 
  2530 ;;  data            1   11[COMMON] unsigned char 
  2531 ;; Auto vars:     Size  Location     Type
  2532 ;;  address         1   13[COMMON] unsigned char 
  2533 ;; Return value:  Size  Location     Type
  2534 ;;                  1    wreg      void 
  2535 ;; Registers used:
  2536 ;;		wreg, fsr0l, fsr0h, fsr1l, fsr1h, status,2, status,0, pclath, cstack
  2537 ;; Tracked objects:
  2538 ;;		On entry : 0/0
  2539 ;;		On exit  : 0/0
  2540 ;;		Unchanged: 0/0
  2541 ;; Data sizes:     COMMON   BANK0   BANK1   BANK2   BANK3   BANK4   BANK5   BANK6   BANK7   BANK8   BANK9  BANK10  BANK1
      +1  BANK12
  2542 ;;      Params:         2       0       0       0       0       0       0       0       0       0       0       0       
      +0       0
  2543 ;;      Locals:         1       0       0       0       0       0       0       0       0       0       0       0       
      +0       0
  2544 ;;      Temps:          1       0       0       0       0       0       0       0       0       0       0       0       
      +0       0
  2545 ;;      Totals:         4       0       0       0       0       0       0       0       0       0       0       0       
      +0       0
  2546 ;;Total ram usage:        4 bytes
  2547 ;; Hardware stack levels used: 1
  2548 ;; Hardware stack levels required when called: 8
  2549 ;; This function calls:
  2550 ;;		_I2C_Close
  2551 ;;		_I2C_MasterWrite
  2552 ;;		_I2C_Open
  2553 ;;		_I2C_SetAddressNackCallback
  2554 ;;		_I2C_SetBuffer
  2555 ;;		_I2C_SetDataCompleteCallback
  2556 ;; This function is called by:
  2557 ;;		_main
  2558 ;; This function uses a non-reentrant model
  2559 ;;
  2560                           
  2561  05AA                     _I2C_Write1ByteRegister:	
  2562                           ;psect for function _I2C_Write1ByteRegister
  2563                           
  2564                           
  2565                           ;incstack = 0
  2566                           ; Regs used in _I2C_Write1ByteRegister: [wreg-fsr1h+status,2+status,0+pclath+cstack]
  2567                           ;I2C_Write1ByteRegister@address stored from wreg
  2568  05AA  00FD               	movwf	I2C_Write1ByteRegister@address
  2569  05AB                     l2358:
  2570  05AB                     l2360:	
  2571                           ;mcc_generated_files/i2c_master.c: 674: void I2C_Write1ByteRegister(i2c_address_t addres
      +                          s, uint8_t reg, uint8_t data);mcc_generated_files/i2c_master.c: 675: {;mcc_generated_fil
      +                          es/i2c_master.c: 676:     while(!I2C_Open(address));
  2572                           
  2573  05AB  087D               	movf	I2C_Write1ByteRegister@address,w
  2574  05AC  3185  25DA  3185   	fcall	_I2C_Open
  2575  05AF  3A00               	xorlw	0
  2576  05B0  1903               	skipnz
  2577  05B1  2DB3               	goto	u711
  2578  05B2  2DB4               	goto	u710
  2579  05B3                     u711:
  2580  05B3  2DAB               	goto	l2360
  2581  05B4                     u710:
  2582  05B4                     l2362:
  2583                           
  2584                           ;mcc_generated_files/i2c_master.c: 677:     I2C_SetDataCompleteCallback(wr1RegCompleteHa
      +                          ndler,&data);
  2585  05B4  3059               	movlw	low _wr1RegCompleteHandler
  2586  05B5  00F5               	movwf	I2C_SetDataCompleteCallback@cb
  2587  05B6  3004               	movlw	high _wr1RegCompleteHandler
  2588  05B7  00F6               	movwf	I2C_SetDataCompleteCallback@cb+1
  2589  05B8  307B               	movlw	(low (I2C_Write1ByteRegister@data| 0))& (0+255)
  2590  05B9  00FC               	movwf	??_I2C_Write1ByteRegister
  2591  05BA  087C               	movf	??_I2C_Write1ByteRegister,w
  2592  05BB  00F7               	movwf	I2C_SetDataCompleteCallback@ptr
  2593  05BC  3183  23E6  3185   	fcall	_I2C_SetDataCompleteCallback
  2594  05BF                     l2364:
  2595                           
  2596                           ;mcc_generated_files/i2c_master.c: 678:     I2C_SetBuffer(&reg,1);
  2597  05BF  3001               	movlw	1
  2598  05C0  00F0               	movwf	I2C_SetBuffer@bufferSize
  2599  05C1  3000               	movlw	0
  2600  05C2  00F1               	movwf	I2C_SetBuffer@bufferSize+1
  2601  05C3  307A               	movlw	(low (I2C_Write1ByteRegister@reg| 0))& (0+255)
  2602  05C4  3184  2427  3185   	fcall	_I2C_SetBuffer
  2603  05C7                     l2366:
  2604                           
  2605                           ;mcc_generated_files/i2c_master.c: 679:     I2C_SetAddressNackCallback(((void*)0),((void
      +                          *)0));
  2606  05C7  3000               	movlw	0
  2607  05C8  00F5               	movwf	I2C_SetAddressNackCallback@cb
  2608  05C9  00F6               	movwf	I2C_SetAddressNackCallback@cb+1
  2609  05CA  01F7               	clrf	I2C_SetAddressNackCallback@ptr
  2610  05CB  3184  240D  3185   	fcall	_I2C_SetAddressNackCallback
  2611  05CE                     l2368:
  2612                           
  2613                           ;mcc_generated_files/i2c_master.c: 680:     I2C_MasterWrite();
  2614  05CE  3183  23A2  3185   	fcall	_I2C_MasterWrite
  2615  05D1                     l2370:	
  2616                           ;mcc_generated_files/i2c_master.c: 681:     while(I2C_BUSY == I2C_Close());
  2617                           
  2618  05D1  3184  2482  3185   	fcall	_I2C_Close
  2619  05D4  3A01               	xorlw	1
  2620  05D5  1903               	skipnz
  2621  05D6  2DD8               	goto	u721
  2622  05D7  2DD9               	goto	u720
  2623  05D8                     u721:
  2624  05D8  2DD1               	goto	l2370
  2625  05D9                     u720:
  2626  05D9                     l453:
  2627  05D9  0008               	return
  2628  05DA                     __end_of_I2C_Write1ByteRegister:
  2629                           
  2630                           	psect	text9
  2631  040D                     __ptext9:	
  2632 ;; *************** function _I2C_SetAddressNackCallback *****************
  2633 ;; Defined at:
  2634 ;;		line 237 in file "mcc_generated_files/i2c_master.c"
  2635 ;; Parameters:    Size  Location     Type
  2636 ;;  cb              2    5[COMMON] PTR FTN(PTR void ,)enum 
  2637 ;;		 -> Absolute function(1), 
  2638 ;;  ptr             1    7[COMMON] PTR void 
  2639 ;;		 -> NULL(0), 
  2640 ;; Auto vars:     Size  Location     Type
  2641 ;;		None
  2642 ;; Return value:  Size  Location     Type
  2643 ;;                  1    wreg      void 
  2644 ;; Registers used:
  2645 ;;		wreg, fsr1l, fsr1h, status,2, status,0, pclath, cstack
  2646 ;; Tracked objects:
  2647 ;;		On entry : 0/0
  2648 ;;		On exit  : 0/0
  2649 ;;		Unchanged: 0/0
  2650 ;; Data sizes:     COMMON   BANK0   BANK1   BANK2   BANK3   BANK4   BANK5   BANK6   BANK7   BANK8   BANK9  BANK10  BANK1
      +1  BANK12
  2651 ;;      Params:         3       0       0       0       0       0       0       0       0       0       0       0       
      +0       0
  2652 ;;      Locals:         0       0       0       0       0       0       0       0       0       0       0       0       
      +0       0
  2653 ;;      Temps:          1       0       0       0       0       0       0       0       0       0       0       0       
      +0       0
  2654 ;;      Totals:         4       0       0       0       0       0       0       0       0       0       0       0       
      +0       0
  2655 ;;Total ram usage:        4 bytes
  2656 ;; Hardware stack levels used: 1
  2657 ;; Hardware stack levels required when called: 1
  2658 ;; This function calls:
  2659 ;;		_I2C_SetCallback
  2660 ;; This function is called by:
  2661 ;;		_I2C_Write1ByteRegister
  2662 ;;		_I2C_Read1ByteRegister
  2663 ;;		_I2C_Read2ByteRegister
  2664 ;;		_I2C_Write2ByteRegister
  2665 ;;		_I2C_WriteNBytes
  2666 ;;		_I2C_ReadDataBlock
  2667 ;; This function uses a non-reentrant model
  2668 ;;
  2669                           
  2670  040D                     _I2C_SetAddressNackCallback:	
  2671                           ;psect for function _I2C_SetAddressNackCallback
  2672                           
  2673  040D                     l2346:	
  2674                           ;incstack = 0
  2675                           ; Regs used in _I2C_SetAddressNackCallback: [wreg+fsr1l+fsr1h+status,2+status,0+pclath+c
      +                          stack]
  2676                           
  2677                           
  2678                           ;mcc_generated_files/i2c_master.c: 237: void I2C_SetAddressNackCallback(i2c_callback_t c
      +                          b, void *ptr);mcc_generated_files/i2c_master.c: 238: {;mcc_generated_files/i2c_master.c:
      +                           239:     I2C_SetCallback(I2C_ADDR_NACK, cb, ptr);
  2679  040D  0876               	movf	I2C_SetAddressNackCallback@cb+1,w
  2680  040E  00F1               	movwf	I2C_SetCallback@cb+1
  2681  040F  0875               	movf	I2C_SetAddressNackCallback@cb,w
  2682  0410  00F0               	movwf	I2C_SetCallback@cb
  2683  0411  0877               	movf	I2C_SetAddressNackCallback@ptr,w
  2684  0412  00F8               	movwf	??_I2C_SetAddressNackCallback
  2685  0413  0878               	movf	??_I2C_SetAddressNackCallback,w
  2686  0414  00F2               	movwf	I2C_SetCallback@ptr
  2687  0415  3002               	movlw	2
  2688  0416  3184  24FE  3184   	fcall	_I2C_SetCallback
  2689  0419                     l223:
  2690  0419  0008               	return
  2691  041A                     __end_of_I2C_SetAddressNackCallback:
  2692                           
  2693                           	psect	text10
  2694  03A2                     __ptext10:	
  2695 ;; *************** function _I2C_MasterWrite *****************
  2696 ;; Defined at:
  2697 ;;		line 205 in file "mcc_generated_files/i2c_master.c"
  2698 ;; Parameters:    Size  Location     Type
  2699 ;;		None
  2700 ;; Auto vars:     Size  Location     Type
  2701 ;;		None
  2702 ;; Return value:  Size  Location     Type
  2703 ;;                  1    wreg      enum E355
  2704 ;; Registers used:
  2705 ;;		wreg, fsr0l, fsr0h, fsr1l, fsr1h, status,2, status,0, pclath, cstack
  2706 ;; Tracked objects:
  2707 ;;		On entry : 0/0
  2708 ;;		On exit  : 0/0
  2709 ;;		Unchanged: 0/0
  2710 ;; Data sizes:     COMMON   BANK0   BANK1   BANK2   BANK3   BANK4   BANK5   BANK6   BANK7   BANK8   BANK9  BANK10  BANK1
      +1  BANK12
  2711 ;;      Params:         0       0       0       0       0       0       0       0       0       0       0       0       
      +0       0
  2712 ;;      Locals:         0       0       0       0       0       0       0       0       0       0       0       0       
      +0       0
  2713 ;;      Temps:          0       0       0       0       0       0       0       0       0       0       0       0       
      +0       0
  2714 ;;      Totals:         0       0       0       0       0       0       0       0       0       0       0       0       
      +0       0
  2715 ;;Total ram usage:        0 bytes
  2716 ;; Hardware stack levels used: 1
  2717 ;; Hardware stack levels required when called: 7
  2718 ;; This function calls:
  2719 ;;		_I2C_MasterOperation
  2720 ;; This function is called by:
  2721 ;;		_I2C_Write1ByteRegister
  2722 ;;		_I2C_Read1ByteRegister
  2723 ;;		_I2C_Read2ByteRegister
  2724 ;;		_I2C_Write2ByteRegister
  2725 ;;		_I2C_WriteNBytes
  2726 ;;		_I2C_ReadDataBlock
  2727 ;; This function uses a non-reentrant model
  2728 ;;
  2729                           
  2730  03A2                     _I2C_MasterWrite:	
  2731                           ;psect for function _I2C_MasterWrite
  2732                           
  2733  03A2                     l2342:	
  2734                           ;incstack = 0
  2735                           ; Regs used in _I2C_MasterWrite: [wreg-fsr1h+status,2+status,0+pclath+cstack]
  2736                           
  2737                           
  2738                           ;mcc_generated_files/i2c_master.c: 207:     return I2C_MasterOperation(0);;	Return value
      +                           of _I2C_MasterWrite is never used
  2739  03A2  3000               	movlw	0
  2740  03A3  3184  249E  3183   	fcall	_I2C_MasterOperation
  2741  03A6                     l207:
  2742  03A6  0008               	return
  2743  03A7                     __end_of_I2C_MasterWrite:
  2744                           
  2745                           	psect	text11
  2746  04BC                     __ptext11:	
  2747 ;; *************** function _I2C_Rd *****************
  2748 ;; Defined at:
  2749 ;;		line 634 in file "mcc_generated_files/i2c_master.c"
  2750 ;; Parameters:    Size  Location     Type
  2751 ;;  address         1    wreg     unsigned char 
  2752 ;; Auto vars:     Size  Location     Type
  2753 ;;  address         1   10[COMMON] unsigned char 
  2754 ;;  returnValue     1   11[COMMON] unsigned char 
  2755 ;; Return value:  Size  Location     Type
  2756 ;;                  1    wreg      unsigned char 
  2757 ;; Registers used:
  2758 ;;		wreg, fsr0l, fsr0h, fsr1l, fsr1h, status,2, status,0, pclath, cstack
  2759 ;; Tracked objects:
  2760 ;;		On entry : 0/0
  2761 ;;		On exit  : 0/0
  2762 ;;		Unchanged: 0/0
  2763 ;; Data sizes:     COMMON   BANK0   BANK1   BANK2   BANK3   BANK4   BANK5   BANK6   BANK7   BANK8   BANK9  BANK10  BANK1
      +1  BANK12
  2764 ;;      Params:         0       0       0       0       0       0       0       0       0       0       0       0       
      +0       0
  2765 ;;      Locals:         2       0       0       0       0       0       0       0       0       0       0       0       
      +0       0
  2766 ;;      Temps:          0       0       0       0       0       0       0       0       0       0       0       0       
      +0       0
  2767 ;;      Totals:         2       0       0       0       0       0       0       0       0       0       0       0       
      +0       0
  2768 ;;Total ram usage:        2 bytes
  2769 ;; Hardware stack levels used: 1
  2770 ;; Hardware stack levels required when called: 8
  2771 ;; This function calls:
  2772 ;;		_I2C_Close
  2773 ;;		_I2C_MasterRead
  2774 ;;		_I2C_Open
  2775 ;;		_I2C_SetBuffer
  2776 ;; This function is called by:
  2777 ;;		_main
  2778 ;; This function uses a non-reentrant model
  2779 ;;
  2780                           
  2781  04BC                     _I2C_Rd:	
  2782                           ;psect for function _I2C_Rd
  2783                           
  2784                           
  2785                           ;incstack = 0
  2786                           ; Regs used in _I2C_Rd: [wreg-fsr1h+status,2+status,0+pclath+cstack]
  2787                           ;I2C_Rd@address stored from wreg
  2788  04BC  00FA               	movwf	I2C_Rd@address
  2789  04BD                     l2372:
  2790                           
  2791                           ;mcc_generated_files/i2c_master.c: 635:     uint8_t returnValue = 0x00;
  2792  04BD  01FB               	clrf	I2C_Rd@returnValue
  2793  04BE                     l2374:	
  2794                           ;mcc_generated_files/i2c_master.c: 637:     while(!I2C_Open(address));
  2795                           
  2796  04BE  087A               	movf	I2C_Rd@address,w
  2797  04BF  3185  25DA  3184   	fcall	_I2C_Open
  2798  04C2  3A00               	xorlw	0
  2799  04C3  1903               	skipnz
  2800  04C4  2CC6               	goto	u731
  2801  04C5  2CC7               	goto	u730
  2802  04C6                     u731:
  2803  04C6  2CBE               	goto	l2374
  2804  04C7                     u730:
  2805  04C7                     l2376:
  2806                           
  2807                           ;mcc_generated_files/i2c_master.c: 638:     I2C_SetBuffer(&returnValue,1);
  2808  04C7  3001               	movlw	1
  2809  04C8  00F0               	movwf	I2C_SetBuffer@bufferSize
  2810  04C9  3000               	movlw	0
  2811  04CA  00F1               	movwf	I2C_SetBuffer@bufferSize+1
  2812  04CB  307B               	movlw	(low (I2C_Rd@returnValue| 0))& (0+255)
  2813  04CC  3184  2427  3184   	fcall	_I2C_SetBuffer
  2814  04CF                     l2378:
  2815                           
  2816                           ;mcc_generated_files/i2c_master.c: 639:     I2C_MasterRead();
  2817  04CF  3183  239D  3184   	fcall	_I2C_MasterRead
  2818  04D2                     l2380:	
  2819                           ;mcc_generated_files/i2c_master.c: 640:     while(I2C_BUSY == I2C_Close());
  2820                           
  2821  04D2  3184  2482  3184   	fcall	_I2C_Close
  2822  04D5  3A01               	xorlw	1
  2823  04D6  1903               	skipnz
  2824  04D7  2CD9               	goto	u741
  2825  04D8  2CDA               	goto	u740
  2826  04D9                     u741:
  2827  04D9  2CD2               	goto	l2380
  2828  04DA                     u740:
  2829  04DA                     l2382:
  2830                           
  2831                           ;mcc_generated_files/i2c_master.c: 642:     return returnValue;
  2832  04DA  087B               	movf	I2C_Rd@returnValue,w
  2833  04DB                     l426:
  2834  04DB  0008               	return
  2835  04DC                     __end_of_I2C_Rd:
  2836                           
  2837                           	psect	text12
  2838  05DA                     __ptext12:	
  2839 ;; *************** function _I2C_Open *****************
  2840 ;; Defined at:
  2841 ;;		line 130 in file "mcc_generated_files/i2c_master.c"
  2842 ;; Parameters:    Size  Location     Type
  2843 ;;  address         1    wreg     unsigned char 
  2844 ;; Auto vars:     Size  Location     Type
  2845 ;;  address         1    1[COMMON] unsigned char 
  2846 ;;  returnValue     1    2[COMMON] enum E355
  2847 ;; Return value:  Size  Location     Type
  2848 ;;                  1    wreg      enum E355
  2849 ;; Registers used:
  2850 ;;		wreg, status,2, status,0, pclath, cstack
  2851 ;; Tracked objects:
  2852 ;;		On entry : 0/0
  2853 ;;		On exit  : 0/0
  2854 ;;		Unchanged: 0/0
  2855 ;; Data sizes:     COMMON   BANK0   BANK1   BANK2   BANK3   BANK4   BANK5   BANK6   BANK7   BANK8   BANK9  BANK10  BANK1
      +1  BANK12
  2856 ;;      Params:         0       0       0       0       0       0       0       0       0       0       0       0       
      +0       0
  2857 ;;      Locals:         2       0       0       0       0       0       0       0       0       0       0       0       
      +0       0
  2858 ;;      Temps:          1       0       0       0       0       0       0       0       0       0       0       0       
      +0       0
  2859 ;;      Totals:         3       0       0       0       0       0       0       0       0       0       0       0       
      +0       0
  2860 ;;Total ram usage:        3 bytes
  2861 ;; Hardware stack levels used: 1
  2862 ;; Hardware stack levels required when called: 1
  2863 ;; This function calls:
  2864 ;;		_I2C_MasterClearIrq
  2865 ;;		_I2C_MasterOpen
  2866 ;; This function is called by:
  2867 ;;		_I2C_Rd
  2868 ;;		_I2C_Write1ByteRegister
  2869 ;;		_I2C_Read1ByteRegister
  2870 ;;		_I2C_Read2ByteRegister
  2871 ;;		_I2C_Write2ByteRegister
  2872 ;;		_I2C_WriteNBytes
  2873 ;;		_I2C_ReadNBytes
  2874 ;;		_I2C_ReadDataBlock
  2875 ;; This function uses a non-reentrant model
  2876 ;;
  2877                           
  2878  05DA                     _I2C_Open:	
  2879                           ;psect for function _I2C_Open
  2880                           
  2881                           
  2882                           ;incstack = 0
  2883                           ; Regs used in _I2C_Open: [wreg+status,2+status,0+pclath+cstack]
  2884                           ;I2C_Open@address stored from wreg
  2885  05DA  00F1               	movwf	I2C_Open@address
  2886  05DB                     l2288:
  2887                           
  2888                           ;mcc_generated_files/i2c_master.c: 130: i2c_error_t I2C_Open(i2c_address_t address);mcc_
      +                          generated_files/i2c_master.c: 131: {;mcc_generated_files/i2c_master.c: 132:     i2c_erro
      +                          r_t returnValue = I2C_BUSY;
  2889  05DB  01F2               	clrf	I2C_Open@returnValue
  2890  05DC  0AF2               	incf	I2C_Open@returnValue,f
  2891                           
  2892                           ;mcc_generated_files/i2c_master.c: 134:     if(!I2C_Status.inUse)
  2893  05DD  0020               	movlb	0	; select bank0
  2894  05DE  193C               	btfsc	_I2C_Status+28,2
  2895  05DF  2DE1               	goto	u681
  2896  05E0  2DE2               	goto	u680
  2897  05E1                     u681:
  2898  05E1  2E12               	goto	l190
  2899  05E2                     u680:
  2900  05E2                     l2290:
  2901                           
  2902                           ;mcc_generated_files/i2c_master.c: 135:     {;mcc_generated_files/i2c_master.c: 136:    
      +                               I2C_Status.address = address;
  2903  05E2  0871               	movf	I2C_Open@address,w
  2904  05E3  00F0               	movwf	??_I2C_Open
  2905  05E4  0870               	movf	??_I2C_Open,w
  2906  05E5  00B6               	movwf	_I2C_Status+22
  2907  05E6                     l2292:
  2908                           
  2909                           ;mcc_generated_files/i2c_master.c: 137:         I2C_Status.busy = 0;
  2910  05E6  10BC               	bcf	_I2C_Status+28,1
  2911  05E7                     l2294:
  2912                           
  2913                           ;mcc_generated_files/i2c_master.c: 138:         I2C_Status.inUse = 1;
  2914  05E7  153C               	bsf	_I2C_Status+28,2
  2915  05E8                     l2296:
  2916                           
  2917                           ;mcc_generated_files/i2c_master.c: 139:         I2C_Status.addressNackCheck = 0;
  2918  05E8  103C               	bcf	_I2C_Status+28,0
  2919                           
  2920                           ;mcc_generated_files/i2c_master.c: 140:         I2C_Status.state = I2C_RESET;
  2921  05E9  300E               	movlw	14
  2922  05EA  00F0               	movwf	??_I2C_Open
  2923  05EB  0870               	movf	??_I2C_Open,w
  2924  05EC  00BA               	movwf	_I2C_Status+26
  2925                           
  2926                           ;mcc_generated_files/i2c_master.c: 141:         I2C_Status.time_out_value = 500;
  2927  05ED  30F4               	movlw	244
  2928  05EE  00B4               	movwf	_I2C_Status+20
  2929  05EF  3001               	movlw	1
  2930  05F0  00B5               	movwf	_I2C_Status+21
  2931  05F1                     l2298:
  2932                           
  2933                           ;mcc_generated_files/i2c_master.c: 142:         I2C_Status.bufferFree = 1;
  2934  05F1  15BC               	bsf	_I2C_Status+28,3
  2935                           
  2936                           ;mcc_generated_files/i2c_master.c: 145:         I2C_Status.callbackTable[I2C_DATA_COMPLE
      +                          TE]=I2C_CallbackReturnStop;
  2937  05F2  3040               	movlw	low _I2C_CallbackReturnStop
  2938  05F3  00A0               	movwf	_I2C_Status
  2939  05F4  3003               	movlw	high _I2C_CallbackReturnStop
  2940  05F5  00A1               	movwf	_I2C_Status+1
  2941  05F6                     l2300:
  2942                           
  2943                           ;mcc_generated_files/i2c_master.c: 146:         I2C_Status.callbackPayload[I2C_DATA_COMP
      +                          LETE] = ((void*)0);
  2944  05F6  01AC               	clrf	low ((_I2C_Status| 0+12))
  2945  05F7                     l2302:
  2946                           
  2947                           ;mcc_generated_files/i2c_master.c: 147:         I2C_Status.callbackTable[I2C_WRITE_COLLI
      +                          SION]=I2C_CallbackReturnStop;
  2948  05F7  3040               	movlw	low _I2C_CallbackReturnStop
  2949  05F8  00A2               	movwf	low ((_I2C_Status| 0+2))
  2950  05F9  3003               	movlw	high _I2C_CallbackReturnStop
  2951  05FA  00A3               	movwf	(low ((_I2C_Status| 0+2))+1)
  2952                           
  2953                           ;mcc_generated_files/i2c_master.c: 148:         I2C_Status.callbackPayload[I2C_WRITE_COL
      +                          LISION] = ((void*)0);
  2954  05FB  01AD               	clrf	low ((_I2C_Status| 0+13))
  2955  05FC                     l2304:
  2956                           
  2957                           ;mcc_generated_files/i2c_master.c: 149:         I2C_Status.callbackTable[I2C_ADDR_NACK]=
      +                          I2C_CallbackReturnStop;
  2958  05FC  3040               	movlw	low _I2C_CallbackReturnStop
  2959  05FD  00A4               	movwf	low ((_I2C_Status| 0+4))
  2960  05FE  3003               	movlw	high _I2C_CallbackReturnStop
  2961  05FF  00A5               	movwf	(low ((_I2C_Status| 0+4))+1)
  2962  0600                     l2306:
  2963                           
  2964                           ;mcc_generated_files/i2c_master.c: 150:         I2C_Status.callbackPayload[I2C_ADDR_NACK
      +                          ] = ((void*)0);
  2965  0600  01AE               	clrf	low ((_I2C_Status| 0+14))
  2966                           
  2967                           ;mcc_generated_files/i2c_master.c: 151:         I2C_Status.callbackTable[I2C_DATA_NACK]=
      +                          I2C_CallbackReturnStop;
  2968  0601  3040               	movlw	low _I2C_CallbackReturnStop
  2969  0602  00A6               	movwf	low ((_I2C_Status| 0+6))
  2970  0603  3003               	movlw	high _I2C_CallbackReturnStop
  2971  0604  00A7               	movwf	(low ((_I2C_Status| 0+6))+1)
  2972  0605                     l2308:
  2973                           
  2974                           ;mcc_generated_files/i2c_master.c: 152:         I2C_Status.callbackPayload[I2C_DATA_NACK
      +                          ] = ((void*)0);
  2975  0605  01AF               	clrf	low ((_I2C_Status| 0+15))
  2976  0606                     l2310:
  2977                           
  2978                           ;mcc_generated_files/i2c_master.c: 153:         I2C_Status.callbackTable[I2C_TIMEOUT]=I2
      +                          C_CallbackReturnReset;
  2979  0606  3042               	movlw	low _I2C_CallbackReturnReset
  2980  0607  00A8               	movwf	low ((_I2C_Status| 0+8))
  2981  0608  3003               	movlw	high _I2C_CallbackReturnReset
  2982  0609  00A9               	movwf	(low ((_I2C_Status| 0+8))+1)
  2983                           
  2984                           ;mcc_generated_files/i2c_master.c: 154:         I2C_Status.callbackPayload[I2C_TIMEOUT] 
      +                          = ((void*)0);
  2985  060A  01B0               	clrf	low ((_I2C_Status| 0+16))
  2986  060B                     l2312:
  2987                           
  2988                           ;mcc_generated_files/i2c_master.c: 156:         I2C_MasterClearIrq();
  2989  060B  3183  2344  3185   	fcall	_I2C_MasterClearIrq
  2990  060E                     l2314:
  2991                           
  2992                           ;mcc_generated_files/i2c_master.c: 157:         I2C_MasterOpen();
  2993  060E  3184  2400  3185   	fcall	_I2C_MasterOpen
  2994  0611                     l2316:
  2995                           
  2996                           ;mcc_generated_files/i2c_master.c: 158:         returnValue = I2C_NOERR;
  2997  0611  01F2               	clrf	I2C_Open@returnValue
  2998  0612                     l190:	
  2999                           ;mcc_generated_files/i2c_master.c: 159:     }
  3000                           
  3001                           
  3002                           ;mcc_generated_files/i2c_master.c: 160:     return returnValue;
  3003  0612  0872               	movf	I2C_Open@returnValue,w
  3004  0613                     l191:
  3005  0613  0008               	return
  3006  0614                     __end_of_I2C_Open:
  3007                           
  3008                           	psect	text13
  3009  0400                     __ptext13:	
  3010 ;; *************** function _I2C_MasterOpen *****************
  3011 ;; Defined at:
  3012 ;;		line 497 in file "mcc_generated_files/i2c_master.c"
  3013 ;; Parameters:    Size  Location     Type
  3014 ;;		None
  3015 ;; Auto vars:     Size  Location     Type
  3016 ;;		None
  3017 ;; Return value:  Size  Location     Type
  3018 ;;                  1    wreg      _Bool 
  3019 ;; Registers used:
  3020 ;;		wreg, status,2
  3021 ;; Tracked objects:
  3022 ;;		On entry : 0/0
  3023 ;;		On exit  : 0/0
  3024 ;;		Unchanged: 0/0
  3025 ;; Data sizes:     COMMON   BANK0   BANK1   BANK2   BANK3   BANK4   BANK5   BANK6   BANK7   BANK8   BANK9  BANK10  BANK1
      +1  BANK12
  3026 ;;      Params:         0       0       0       0       0       0       0       0       0       0       0       0       
      +0       0
  3027 ;;      Locals:         0       0       0       0       0       0       0       0       0       0       0       0       
      +0       0
  3028 ;;      Temps:          0       0       0       0       0       0       0       0       0       0       0       0       
      +0       0
  3029 ;;      Totals:         0       0       0       0       0       0       0       0       0       0       0       0       
      +0       0
  3030 ;;Total ram usage:        0 bytes
  3031 ;; Hardware stack levels used: 1
  3032 ;; This function calls:
  3033 ;;		Nothing
  3034 ;; This function is called by:
  3035 ;;		_I2C_Open
  3036 ;; This function uses a non-reentrant model
  3037 ;;
  3038                           
  3039  0400                     _I2C_MasterOpen:	
  3040                           ;psect for function _I2C_MasterOpen
  3041                           
  3042  0400                     l2216:	
  3043                           ;incstack = 0
  3044                           ; Regs used in _I2C_MasterOpen: [wreg+status,2]
  3045                           
  3046                           
  3047                           ;mcc_generated_files/i2c_master.c: 499:     if(!SSPCON1bits.SSPEN)
  3048  0400  0024               	movlb	4	; select bank4
  3049  0401  1A95               	btfsc	21,5	;volatile
  3050  0402  2C04               	goto	u651
  3051  0403  2C05               	goto	u650
  3052  0404                     u651:
  3053  0404  2C0C               	goto	l356
  3054  0405                     u650:
  3055  0405                     l2218:
  3056                           
  3057                           ;mcc_generated_files/i2c_master.c: 500:     {;mcc_generated_files/i2c_master.c: 501:    
      +                               SSPSTAT = 0x00;
  3058  0405  0194               	clrf	20	;volatile
  3059  0406                     l2220:
  3060                           
  3061                           ;mcc_generated_files/i2c_master.c: 502:         SSPCON1 = 0x08;
  3062  0406  3008               	movlw	8
  3063  0407  0095               	movwf	21	;volatile
  3064  0408                     l2222:
  3065                           
  3066                           ;mcc_generated_files/i2c_master.c: 503:         SSPCON2 = 0x00;
  3067  0408  0196               	clrf	22	;volatile
  3068                           
  3069                           ;mcc_generated_files/i2c_master.c: 504:         SSPADD = 0x4F;
  3070  0409  304F               	movlw	79
  3071  040A  0092               	movwf	18	;volatile
  3072  040B                     l2224:
  3073                           
  3074                           ;mcc_generated_files/i2c_master.c: 505:         SSPCON1bits.SSPEN = 1;
  3075  040B  1695               	bsf	21,5	;volatile
  3076  040C                     l356:
  3077  040C  0008               	return
  3078  040D                     __end_of_I2C_MasterOpen:
  3079                           
  3080                           	psect	text14
  3081  039D                     __ptext14:	
  3082 ;; *************** function _I2C_MasterRead *****************
  3083 ;; Defined at:
  3084 ;;		line 200 in file "mcc_generated_files/i2c_master.c"
  3085 ;; Parameters:    Size  Location     Type
  3086 ;;		None
  3087 ;; Auto vars:     Size  Location     Type
  3088 ;;		None
  3089 ;; Return value:  Size  Location     Type
  3090 ;;                  1    wreg      enum E355
  3091 ;; Registers used:
  3092 ;;		wreg, fsr0l, fsr0h, fsr1l, fsr1h, status,2, status,0, pclath, cstack
  3093 ;; Tracked objects:
  3094 ;;		On entry : 0/0
  3095 ;;		On exit  : 0/0
  3096 ;;		Unchanged: 0/0
  3097 ;; Data sizes:     COMMON   BANK0   BANK1   BANK2   BANK3   BANK4   BANK5   BANK6   BANK7   BANK8   BANK9  BANK10  BANK1
      +1  BANK12
  3098 ;;      Params:         0       0       0       0       0       0       0       0       0       0       0       0       
      +0       0
  3099 ;;      Locals:         0       0       0       0       0       0       0       0       0       0       0       0       
      +0       0
  3100 ;;      Temps:          0       0       0       0       0       0       0       0       0       0       0       0       
      +0       0
  3101 ;;      Totals:         0       0       0       0       0       0       0       0       0       0       0       0       
      +0       0
  3102 ;;Total ram usage:        0 bytes
  3103 ;; Hardware stack levels used: 1
  3104 ;; Hardware stack levels required when called: 7
  3105 ;; This function calls:
  3106 ;;		_I2C_MasterOperation
  3107 ;; This function is called by:
  3108 ;;		_I2C_Rd
  3109 ;;		_I2C_ReadNBytes
  3110 ;; This function uses a non-reentrant model
  3111 ;;
  3112                           
  3113  039D                     _I2C_MasterRead:	
  3114                           ;psect for function _I2C_MasterRead
  3115                           
  3116  039D                     l2338:	
  3117                           ;incstack = 0
  3118                           ; Regs used in _I2C_MasterRead: [wreg-fsr1h+status,2+status,0+pclath+cstack]
  3119                           
  3120                           
  3121                           ;mcc_generated_files/i2c_master.c: 202:     return I2C_MasterOperation(1);;	Return value
      +                           of _I2C_MasterRead is never used
  3122  039D  3001               	movlw	1
  3123  039E  3184  249E  3183   	fcall	_I2C_MasterOperation
  3124  03A1                     l204:
  3125  03A1  0008               	return
  3126  03A2                     __end_of_I2C_MasterRead:
  3127                           
  3128                           	psect	text15
  3129  049E                     __ptext15:	
  3130 ;; *************** function _I2C_MasterOperation *****************
  3131 ;; Defined at:
  3132 ;;		line 178 in file "mcc_generated_files/i2c_master.c"
  3133 ;; Parameters:    Size  Location     Type
  3134 ;;  read            1    wreg     _Bool 
  3135 ;; Auto vars:     Size  Location     Type
  3136 ;;  read            1    8[COMMON] _Bool 
  3137 ;;  returnValue     1    9[COMMON] enum E355
  3138 ;; Return value:  Size  Location     Type
  3139 ;;                  1    wreg      enum E355
  3140 ;; Registers used:
  3141 ;;		wreg, fsr0l, fsr0h, fsr1l, fsr1h, status,2, status,0, pclath, cstack
  3142 ;; Tracked objects:
  3143 ;;		On entry : 0/0
  3144 ;;		On exit  : 0/0
  3145 ;;		Unchanged: 0/0
  3146 ;; Data sizes:     COMMON   BANK0   BANK1   BANK2   BANK3   BANK4   BANK5   BANK6   BANK7   BANK8   BANK9  BANK10  BANK1
      +1  BANK12
  3147 ;;      Params:         0       0       0       0       0       0       0       0       0       0       0       0       
      +0       0
  3148 ;;      Locals:         2       0       0       0       0       0       0       0       0       0       0       0       
      +0       0
  3149 ;;      Temps:          1       0       0       0       0       0       0       0       0       0       0       0       
      +0       0
  3150 ;;      Totals:         3       0       0       0       0       0       0       0       0       0       0       0       
      +0       0
  3151 ;;Total ram usage:        3 bytes
  3152 ;; Hardware stack levels used: 1
  3153 ;; Hardware stack levels required when called: 6
  3154 ;; This function calls:
  3155 ;;		_I2C_MasterStart
  3156 ;;		_I2C_Poller
  3157 ;; This function is called by:
  3158 ;;		_I2C_MasterRead
  3159 ;;		_I2C_MasterWrite
  3160 ;; This function uses a non-reentrant model
  3161 ;;
  3162                           
  3163  049E                     _I2C_MasterOperation:	
  3164                           ;psect for function _I2C_MasterOperation
  3165                           
  3166                           
  3167                           ;incstack = 0
  3168                           ; Regs used in _I2C_MasterOperation: [wreg-fsr1h+status,2+status,0+pclath+cstack]
  3169                           ;I2C_MasterOperation@read stored from wreg
  3170  049E  00F8               	movwf	I2C_MasterOperation@read
  3171  049F                     l2232:
  3172                           
  3173                           ;mcc_generated_files/i2c_master.c: 178: i2c_error_t I2C_MasterOperation(_Bool read);mcc_
      +                          generated_files/i2c_master.c: 179: {;mcc_generated_files/i2c_master.c: 180:     i2c_erro
      +                          r_t returnValue = I2C_BUSY;
  3174  049F  01F9               	clrf	I2C_MasterOperation@returnValue
  3175  04A0  0AF9               	incf	I2C_MasterOperation@returnValue,f
  3176                           
  3177                           ;mcc_generated_files/i2c_master.c: 181:     if(!I2C_Status.busy)
  3178  04A1  0020               	movlb	0	; select bank0
  3179  04A2  18BC               	btfsc	_I2C_Status+28,1
  3180  04A3  2CA5               	goto	u661
  3181  04A4  2CA6               	goto	u660
  3182  04A5                     u661:
  3183  04A5  2CBA               	goto	l2248
  3184  04A6                     u660:
  3185  04A6                     l2234:
  3186                           
  3187                           ;mcc_generated_files/i2c_master.c: 182:     {;mcc_generated_files/i2c_master.c: 183:    
      +                               I2C_Status.busy = 1;
  3188  04A6  14BC               	bsf	_I2C_Status+28,1
  3189  04A7                     l2236:
  3190                           
  3191                           ;mcc_generated_files/i2c_master.c: 184:         returnValue = I2C_NOERR;
  3192  04A7  01F9               	clrf	I2C_MasterOperation@returnValue
  3193  04A8                     l2238:
  3194                           
  3195                           ;mcc_generated_files/i2c_master.c: 186:         if(read)
  3196  04A8  0878               	movf	I2C_MasterOperation@read,w
  3197  04A9  1903               	btfsc	3,2
  3198  04AA  2CAC               	goto	u671
  3199  04AB  2CAD               	goto	u670
  3200  04AC                     u671:
  3201  04AC  2CB0               	goto	l2242
  3202  04AD                     u670:
  3203  04AD                     l2240:
  3204                           
  3205                           ;mcc_generated_files/i2c_master.c: 187:         {;mcc_generated_files/i2c_master.c: 188:
      +                                       I2C_Status.state = I2C_SEND_ADR_READ;
  3206  04AD  01BA               	clrf	_I2C_Status+26
  3207  04AE  0ABA               	incf	_I2C_Status+26,f
  3208                           
  3209                           ;mcc_generated_files/i2c_master.c: 189:         }
  3210  04AF  2CB4               	goto	l2244
  3211  04B0                     l2242:
  3212                           
  3213                           ;mcc_generated_files/i2c_master.c: 191:         {;mcc_generated_files/i2c_master.c: 192:
      +                                       I2C_Status.state = I2C_SEND_ADR_WRITE;
  3214  04B0  3002               	movlw	2
  3215  04B1  00F7               	movwf	??_I2C_MasterOperation
  3216  04B2  0877               	movf	??_I2C_MasterOperation,w
  3217  04B3  00BA               	movwf	_I2C_Status+26
  3218  04B4                     l2244:
  3219                           
  3220                           ;mcc_generated_files/i2c_master.c: 194:         I2C_MasterStart();
  3221  04B4  3183  234D  3184   	fcall	_I2C_MasterStart
  3222  04B7                     l2246:
  3223                           
  3224                           ;mcc_generated_files/i2c_master.c: 195:         I2C_Poller();
  3225  04B7  3183  23F3  3184   	fcall	_I2C_Poller
  3226  04BA                     l2248:
  3227                           
  3228                           ;mcc_generated_files/i2c_master.c: 197:     return returnValue;
  3229  04BA  0879               	movf	I2C_MasterOperation@returnValue,w
  3230  04BB                     l201:
  3231  04BB  0008               	return
  3232  04BC                     __end_of_I2C_MasterOperation:
  3233                           
  3234                           	psect	text16
  3235  03F3                     __ptext16:	
  3236 ;; *************** function _I2C_Poller *****************
  3237 ;; Defined at:
  3238 ;;		line 266 in file "mcc_generated_files/i2c_master.c"
  3239 ;; Parameters:    Size  Location     Type
  3240 ;;		None
  3241 ;; Auto vars:     Size  Location     Type
  3242 ;;		None
  3243 ;; Return value:  Size  Location     Type
  3244 ;;                  1    wreg      void 
  3245 ;; Registers used:
  3246 ;;		wreg, fsr0l, fsr0h, fsr1l, fsr1h, status,2, status,0, pclath, cstack
  3247 ;; Tracked objects:
  3248 ;;		On entry : 0/0
  3249 ;;		On exit  : 0/0
  3250 ;;		Unchanged: 0/0
  3251 ;; Data sizes:     COMMON   BANK0   BANK1   BANK2   BANK3   BANK4   BANK5   BANK6   BANK7   BANK8   BANK9  BANK10  BANK1
      +1  BANK12
  3252 ;;      Params:         0       0       0       0       0       0       0       0       0       0       0       0       
      +0       0
  3253 ;;      Locals:         0       0       0       0       0       0       0       0       0       0       0       0       
      +0       0
  3254 ;;      Temps:          0       0       0       0       0       0       0       0       0       0       0       0       
      +0       0
  3255 ;;      Totals:         0       0       0       0       0       0       0       0       0       0       0       0       
      +0       0
  3256 ;;Total ram usage:        0 bytes
  3257 ;; Hardware stack levels used: 1
  3258 ;; Hardware stack levels required when called: 5
  3259 ;; This function calls:
  3260 ;;		_I2C_MasterFsm
  3261 ;;		_I2C_MasterWaitForEvent
  3262 ;; This function is called by:
  3263 ;;		_I2C_MasterOperation
  3264 ;; This function uses a non-reentrant model
  3265 ;;
  3266                           
  3267  03F3                     _I2C_Poller:	
  3268                           ;psect for function _I2C_Poller
  3269                           
  3270  03F3                     l2208:	
  3271                           ;incstack = 0
  3272                           ; Regs used in _I2C_Poller: [wreg-fsr1h+status,2+status,0+pclath+cstack]
  3273                           
  3274                           
  3275                           ;mcc_generated_files/i2c_master.c: 268:     while(I2C_Status.busy)
  3276  03F3  2BFA               	goto	l2214
  3277  03F4                     l2210:
  3278                           
  3279                           ;mcc_generated_files/i2c_master.c: 269:     {;mcc_generated_files/i2c_master.c: 270:    
      +                               I2C_MasterWaitForEvent();
  3280  03F4  3183  23AD  3183   	fcall	_I2C_MasterWaitForEvent
  3281  03F7                     l2212:
  3282                           
  3283                           ;mcc_generated_files/i2c_master.c: 271:         I2C_MasterFsm();
  3284  03F7  3185  2524  3183   	fcall	_I2C_MasterFsm
  3285  03FA                     l2214:
  3286                           
  3287                           ;mcc_generated_files/i2c_master.c: 268:     while(I2C_Status.busy)
  3288  03FA  0020               	movlb	0	; select bank0
  3289  03FB  18BC               	btfsc	_I2C_Status+28,1
  3290  03FC  2BFE               	goto	u641
  3291  03FD  2BFF               	goto	u640
  3292  03FE                     u641:
  3293  03FE  2BF4               	goto	l2210
  3294  03FF                     u640:
  3295  03FF                     l240:
  3296  03FF  0008               	return
  3297  0400                     __end_of_I2C_Poller:
  3298                           
  3299                           	psect	text17
  3300  03AD                     __ptext17:	
  3301 ;; *************** function _I2C_MasterWaitForEvent *****************
  3302 ;; Defined at:
  3303 ;;		line 604 in file "mcc_generated_files/i2c_master.c"
  3304 ;; Parameters:    Size  Location     Type
  3305 ;;		None
  3306 ;; Auto vars:     Size  Location     Type
  3307 ;;		None
  3308 ;; Return value:  Size  Location     Type
  3309 ;;                  1    wreg      void 
  3310 ;; Registers used:
  3311 ;;		None
  3312 ;; Tracked objects:
  3313 ;;		On entry : 0/0
  3314 ;;		On exit  : 0/0
  3315 ;;		Unchanged: 0/0
  3316 ;; Data sizes:     COMMON   BANK0   BANK1   BANK2   BANK3   BANK4   BANK5   BANK6   BANK7   BANK8   BANK9  BANK10  BANK1
      +1  BANK12
  3317 ;;      Params:         0       0       0       0       0       0       0       0       0       0       0       0       
      +0       0
  3318 ;;      Locals:         0       0       0       0       0       0       0       0       0       0       0       0       
      +0       0
  3319 ;;      Temps:          0       0       0       0       0       0       0       0       0       0       0       0       
      +0       0
  3320 ;;      Totals:         0       0       0       0       0       0       0       0       0       0       0       0       
      +0       0
  3321 ;;Total ram usage:        0 bytes
  3322 ;; Hardware stack levels used: 1
  3323 ;; This function calls:
  3324 ;;		Nothing
  3325 ;; This function is called by:
  3326 ;;		_I2C_Poller
  3327 ;; This function uses a non-reentrant model
  3328 ;;
  3329                           
  3330  03AD                     _I2C_MasterWaitForEvent:	
  3331                           ;psect for function _I2C_MasterWaitForEvent
  3332                           
  3333  03AD                     l413:	
  3334                           ;incstack = 0
  3335                           ; Regs used in _I2C_MasterWaitForEvent: []
  3336                           ;mcc_generated_files/i2c_master.c: 606:     while(1)
  3337                           
  3338                           
  3339                           ;mcc_generated_files/i2c_master.c: 607:     {;mcc_generated_files/i2c_master.c: 608:    
      +                               if(PIR1bits.SSPIF)
  3340  03AD  0020               	movlb	0	; select bank0
  3341  03AE  1D91               	btfss	17,3	;volatile
  3342  03AF  2BB1               	goto	u611
  3343  03B0  2BB2               	goto	u610
  3344  03B1                     u611:
  3345  03B1  2BAD               	goto	l413
  3346  03B2                     u610:
  3347  03B2                     l417:
  3348  03B2  0008               	return
  3349  03B3                     __end_of_I2C_MasterWaitForEvent:
  3350                           
  3351                           	psect	text18
  3352  0524                     __ptext18:	
  3353 ;; *************** function _I2C_MasterFsm *****************
  3354 ;; Defined at:
  3355 ;;		line 275 in file "mcc_generated_files/i2c_master.c"
  3356 ;; Parameters:    Size  Location     Type
  3357 ;;		None
  3358 ;; Auto vars:     Size  Location     Type
  3359 ;;		None
  3360 ;; Return value:  Size  Location     Type
  3361 ;;                  1    wreg      void 
  3362 ;; Registers used:
  3363 ;;		wreg, fsr0l, fsr0h, fsr1l, fsr1h, status,2, status,0, pclath, cstack
  3364 ;; Tracked objects:
  3365 ;;		On entry : 0/0
  3366 ;;		On exit  : 0/0
  3367 ;;		Unchanged: 0/0
  3368 ;; Data sizes:     COMMON   BANK0   BANK1   BANK2   BANK3   BANK4   BANK5   BANK6   BANK7   BANK8   BANK9  BANK10  BANK1
      +1  BANK12
  3369 ;;      Params:         0       0       0       0       0       0       0       0       0       0       0       0       
      +0       0
  3370 ;;      Locals:         0       0       0       0       0       0       0       0       0       0       0       0       
      +0       0
  3371 ;;      Temps:          3       0       0       0       0       0       0       0       0       0       0       0       
      +0       0
  3372 ;;      Totals:         3       0       0       0       0       0       0       0       0       0       0       0       
      +0       0
  3373 ;;Total ram usage:        3 bytes
  3374 ;; Hardware stack levels used: 1
  3375 ;; Hardware stack levels required when called: 4
  3376 ;; This function calls:
  3377 ;;		_I2C_DO_ADDRESS_NACK
  3378 ;;		_I2C_DO_IDLE
  3379 ;;		_I2C_DO_RCEN
  3380 ;;		_I2C_DO_RESET
  3381 ;;		_I2C_DO_RX
  3382 ;;		_I2C_DO_RX_ACK
  3383 ;;		_I2C_DO_RX_NACK_RESTART
  3384 ;;		_I2C_DO_RX_NACK_STOP
  3385 ;;		_I2C_DO_SEND_ADR_READ
  3386 ;;		_I2C_DO_SEND_ADR_WRITE
  3387 ;;		_I2C_DO_SEND_RESTART
  3388 ;;		_I2C_DO_SEND_RESTART_READ
  3389 ;;		_I2C_DO_SEND_RESTART_WRITE
  3390 ;;		_I2C_DO_SEND_STOP
  3391 ;;		_I2C_DO_TX
  3392 ;;		_I2C_DO_TX_EMPTY
  3393 ;;		_I2C_MasterClearIrq
  3394 ;;		_I2C_MasterIsNack
  3395 ;; This function is called by:
  3396 ;;		_I2C_Poller
  3397 ;; This function uses a non-reentrant model
  3398 ;;
  3399                           
  3400  0524                     _I2C_MasterFsm:	
  3401                           ;psect for function _I2C_MasterFsm
  3402                           
  3403  0524                     l2196:	
  3404                           ;incstack = 0
  3405                           ; Regs used in _I2C_MasterFsm: [wreg-fsr1h+status,2+status,0+pclath+cstack]
  3406                           
  3407                           
  3408                           ;mcc_generated_files/i2c_master.c: 277:     I2C_MasterClearIrq();
  3409  0524  3183  2344  3185   	fcall	_I2C_MasterClearIrq
  3410  0527                     l2198:
  3411                           
  3412                           ;mcc_generated_files/i2c_master.c: 279:     if(I2C_Status.addressNackCheck && I2C_Master
      +                          IsNack())
  3413  0527  0020               	movlb	0	; select bank0
  3414  0528  1C3C               	btfss	_I2C_Status+28,0
  3415  0529  2D2B               	goto	u621
  3416  052A  2D2C               	goto	u620
  3417  052B                     u621:
  3418  052B  2D39               	goto	l2204
  3419  052C                     u620:
  3420  052C                     l2200:
  3421  052C  3183  23A7  3185   	fcall	_I2C_MasterIsNack
  3422  052F  3A00               	xorlw	0
  3423  0530  1903               	skipnz
  3424  0531  2D33               	goto	u631
  3425  0532  2D34               	goto	u630
  3426  0533                     u631:
  3427  0533  2D39               	goto	l2204
  3428  0534                     u630:
  3429  0534                     l2202:
  3430                           
  3431                           ;mcc_generated_files/i2c_master.c: 280:     {;mcc_generated_files/i2c_master.c: 281:    
      +                               I2C_Status.state = I2C_ADDRESS_NACK;
  3432  0534  300F               	movlw	15
  3433  0535  00F4               	movwf	??_I2C_MasterFsm
  3434  0536  0874               	movf	??_I2C_MasterFsm,w
  3435  0537  0020               	movlb	0	; select bank0
  3436  0538  00BA               	movwf	_I2C_Status+26
  3437  0539                     l2204:
  3438                           
  3439                           ;mcc_generated_files/i2c_master.c: 283:     I2C_Status.state = i2c_fsmStateTable[I2C_Sta
      +                          tus.state]();
  3440  0539  0020               	movlb	0	; select bank0
  3441  053A  083A               	movf	_I2C_Status+26,w
  3442  053B  00F4               	movwf	??_I2C_MasterFsm
  3443  053C  01F5               	clrf	??_I2C_MasterFsm+1
  3444  053D  35F4               	lslf	??_I2C_MasterFsm,f
  3445  053E  0DF5               	rlf	??_I2C_MasterFsm+1,f
  3446  053F  3000               	movlw	low (_i2c_fsmStateTable| (0+32768))
  3447  0540  0774               	addwf	??_I2C_MasterFsm,w
  3448  0541  0084               	movwf	4
  3449  0542  3088               	movlw	high (_i2c_fsmStateTable| (0+32768))
  3450  0543  3D75               	addwfc	??_I2C_MasterFsm+1,w
  3451  0544  0085               	movwf	5
  3452  0545  3F01               	moviw [1]fsr0
  3453  0546  008A               	movwf	10
  3454  0547  3F00               	moviw [0]fsr0
  3455  0548  000A               	callw
  3456  0549  3185               	pagesel	$
  3457  054A  00F6               	movwf	??_I2C_MasterFsm+2
  3458  054B  0876               	movf	??_I2C_MasterFsm+2,w
  3459  054C  0020               	movlb	0	; select bank0
  3460  054D  00BA               	movwf	_I2C_Status+26
  3461  054E                     l244:
  3462  054E  0008               	return
  3463  054F                     __end_of_I2C_MasterFsm:
  3464                           
  3465                           	psect	text19
  3466  054F                     __ptext19:	
  3467 ;; *************** function _I2C_DO_ADDRESS_NACK *****************
  3468 ;; Defined at:
  3469 ;;		line 454 in file "mcc_generated_files/i2c_master.c"
  3470 ;; Parameters:    Size  Location     Type
  3471 ;;		None
  3472 ;; Auto vars:     Size  Location     Type
  3473 ;;		None
  3474 ;; Return value:  Size  Location     Type
  3475 ;;                  1    wreg      enum E3370
  3476 ;; Registers used:
  3477 ;;		wreg, fsr0l, fsr0h, fsr1l, fsr1h, status,2, status,0, pclath, cstack
  3478 ;; Tracked objects:
  3479 ;;		On entry : 0/0
  3480 ;;		On exit  : 0/0
  3481 ;;		Unchanged: 0/0
  3482 ;; Data sizes:     COMMON   BANK0   BANK1   BANK2   BANK3   BANK4   BANK5   BANK6   BANK7   BANK8   BANK9  BANK10  BANK1
      +1  BANK12
  3483 ;;      Params:         0       0       0       0       0       0       0       0       0       0       0       0       
      +0       0
  3484 ;;      Locals:         0       0       0       0       0       0       0       0       0       0       0       0       
      +0       0
  3485 ;;      Temps:          3       0       0       0       0       0       0       0       0       0       0       0       
      +0       0
  3486 ;;      Totals:         3       0       0       0       0       0       0       0       0       0       0       0       
      +0       0
  3487 ;;Total ram usage:        3 bytes
  3488 ;; Hardware stack levels used: 1
  3489 ;; Hardware stack levels required when called: 3
  3490 ;; This function calls:
  3491 ;;		Absolute function
  3492 ;;		_I2C_CallbackReturnReset
  3493 ;;		_I2C_CallbackReturnStop
  3494 ;;		_I2C_DO_SEND_RESTART
  3495 ;;		_I2C_DO_SEND_STOP
  3496 ;;		_rd1RegCompleteHandler
  3497 ;;		_rdBlkRegCompleteHandler
  3498 ;;		_wr1RegCompleteHandler
  3499 ;;		_wr2RegCompleteHandler
  3500 ;; This function is called by:
  3501 ;;		_I2C_MasterFsm
  3502 ;; This function uses a non-reentrant model
  3503 ;;
  3504                           
  3505  054F                     _I2C_DO_ADDRESS_NACK:	
  3506                           ;psect for function _I2C_DO_ADDRESS_NACK
  3507                           
  3508  054F                     l2174:	
  3509                           ;incstack = 0
  3510                           ; Regs used in _I2C_DO_ADDRESS_NACK: [wreg-fsr1h+status,2+status,0+pclath+cstack]
  3511                           
  3512                           
  3513                           ;mcc_generated_files/i2c_master.c: 456:     I2C_Status.addressNackCheck = 0;
  3514  054F  0020               	movlb	0	; select bank0
  3515  0550  103C               	bcf	_I2C_Status+28,0
  3516  0551                     l2176:
  3517                           
  3518                           ;mcc_generated_files/i2c_master.c: 457:     I2C_Status.error = I2C_FAIL;
  3519  0551  3002               	movlw	2
  3520  0552  00F0               	movwf	??_I2C_DO_ADDRESS_NACK
  3521  0553  0870               	movf	??_I2C_DO_ADDRESS_NACK,w
  3522  0554  00BB               	movwf	_I2C_Status+27
  3523                           
  3524                           ;mcc_generated_files/i2c_master.c: 458:     switch(I2C_Status.callbackTable[I2C_ADDR_NAC
      +                          K](I2C_Status.callbackPayload[I2C_ADDR_NACK]))
  3525  0555  2D5E               	goto	l2188
  3526  0556                     l2178:
  3527                           
  3528                           ;mcc_generated_files/i2c_master.c: 462:             return I2C_DO_SEND_RESTART();
  3529  0556  3183  237F  3185   	fcall	_I2C_DO_SEND_RESTART
  3530  0559  2D7A               	goto	l335
  3531  055A                     l2182:
  3532                           
  3533                           ;mcc_generated_files/i2c_master.c: 464:             return I2C_DO_SEND_STOP();
  3534  055A  3183  2384  3185   	fcall	_I2C_DO_SEND_STOP
  3535  055D  2D7A               	goto	l335
  3536  055E                     l2188:
  3537  055E  082E               	movf	low ((_I2C_Status| 0+14)),w
  3538  055F  00F0               	movwf	??_I2C_DO_ADDRESS_NACK
  3539  0560  0870               	movf	??_I2C_DO_ADDRESS_NACK,w
  3540  0561  00F9               	movwf	rdBlkRegCompleteHandler@ptr
  3541  0562  3004               	movlw	4
  3542  0563  3E20               	addlw	(low (_I2C_Status| 0))& (0+255)
  3543  0564  0086               	movwf	6
  3544  0565  0187               	clrf	7
  3545  0566  3F41               	moviw [1]fsr1
  3546  0567  008A               	movwf	10
  3547  0568  3F40               	moviw [0]fsr1
  3548  0569  000A               	callw
  3549  056A  3185               	pagesel	$
  3550  056B  00F1               	movwf	??_I2C_DO_ADDRESS_NACK+1
  3551  056C  01F2               	clrf	??_I2C_DO_ADDRESS_NACK+2
  3552                           
  3553                           ; Switch on 2 bytes has been partitioned into a top level switch of size 1, and 1 sub-sw
      +                          itches
  3554                           ; Switch size 1, requested type "simple"
  3555                           ; Number of cases is 1, Range of values is 0 to 0
  3556                           ; switch strategies available:
  3557                           ; Name         Instructions Cycles
  3558                           ; simple_byte            4     3 (average)
  3559                           ; direct_byte            8     6 (fixed)
  3560                           ; jumptable            260     6 (fixed)
  3561                           ;	Chosen strategy is simple_byte
  3562  056D  0872               	movf	??_I2C_DO_ADDRESS_NACK+2,w
  3563  056E  3A00               	xorlw	0	; case 0
  3564  056F  1903               	skipnz
  3565  0570  2D72               	goto	l2692
  3566  0571  2D5A               	goto	l2182
  3567  0572                     l2692:
  3568                           
  3569                           ; Switch size 1, requested type "simple"
  3570                           ; Number of cases is 2, Range of values is 2 to 3
  3571                           ; switch strategies available:
  3572                           ; Name         Instructions Cycles
  3573                           ; simple_byte            7     4 (average)
  3574                           ; direct_byte           13     9 (fixed)
  3575                           ; jumptable            263     9 (fixed)
  3576                           ;	Chosen strategy is simple_byte
  3577  0572  0871               	movf	??_I2C_DO_ADDRESS_NACK+1,w
  3578  0573  3A02               	xorlw	2	; case 2
  3579  0574  1903               	skipnz
  3580  0575  2D56               	goto	l2178
  3581  0576  3A01               	xorlw	1	; case 3
  3582  0577  1903               	skipnz
  3583  0578  2D56               	goto	l2178
  3584  0579  2D5A               	goto	l2182
  3585  057A                     l335:
  3586  057A  0008               	return
  3587  057B                     __end_of_I2C_DO_ADDRESS_NACK:
  3588                           
  3589                           	psect	text20
  3590  0398                     __ptext20:	
  3591 ;; *************** function _I2C_DO_RESET *****************
  3592 ;; Defined at:
  3593 ;;		line 448 in file "mcc_generated_files/i2c_master.c"
  3594 ;; Parameters:    Size  Location     Type
  3595 ;;		None
  3596 ;; Auto vars:     Size  Location     Type
  3597 ;;		None
  3598 ;; Return value:  Size  Location     Type
  3599 ;;                  1    wreg      enum E3370
  3600 ;; Registers used:
  3601 ;;		wreg, status,2
  3602 ;; Tracked objects:
  3603 ;;		On entry : 0/0
  3604 ;;		On exit  : 0/0
  3605 ;;		Unchanged: 0/0
  3606 ;; Data sizes:     COMMON   BANK0   BANK1   BANK2   BANK3   BANK4   BANK5   BANK6   BANK7   BANK8   BANK9  BANK10  BANK1
      +1  BANK12
  3607 ;;      Params:         0       0       0       0       0       0       0       0       0       0       0       0       
      +0       0
  3608 ;;      Locals:         0       0       0       0       0       0       0       0       0       0       0       0       
      +0       0
  3609 ;;      Temps:          0       0       0       0       0       0       0       0       0       0       0       0       
      +0       0
  3610 ;;      Totals:         0       0       0       0       0       0       0       0       0       0       0       0       
      +0       0
  3611 ;;Total ram usage:        0 bytes
  3612 ;; Hardware stack levels used: 1
  3613 ;; This function calls:
  3614 ;;		Nothing
  3615 ;; This function is called by:
  3616 ;;		_I2C_MasterFsm
  3617 ;; This function uses a non-reentrant model
  3618 ;;
  3619                           
  3620  0398                     _I2C_DO_RESET:	
  3621                           ;psect for function _I2C_DO_RESET
  3622                           
  3623  0398                     l2166:	
  3624                           ;incstack = 0
  3625                           ; Regs used in _I2C_DO_RESET: [wreg+status,2]
  3626                           
  3627                           
  3628                           ;mcc_generated_files/i2c_master.c: 450:     I2C_Status.busy = 0;
  3629  0398  0020               	movlb	0	; select bank0
  3630  0399  10BC               	bcf	_I2C_Status+28,1
  3631  039A                     l2168:
  3632                           
  3633                           ;mcc_generated_files/i2c_master.c: 451:     I2C_Status.error = I2C_NOERR;
  3634  039A  01BB               	clrf	_I2C_Status+27
  3635  039B                     l2170:
  3636                           
  3637                           ;mcc_generated_files/i2c_master.c: 452:     return I2C_RESET;
  3638  039B  300E               	movlw	14
  3639  039C                     l329:
  3640  039C  0008               	return
  3641  039D                     __end_of_I2C_DO_RESET:
  3642                           
  3643                           	psect	text21
  3644  0393                     __ptext21:	
  3645 ;; *************** function _I2C_DO_RX_NACK_RESTART *****************
  3646 ;; Defined at:
  3647 ;;		line 442 in file "mcc_generated_files/i2c_master.c"
  3648 ;; Parameters:    Size  Location     Type
  3649 ;;		None
  3650 ;; Auto vars:     Size  Location     Type
  3651 ;;		None
  3652 ;; Return value:  Size  Location     Type
  3653 ;;                  1    wreg      enum E3370
  3654 ;; Registers used:
  3655 ;;		wreg, status,2, status,0, pclath, cstack
  3656 ;; Tracked objects:
  3657 ;;		On entry : 0/0
  3658 ;;		On exit  : 0/0
  3659 ;;		Unchanged: 0/0
  3660 ;; Data sizes:     COMMON   BANK0   BANK1   BANK2   BANK3   BANK4   BANK5   BANK6   BANK7   BANK8   BANK9  BANK10  BANK1
      +1  BANK12
  3661 ;;      Params:         0       0       0       0       0       0       0       0       0       0       0       0       
      +0       0
  3662 ;;      Locals:         0       0       0       0       0       0       0       0       0       0       0       0       
      +0       0
  3663 ;;      Temps:          0       0       0       0       0       0       0       0       0       0       0       0       
      +0       0
  3664 ;;      Totals:         0       0       0       0       0       0       0       0       0       0       0       0       
      +0       0
  3665 ;;Total ram usage:        0 bytes
  3666 ;; Hardware stack levels used: 1
  3667 ;; Hardware stack levels required when called: 1
  3668 ;; This function calls:
  3669 ;;		_I2C_MasterSendNack
  3670 ;; This function is called by:
  3671 ;;		_I2C_DO_RX
  3672 ;;		_I2C_MasterFsm
  3673 ;; This function uses a non-reentrant model
  3674 ;;
  3675                           
  3676  0393                     _I2C_DO_RX_NACK_RESTART:	
  3677                           ;psect for function _I2C_DO_RX_NACK_RESTART
  3678                           
  3679  0393                     l1978:	
  3680                           ;incstack = 0
  3681                           ; Regs used in _I2C_DO_RX_NACK_RESTART: [wreg+status,2+status,0+pclath+cstack]
  3682                           
  3683                           
  3684                           ;mcc_generated_files/i2c_master.c: 444:     I2C_MasterSendNack();
  3685  0393  3183  235F  3183   	fcall	_I2C_MasterSendNack
  3686  0396                     l1980:
  3687                           
  3688                           ;mcc_generated_files/i2c_master.c: 445:     return I2C_SEND_RESTART;
  3689  0396  3009               	movlw	9
  3690  0397                     l326:
  3691  0397  0008               	return
  3692  0398                     __end_of_I2C_DO_RX_NACK_RESTART:
  3693                           
  3694                           	psect	text22
  3695  038E                     __ptext22:	
  3696 ;; *************** function _I2C_DO_RX_NACK_STOP *****************
  3697 ;; Defined at:
  3698 ;;		line 436 in file "mcc_generated_files/i2c_master.c"
  3699 ;; Parameters:    Size  Location     Type
  3700 ;;		None
  3701 ;; Auto vars:     Size  Location     Type
  3702 ;;		None
  3703 ;; Return value:  Size  Location     Type
  3704 ;;                  1    wreg      enum E3370
  3705 ;; Registers used:
  3706 ;;		wreg, status,2, status,0, pclath, cstack
  3707 ;; Tracked objects:
  3708 ;;		On entry : 0/0
  3709 ;;		On exit  : 0/0
  3710 ;;		Unchanged: 0/0
  3711 ;; Data sizes:     COMMON   BANK0   BANK1   BANK2   BANK3   BANK4   BANK5   BANK6   BANK7   BANK8   BANK9  BANK10  BANK1
      +1  BANK12
  3712 ;;      Params:         0       0       0       0       0       0       0       0       0       0       0       0       
      +0       0
  3713 ;;      Locals:         0       0       0       0       0       0       0       0       0       0       0       0       
      +0       0
  3714 ;;      Temps:          0       0       0       0       0       0       0       0       0       0       0       0       
      +0       0
  3715 ;;      Totals:         0       0       0       0       0       0       0       0       0       0       0       0       
      +0       0
  3716 ;;Total ram usage:        0 bytes
  3717 ;; Hardware stack levels used: 1
  3718 ;; Hardware stack levels required when called: 1
  3719 ;; This function calls:
  3720 ;;		_I2C_MasterSendNack
  3721 ;; This function is called by:
  3722 ;;		_I2C_DO_RX
  3723 ;;		_I2C_MasterFsm
  3724 ;; This function uses a non-reentrant model
  3725 ;;
  3726                           
  3727  038E                     _I2C_DO_RX_NACK_STOP:	
  3728                           ;psect for function _I2C_DO_RX_NACK_STOP
  3729                           
  3730  038E                     l1984:	
  3731                           ;incstack = 0
  3732                           ; Regs used in _I2C_DO_RX_NACK_STOP: [wreg+status,2+status,0+pclath+cstack]
  3733                           
  3734                           
  3735                           ;mcc_generated_files/i2c_master.c: 438:     I2C_MasterSendNack();
  3736  038E  3183  235F  3183   	fcall	_I2C_MasterSendNack
  3737  0391                     l1986:
  3738                           
  3739                           ;mcc_generated_files/i2c_master.c: 439:     return I2C_SEND_STOP;
  3740  0391  300A               	movlw	10
  3741  0392                     l323:
  3742  0392  0008               	return
  3743  0393                     __end_of_I2C_DO_RX_NACK_STOP:
  3744                           
  3745                           	psect	text23
  3746  0389                     __ptext23:	
  3747 ;; *************** function _I2C_DO_RX_ACK *****************
  3748 ;; Defined at:
  3749 ;;		line 429 in file "mcc_generated_files/i2c_master.c"
  3750 ;; Parameters:    Size  Location     Type
  3751 ;;		None
  3752 ;; Auto vars:     Size  Location     Type
  3753 ;;		None
  3754 ;; Return value:  Size  Location     Type
  3755 ;;                  1    wreg      enum E3370
  3756 ;; Registers used:
  3757 ;;		wreg, status,2, status,0, pclath, cstack
  3758 ;; Tracked objects:
  3759 ;;		On entry : 0/0
  3760 ;;		On exit  : 0/0
  3761 ;;		Unchanged: 0/0
  3762 ;; Data sizes:     COMMON   BANK0   BANK1   BANK2   BANK3   BANK4   BANK5   BANK6   BANK7   BANK8   BANK9  BANK10  BANK1
      +1  BANK12
  3763 ;;      Params:         0       0       0       0       0       0       0       0       0       0       0       0       
      +0       0
  3764 ;;      Locals:         0       0       0       0       0       0       0       0       0       0       0       0       
      +0       0
  3765 ;;      Temps:          0       0       0       0       0       0       0       0       0       0       0       0       
      +0       0
  3766 ;;      Totals:         0       0       0       0       0       0       0       0       0       0       0       0       
      +0       0
  3767 ;;Total ram usage:        0 bytes
  3768 ;; Hardware stack levels used: 1
  3769 ;; Hardware stack levels required when called: 1
  3770 ;; This function calls:
  3771 ;;		_I2C_MasterSendAck
  3772 ;; This function is called by:
  3773 ;;		_I2C_MasterFsm
  3774 ;; This function uses a non-reentrant model
  3775 ;;
  3776                           
  3777  0389                     _I2C_DO_RX_ACK:	
  3778                           ;psect for function _I2C_DO_RX_ACK
  3779                           
  3780  0389                     l2160:	
  3781                           ;incstack = 0
  3782                           ; Regs used in _I2C_DO_RX_ACK: [wreg+status,2+status,0+pclath+cstack]
  3783                           
  3784                           
  3785                           ;mcc_generated_files/i2c_master.c: 431:     I2C_MasterSendAck();
  3786  0389  3183  2363  3183   	fcall	_I2C_MasterSendAck
  3787  038C                     l2162:
  3788                           
  3789                           ;mcc_generated_files/i2c_master.c: 432:     return I2C_RCEN;
  3790  038C  3005               	movlw	5
  3791  038D                     l320:
  3792  038D  0008               	return
  3793  038E                     __end_of_I2C_DO_RX_ACK:
  3794                           
  3795                           	psect	text24
  3796  0384                     __ptext24:	
  3797 ;; *************** function _I2C_DO_SEND_STOP *****************
  3798 ;; Defined at:
  3799 ;;		line 423 in file "mcc_generated_files/i2c_master.c"
  3800 ;; Parameters:    Size  Location     Type
  3801 ;;		None
  3802 ;; Auto vars:     Size  Location     Type
  3803 ;;		None
  3804 ;; Return value:  Size  Location     Type
  3805 ;;                  1    wreg      enum E3370
  3806 ;; Registers used:
  3807 ;;		wreg, status,2, status,0, pclath, cstack
  3808 ;; Tracked objects:
  3809 ;;		On entry : 0/0
  3810 ;;		On exit  : 0/0
  3811 ;;		Unchanged: 0/0
  3812 ;; Data sizes:     COMMON   BANK0   BANK1   BANK2   BANK3   BANK4   BANK5   BANK6   BANK7   BANK8   BANK9  BANK10  BANK1
      +1  BANK12
  3813 ;;      Params:         0       0       0       0       0       0       0       0       0       0       0       0       
      +0       0
  3814 ;;      Locals:         0       0       0       0       0       0       0       0       0       0       0       0       
      +0       0
  3815 ;;      Temps:          0       0       0       0       0       0       0       0       0       0       0       0       
      +0       0
  3816 ;;      Totals:         0       0       0       0       0       0       0       0       0       0       0       0       
      +0       0
  3817 ;;Total ram usage:        0 bytes
  3818 ;; Hardware stack levels used: 1
  3819 ;; Hardware stack levels required when called: 1
  3820 ;; This function calls:
  3821 ;;		_I2C_MasterStop
  3822 ;; This function is called by:
  3823 ;;		_I2C_DO_TX
  3824 ;;		_I2C_DO_TX_EMPTY
  3825 ;;		_I2C_DO_ADDRESS_NACK
  3826 ;;		_I2C_MasterFsm
  3827 ;; This function uses a non-reentrant model
  3828 ;;
  3829                           
  3830  0384                     _I2C_DO_SEND_STOP:	
  3831                           ;psect for function _I2C_DO_SEND_STOP
  3832                           
  3833  0384                     l1966:	
  3834                           ;incstack = 0
  3835                           ; Regs used in _I2C_DO_SEND_STOP: [wreg+status,2+status,0+pclath+cstack]
  3836                           
  3837                           
  3838                           ;mcc_generated_files/i2c_master.c: 425:     I2C_MasterStop();
  3839  0384  3183  2353  3183   	fcall	_I2C_MasterStop
  3840  0387                     l1968:
  3841                           
  3842                           ;mcc_generated_files/i2c_master.c: 426:     return I2C_IDLE;
  3843  0387  3000               	movlw	0
  3844  0388                     l317:
  3845  0388  0008               	return
  3846  0389                     __end_of_I2C_DO_SEND_STOP:
  3847                           
  3848                           	psect	text25
  3849  037F                     __ptext25:	
  3850 ;; *************** function _I2C_DO_SEND_RESTART *****************
  3851 ;; Defined at:
  3852 ;;		line 417 in file "mcc_generated_files/i2c_master.c"
  3853 ;; Parameters:    Size  Location     Type
  3854 ;;		None
  3855 ;; Auto vars:     Size  Location     Type
  3856 ;;		None
  3857 ;; Return value:  Size  Location     Type
  3858 ;;                  1    wreg      enum E3370
  3859 ;; Registers used:
  3860 ;;		wreg, status,2, status,0, pclath, cstack
  3861 ;; Tracked objects:
  3862 ;;		On entry : 0/0
  3863 ;;		On exit  : 0/0
  3864 ;;		Unchanged: 0/0
  3865 ;; Data sizes:     COMMON   BANK0   BANK1   BANK2   BANK3   BANK4   BANK5   BANK6   BANK7   BANK8   BANK9  BANK10  BANK1
      +1  BANK12
  3866 ;;      Params:         0       0       0       0       0       0       0       0       0       0       0       0       
      +0       0
  3867 ;;      Locals:         0       0       0       0       0       0       0       0       0       0       0       0       
      +0       0
  3868 ;;      Temps:          0       0       0       0       0       0       0       0       0       0       0       0       
      +0       0
  3869 ;;      Totals:         0       0       0       0       0       0       0       0       0       0       0       0       
      +0       0
  3870 ;;Total ram usage:        0 bytes
  3871 ;; Hardware stack levels used: 1
  3872 ;; Hardware stack levels required when called: 1
  3873 ;; This function calls:
  3874 ;;		_I2C_MasterEnableRestart
  3875 ;; This function is called by:
  3876 ;;		_I2C_DO_TX_EMPTY
  3877 ;;		_I2C_DO_ADDRESS_NACK
  3878 ;;		_I2C_MasterFsm
  3879 ;; This function uses a non-reentrant model
  3880 ;;
  3881                           
  3882  037F                     _I2C_DO_SEND_RESTART:	
  3883                           ;psect for function _I2C_DO_SEND_RESTART
  3884                           
  3885  037F                     l1992:	
  3886                           ;incstack = 0
  3887                           ; Regs used in _I2C_DO_SEND_RESTART: [wreg+status,2+status,0+pclath+cstack]
  3888                           
  3889                           
  3890                           ;mcc_generated_files/i2c_master.c: 419:     I2C_MasterEnableRestart();
  3891  037F  3183  2350  3183   	fcall	_I2C_MasterEnableRestart
  3892  0382                     l1994:
  3893                           
  3894                           ;mcc_generated_files/i2c_master.c: 420:     return I2C_SEND_ADR_READ;
  3895  0382  3001               	movlw	1
  3896  0383                     l314:
  3897  0383  0008               	return
  3898  0384                     __end_of_I2C_DO_SEND_RESTART:
  3899                           
  3900                           	psect	text26
  3901  037A                     __ptext26:	
  3902 ;; *************** function _I2C_DO_SEND_RESTART_WRITE *****************
  3903 ;; Defined at:
  3904 ;;		line 410 in file "mcc_generated_files/i2c_master.c"
  3905 ;; Parameters:    Size  Location     Type
  3906 ;;		None
  3907 ;; Auto vars:     Size  Location     Type
  3908 ;;		None
  3909 ;; Return value:  Size  Location     Type
  3910 ;;                  1    wreg      enum E3370
  3911 ;; Registers used:
  3912 ;;		wreg, status,2, status,0, pclath, cstack
  3913 ;; Tracked objects:
  3914 ;;		On entry : 0/0
  3915 ;;		On exit  : 0/0
  3916 ;;		Unchanged: 0/0
  3917 ;; Data sizes:     COMMON   BANK0   BANK1   BANK2   BANK3   BANK4   BANK5   BANK6   BANK7   BANK8   BANK9  BANK10  BANK1
      +1  BANK12
  3918 ;;      Params:         0       0       0       0       0       0       0       0       0       0       0       0       
      +0       0
  3919 ;;      Locals:         0       0       0       0       0       0       0       0       0       0       0       0       
      +0       0
  3920 ;;      Temps:          0       0       0       0       0       0       0       0       0       0       0       0       
      +0       0
  3921 ;;      Totals:         0       0       0       0       0       0       0       0       0       0       0       0       
      +0       0
  3922 ;;Total ram usage:        0 bytes
  3923 ;; Hardware stack levels used: 1
  3924 ;; Hardware stack levels required when called: 1
  3925 ;; This function calls:
  3926 ;;		_I2C_MasterEnableRestart
  3927 ;; This function is called by:
  3928 ;;		_I2C_DO_TX
  3929 ;;		_I2C_MasterFsm
  3930 ;; This function uses a non-reentrant model
  3931 ;;
  3932                           
  3933  037A                     _I2C_DO_SEND_RESTART_WRITE:	
  3934                           ;psect for function _I2C_DO_SEND_RESTART_WRITE
  3935                           
  3936  037A                     l1960:	
  3937                           ;incstack = 0
  3938                           ; Regs used in _I2C_DO_SEND_RESTART_WRITE: [wreg+status,2+status,0+pclath+cstack]
  3939                           
  3940                           
  3941                           ;mcc_generated_files/i2c_master.c: 412:     I2C_MasterEnableRestart();
  3942  037A  3183  2350  3183   	fcall	_I2C_MasterEnableRestart
  3943  037D                     l1962:
  3944                           
  3945                           ;mcc_generated_files/i2c_master.c: 413:     return I2C_SEND_ADR_WRITE;
  3946  037D  3002               	movlw	2
  3947  037E                     l311:
  3948  037E  0008               	return
  3949  037F                     __end_of_I2C_DO_SEND_RESTART_WRITE:
  3950                           
  3951                           	psect	text27
  3952  0375                     __ptext27:	
  3953 ;; *************** function _I2C_DO_SEND_RESTART_READ *****************
  3954 ;; Defined at:
  3955 ;;		line 404 in file "mcc_generated_files/i2c_master.c"
  3956 ;; Parameters:    Size  Location     Type
  3957 ;;		None
  3958 ;; Auto vars:     Size  Location     Type
  3959 ;;		None
  3960 ;; Return value:  Size  Location     Type
  3961 ;;                  1    wreg      enum E3370
  3962 ;; Registers used:
  3963 ;;		wreg, status,2, status,0, pclath, cstack
  3964 ;; Tracked objects:
  3965 ;;		On entry : 0/0
  3966 ;;		On exit  : 0/0
  3967 ;;		Unchanged: 0/0
  3968 ;; Data sizes:     COMMON   BANK0   BANK1   BANK2   BANK3   BANK4   BANK5   BANK6   BANK7   BANK8   BANK9  BANK10  BANK1
      +1  BANK12
  3969 ;;      Params:         0       0       0       0       0       0       0       0       0       0       0       0       
      +0       0
  3970 ;;      Locals:         0       0       0       0       0       0       0       0       0       0       0       0       
      +0       0
  3971 ;;      Temps:          0       0       0       0       0       0       0       0       0       0       0       0       
      +0       0
  3972 ;;      Totals:         0       0       0       0       0       0       0       0       0       0       0       0       
      +0       0
  3973 ;;Total ram usage:        0 bytes
  3974 ;; Hardware stack levels used: 1
  3975 ;; Hardware stack levels required when called: 1
  3976 ;; This function calls:
  3977 ;;		_I2C_MasterEnableRestart
  3978 ;; This function is called by:
  3979 ;;		_I2C_DO_TX
  3980 ;;		_I2C_MasterFsm
  3981 ;; This function uses a non-reentrant model
  3982 ;;
  3983                           
  3984  0375                     _I2C_DO_SEND_RESTART_READ:	
  3985                           ;psect for function _I2C_DO_SEND_RESTART_READ
  3986                           
  3987  0375                     l1954:	
  3988                           ;incstack = 0
  3989                           ; Regs used in _I2C_DO_SEND_RESTART_READ: [wreg+status,2+status,0+pclath+cstack]
  3990                           
  3991                           
  3992                           ;mcc_generated_files/i2c_master.c: 406:     I2C_MasterEnableRestart();
  3993  0375  3183  2350  3183   	fcall	_I2C_MasterEnableRestart
  3994  0378                     l1956:
  3995                           
  3996                           ;mcc_generated_files/i2c_master.c: 407:     return I2C_SEND_ADR_READ;
  3997  0378  3001               	movlw	1
  3998  0379                     l308:
  3999  0379  0008               	return
  4000  037A                     __end_of_I2C_DO_SEND_RESTART_READ:
  4001                           
  4002                           	psect	text28
  4003  03B9                     __ptext28:	
  4004 ;; *************** function _I2C_DO_RCEN *****************
  4005 ;; Defined at:
  4006 ;;		line 356 in file "mcc_generated_files/i2c_master.c"
  4007 ;; Parameters:    Size  Location     Type
  4008 ;;		None
  4009 ;; Auto vars:     Size  Location     Type
  4010 ;;		None
  4011 ;; Return value:  Size  Location     Type
  4012 ;;                  1    wreg      enum E3370
  4013 ;; Registers used:
  4014 ;;		wreg, status,2, status,0, pclath, cstack
  4015 ;; Tracked objects:
  4016 ;;		On entry : 0/0
  4017 ;;		On exit  : 0/0
  4018 ;;		Unchanged: 0/0
  4019 ;; Data sizes:     COMMON   BANK0   BANK1   BANK2   BANK3   BANK4   BANK5   BANK6   BANK7   BANK8   BANK9  BANK10  BANK1
      +1  BANK12
  4020 ;;      Params:         0       0       0       0       0       0       0       0       0       0       0       0       
      +0       0
  4021 ;;      Locals:         0       0       0       0       0       0       0       0       0       0       0       0       
      +0       0
  4022 ;;      Temps:          0       0       0       0       0       0       0       0       0       0       0       0       
      +0       0
  4023 ;;      Totals:         0       0       0       0       0       0       0       0       0       0       0       0       
      +0       0
  4024 ;;Total ram usage:        0 bytes
  4025 ;; Hardware stack levels used: 1
  4026 ;; Hardware stack levels required when called: 1
  4027 ;; This function calls:
  4028 ;;		_I2C_MasterStartRx
  4029 ;; This function is called by:
  4030 ;;		_I2C_MasterFsm
  4031 ;; This function uses a non-reentrant model
  4032 ;;
  4033                           
  4034  03B9                     _I2C_DO_RCEN:	
  4035                           ;psect for function _I2C_DO_RCEN
  4036                           
  4037  03B9                     l2128:	
  4038                           ;incstack = 0
  4039                           ; Regs used in _I2C_DO_RCEN: [wreg+status,2+status,0+pclath+cstack]
  4040                           
  4041                           
  4042                           ;mcc_generated_files/i2c_master.c: 358:     I2C_Status.addressNackCheck = 0;
  4043  03B9  0020               	movlb	0	; select bank0
  4044  03BA  103C               	bcf	_I2C_Status+28,0
  4045  03BB                     l2130:
  4046                           
  4047                           ;mcc_generated_files/i2c_master.c: 359:     I2C_MasterStartRx();
  4048  03BB  3183  2356  3183   	fcall	_I2C_MasterStartRx
  4049  03BE                     l2132:
  4050                           
  4051                           ;mcc_generated_files/i2c_master.c: 360:     return I2C_RX;
  4052  03BE  3004               	movlw	4
  4053  03BF                     l284:
  4054  03BF  0008               	return
  4055  03C0                     __end_of_I2C_DO_RCEN:
  4056                           
  4057                           	psect	text29
  4058  0614                     __ptext29:	
  4059 ;; *************** function _I2C_DO_RX *****************
  4060 ;; Defined at:
  4061 ;;		line 332 in file "mcc_generated_files/i2c_master.c"
  4062 ;; Parameters:    Size  Location     Type
  4063 ;;		None
  4064 ;; Auto vars:     Size  Location     Type
  4065 ;;		None
  4066 ;; Return value:  Size  Location     Type
  4067 ;;                  1    wreg      enum E3370
  4068 ;; Registers used:
  4069 ;;		wreg, fsr0l, fsr0h, fsr1l, fsr1h, status,2, status,0, pclath, cstack
  4070 ;; Tracked objects:
  4071 ;;		On entry : 0/0
  4072 ;;		On exit  : 0/0
  4073 ;;		Unchanged: 0/0
  4074 ;; Data sizes:     COMMON   BANK0   BANK1   BANK2   BANK3   BANK4   BANK5   BANK6   BANK7   BANK8   BANK9  BANK10  BANK1
      +1  BANK12
  4075 ;;      Params:         0       0       0       0       0       0       0       0       0       0       0       0       
      +0       0
  4076 ;;      Locals:         0       0       0       0       0       0       0       0       0       0       0       0       
      +0       0
  4077 ;;      Temps:          3       0       0       0       0       0       0       0       0       0       0       0       
      +0       0
  4078 ;;      Totals:         3       0       0       0       0       0       0       0       0       0       0       0       
      +0       0
  4079 ;;Total ram usage:        3 bytes
  4080 ;; Hardware stack levels used: 1
  4081 ;; Hardware stack levels required when called: 3
  4082 ;; This function calls:
  4083 ;;		Absolute function
  4084 ;;		_I2C_CallbackReturnReset
  4085 ;;		_I2C_CallbackReturnStop
  4086 ;;		_I2C_DO_RX_NACK_RESTART
  4087 ;;		_I2C_DO_RX_NACK_STOP
  4088 ;;		_I2C_MasterGetRxData
  4089 ;;		_I2C_MasterSendAck
  4090 ;;		_rd1RegCompleteHandler
  4091 ;;		_rdBlkRegCompleteHandler
  4092 ;;		_wr1RegCompleteHandler
  4093 ;;		_wr2RegCompleteHandler
  4094 ;; This function is called by:
  4095 ;;		_I2C_MasterFsm
  4096 ;; This function uses a non-reentrant model
  4097 ;;
  4098                           
  4099  0614                     _I2C_DO_RX:	
  4100                           ;psect for function _I2C_DO_RX
  4101                           
  4102  0614                     l2098:	
  4103                           ;incstack = 0
  4104                           ; Regs used in _I2C_DO_RX: [wreg-fsr1h+status,2+status,0+pclath+cstack]
  4105                           
  4106                           
  4107                           ;mcc_generated_files/i2c_master.c: 334:     *I2C_Status.data_ptr++ = I2C_MasterGetRxData
      +                          ();
  4108  0614  3183  2359  3186   	fcall	_I2C_MasterGetRxData
  4109  0617  00F0               	movwf	??_I2C_DO_RX
  4110  0618  0020               	movlb	0	; select bank0
  4111  0619  0837               	movf	low ((_I2C_Status| 0+23)),w
  4112  061A  0086               	movwf	6
  4113  061B  0187               	clrf	7
  4114  061C  0870               	movf	??_I2C_DO_RX,w
  4115  061D  0081               	movwf	1
  4116  061E                     l2100:
  4117  061E  3001               	movlw	1
  4118  061F  00F0               	movwf	??_I2C_DO_RX
  4119  0620  0870               	movf	??_I2C_DO_RX,w
  4120  0621  07B7               	addwf	low ((_I2C_Status| 0+23)),f
  4121  0622                     l2102:
  4122                           
  4123                           ;mcc_generated_files/i2c_master.c: 335:     if(--I2C_Status.data_length)
  4124  0622  3001               	movlw	1
  4125  0623  02B8               	subwf	_I2C_Status+24,f
  4126  0624  3000               	movlw	0
  4127  0625  3BB9               	subwfb	_I2C_Status+25,f
  4128  0626  0838               	movf	_I2C_Status+24,w
  4129  0627  0439               	iorwf	_I2C_Status+25,w
  4130  0628  1903               	btfsc	3,2
  4131  0629  2E2B               	goto	u601
  4132  062A  2E2C               	goto	u600
  4133  062B                     u601:
  4134  062B  2E31               	goto	l272
  4135  062C                     u600:
  4136  062C                     l2104:
  4137                           
  4138                           ;mcc_generated_files/i2c_master.c: 336:     {;mcc_generated_files/i2c_master.c: 337:    
      +                               I2C_MasterSendAck();
  4139  062C  3183  2363  3186   	fcall	_I2C_MasterSendAck
  4140  062F                     l2106:
  4141                           
  4142                           ;mcc_generated_files/i2c_master.c: 338:         return I2C_RCEN;
  4143  062F  3005               	movlw	5
  4144  0630  2E59               	goto	l273
  4145  0631                     l272:	
  4146                           ;mcc_generated_files/i2c_master.c: 340:     else
  4147                           
  4148                           
  4149                           ;mcc_generated_files/i2c_master.c: 341:     {;mcc_generated_files/i2c_master.c: 342:    
      +                               I2C_Status.bufferFree = 1;
  4150  0631  15BC               	bsf	_I2C_Status+28,3
  4151                           
  4152                           ;mcc_generated_files/i2c_master.c: 343:         switch(I2C_Status.callbackTable[I2C_DATA
      +                          _COMPLETE](I2C_Status.callbackPayload[I2C_DATA_COMPLETE]))
  4153  0632  2E3B               	goto	l2122
  4154  0633                     l2112:
  4155                           
  4156                           ;mcc_generated_files/i2c_master.c: 347:                 return I2C_DO_RX_NACK_RESTART();
  4157  0633  3183  2393  3186   	fcall	_I2C_DO_RX_NACK_RESTART
  4158  0636  2E59               	goto	l273
  4159  0637                     l2116:
  4160                           
  4161                           ;mcc_generated_files/i2c_master.c: 351:                 return I2C_DO_RX_NACK_STOP();
  4162  0637  3183  238E  3186   	fcall	_I2C_DO_RX_NACK_STOP
  4163  063A  2E59               	goto	l273
  4164  063B                     l2122:
  4165  063B  082C               	movf	low ((_I2C_Status| 0+12)),w
  4166  063C  00F0               	movwf	??_I2C_DO_RX
  4167  063D  0870               	movf	??_I2C_DO_RX,w
  4168  063E  00F9               	movwf	rdBlkRegCompleteHandler@ptr
  4169  063F  0821               	movf	_I2C_Status+1,w
  4170  0640  008A               	movwf	10
  4171  0641  0820               	movf	_I2C_Status,w
  4172  0642  000A               	callw
  4173  0643  3186               	pagesel	$
  4174  0644  00F1               	movwf	??_I2C_DO_RX+1
  4175  0645  01F2               	clrf	??_I2C_DO_RX+2
  4176                           
  4177                           ; Switch on 2 bytes has been partitioned into a top level switch of size 1, and 1 sub-sw
      +                          itches
  4178                           ; Switch size 1, requested type "simple"
  4179                           ; Number of cases is 1, Range of values is 0 to 0
  4180                           ; switch strategies available:
  4181                           ; Name         Instructions Cycles
  4182                           ; simple_byte            4     3 (average)
  4183                           ; direct_byte            8     6 (fixed)
  4184                           ; jumptable            260     6 (fixed)
  4185                           ;	Chosen strategy is simple_byte
  4186  0646  0872               	movf	??_I2C_DO_RX+2,w
  4187  0647  3A00               	xorlw	0	; case 0
  4188  0648  1903               	skipnz
  4189  0649  2E4B               	goto	l2694
  4190  064A  2E37               	goto	l2116
  4191  064B                     l2694:
  4192                           
  4193                           ; Switch size 1, requested type "simple"
  4194                           ; Number of cases is 4, Range of values is 1 to 4
  4195                           ; switch strategies available:
  4196                           ; Name         Instructions Cycles
  4197                           ; simple_byte           13     7 (average)
  4198                           ; direct_byte           17     9 (fixed)
  4199                           ; jumptable            263     9 (fixed)
  4200                           ;	Chosen strategy is simple_byte
  4201  064B  0871               	movf	??_I2C_DO_RX+1,w
  4202  064C  3A01               	xorlw	1	; case 1
  4203  064D  1903               	skipnz
  4204  064E  2E37               	goto	l2116
  4205  064F  3A03               	xorlw	3	; case 2
  4206  0650  1903               	skipnz
  4207  0651  2E33               	goto	l2112
  4208  0652  3A01               	xorlw	1	; case 3
  4209  0653  1903               	skipnz
  4210  0654  2E33               	goto	l2112
  4211  0655  3A07               	xorlw	7	; case 4
  4212  0656  1903               	skipnz
  4213  0657  2E37               	goto	l2116
  4214  0658  2E37               	goto	l2116
  4215  0659                     l273:
  4216  0659  0008               	return
  4217  065A                     __end_of_I2C_DO_RX:
  4218                           
  4219                           	psect	text30
  4220  06AD                     __ptext30:	
  4221 ;; *************** function _I2C_DO_TX *****************
  4222 ;; Defined at:
  4223 ;;		line 308 in file "mcc_generated_files/i2c_master.c"
  4224 ;; Parameters:    Size  Location     Type
  4225 ;;		None
  4226 ;; Auto vars:     Size  Location     Type
  4227 ;;		None
  4228 ;; Return value:  Size  Location     Type
  4229 ;;                  1    wreg      enum E3370
  4230 ;; Registers used:
  4231 ;;		wreg, fsr0l, fsr0h, fsr1l, fsr1h, status,2, status,0, pclath, cstack
  4232 ;; Tracked objects:
  4233 ;;		On entry : 0/0
  4234 ;;		On exit  : 0/0
  4235 ;;		Unchanged: 0/0
  4236 ;; Data sizes:     COMMON   BANK0   BANK1   BANK2   BANK3   BANK4   BANK5   BANK6   BANK7   BANK8   BANK9  BANK10  BANK1
      +1  BANK12
  4237 ;;      Params:         0       0       0       0       0       0       0       0       0       0       0       0       
      +0       0
  4238 ;;      Locals:         0       0       0       0       0       0       0       0       0       0       0       0       
      +0       0
  4239 ;;      Temps:          3       0       0       0       0       0       0       0       0       0       0       0       
      +0       0
  4240 ;;      Totals:         3       0       0       0       0       0       0       0       0       0       0       0       
      +0       0
  4241 ;;Total ram usage:        3 bytes
  4242 ;; Hardware stack levels used: 1
  4243 ;; Hardware stack levels required when called: 3
  4244 ;; This function calls:
  4245 ;;		Absolute function
  4246 ;;		_I2C_CallbackReturnReset
  4247 ;;		_I2C_CallbackReturnStop
  4248 ;;		_I2C_DO_SEND_RESTART_READ
  4249 ;;		_I2C_DO_SEND_RESTART_WRITE
  4250 ;;		_I2C_DO_SEND_STOP
  4251 ;;		_I2C_MasterIsNack
  4252 ;;		_I2C_MasterSendTxData
  4253 ;;		_rd1RegCompleteHandler
  4254 ;;		_rdBlkRegCompleteHandler
  4255 ;;		_wr1RegCompleteHandler
  4256 ;;		_wr2RegCompleteHandler
  4257 ;; This function is called by:
  4258 ;;		_I2C_MasterFsm
  4259 ;; This function uses a non-reentrant model
  4260 ;;
  4261                           
  4262  06AD                     _I2C_DO_TX:	
  4263                           ;psect for function _I2C_DO_TX
  4264                           
  4265  06AD                     l2064:	
  4266                           ;incstack = 0
  4267                           ; Regs used in _I2C_DO_TX: [wreg-fsr1h+status,2+status,0+pclath+cstack]
  4268                           
  4269                           
  4270                           ;mcc_generated_files/i2c_master.c: 310:     if(I2C_MasterIsNack())
  4271  06AD  3183  23A7  3186   	fcall	_I2C_MasterIsNack
  4272  06B0  3A00               	xorlw	0
  4273  06B1  1903               	skipnz
  4274  06B2  2EB4               	goto	u581
  4275  06B3  2EB5               	goto	u580
  4276  06B4                     u581:
  4277  06B4  2EE5               	goto	l256
  4278  06B5                     u580:
  4279  06B5  2EC2               	goto	l2082
  4280  06B6                     l2068:
  4281                           
  4282                           ;mcc_generated_files/i2c_master.c: 315:                 return I2C_DO_SEND_RESTART_READ(
      +                          );
  4283  06B6  3183  2375  3186   	fcall	_I2C_DO_SEND_RESTART_READ
  4284  06B9  2F01               	goto	l259
  4285  06BA                     l2072:
  4286                           
  4287                           ;mcc_generated_files/i2c_master.c: 317:                   return I2C_DO_SEND_RESTART_WRI
      +                          TE();
  4288  06BA  3183  237A  3186   	fcall	_I2C_DO_SEND_RESTART_WRITE
  4289  06BD  2F01               	goto	l259
  4290  06BE                     l2076:
  4291                           
  4292                           ;mcc_generated_files/i2c_master.c: 321:                 return I2C_DO_SEND_STOP();
  4293  06BE  3183  2384  3186   	fcall	_I2C_DO_SEND_STOP
  4294  06C1  2F01               	goto	l259
  4295  06C2                     l2082:
  4296  06C2  0020               	movlb	0	; select bank0
  4297  06C3  082F               	movf	low ((_I2C_Status| 0+15)),w
  4298  06C4  00F1               	movwf	??_I2C_DO_TX
  4299  06C5  0871               	movf	??_I2C_DO_TX,w
  4300  06C6  00F9               	movwf	rdBlkRegCompleteHandler@ptr
  4301  06C7  3006               	movlw	6
  4302  06C8  3E20               	addlw	(low (_I2C_Status| 0))& (0+255)
  4303  06C9  0086               	movwf	6
  4304  06CA  0187               	clrf	7
  4305  06CB  3F41               	moviw [1]fsr1
  4306  06CC  008A               	movwf	10
  4307  06CD  3F40               	moviw [0]fsr1
  4308  06CE  000A               	callw
  4309  06CF  3186               	pagesel	$
  4310  06D0  00F2               	movwf	??_I2C_DO_TX+1
  4311  06D1  01F3               	clrf	??_I2C_DO_TX+2
  4312                           
  4313                           ; Switch on 2 bytes has been partitioned into a top level switch of size 1, and 1 sub-sw
      +                          itches
  4314                           ; Switch size 1, requested type "simple"
  4315                           ; Number of cases is 1, Range of values is 0 to 0
  4316                           ; switch strategies available:
  4317                           ; Name         Instructions Cycles
  4318                           ; simple_byte            4     3 (average)
  4319                           ; direct_byte            8     6 (fixed)
  4320                           ; jumptable            260     6 (fixed)
  4321                           ;	Chosen strategy is simple_byte
  4322  06D2  0873               	movf	??_I2C_DO_TX+2,w
  4323  06D3  3A00               	xorlw	0	; case 0
  4324  06D4  1903               	skipnz
  4325  06D5  2ED7               	goto	l2696
  4326  06D6  2EBE               	goto	l2076
  4327  06D7                     l2696:
  4328                           
  4329                           ; Switch size 1, requested type "simple"
  4330                           ; Number of cases is 4, Range of values is 1 to 4
  4331                           ; switch strategies available:
  4332                           ; Name         Instructions Cycles
  4333                           ; simple_byte           13     7 (average)
  4334                           ; direct_byte           17     9 (fixed)
  4335                           ; jumptable            263     9 (fixed)
  4336                           ;	Chosen strategy is simple_byte
  4337  06D7  0872               	movf	??_I2C_DO_TX+1,w
  4338  06D8  3A01               	xorlw	1	; case 1
  4339  06D9  1903               	skipnz
  4340  06DA  2EBE               	goto	l2076
  4341  06DB  3A03               	xorlw	3	; case 2
  4342  06DC  1903               	skipnz
  4343  06DD  2EB6               	goto	l2068
  4344  06DE  3A01               	xorlw	1	; case 3
  4345  06DF  1903               	skipnz
  4346  06E0  2EBA               	goto	l2072
  4347  06E1  3A07               	xorlw	7	; case 4
  4348  06E2  1903               	skipnz
  4349  06E3  2EBE               	goto	l2076
  4350  06E4  2EBE               	goto	l2076
  4351  06E5                     l256:	
  4352                           ;mcc_generated_files/i2c_master.c: 324:     else
  4353                           
  4354                           
  4355                           ;mcc_generated_files/i2c_master.c: 325:     {;mcc_generated_files/i2c_master.c: 326:    
      +                               I2C_Status.addressNackCheck = 0;
  4356  06E5  0020               	movlb	0	; select bank0
  4357  06E6  103C               	bcf	_I2C_Status+28,0
  4358  06E7                     l2084:
  4359                           
  4360                           ;mcc_generated_files/i2c_master.c: 327:         I2C_MasterSendTxData(*I2C_Status.data_pt
      +                          r++);
  4361  06E7  3017               	movlw	23
  4362  06E8  3E20               	addlw	(low (_I2C_Status| 0))& (0+255)
  4363  06E9  0086               	movwf	6
  4364  06EA  0187               	clrf	7
  4365  06EB  3F40               	moviw [0]fsr1
  4366  06EC  0084               	movwf	4
  4367  06ED  0185               	clrf	5
  4368  06EE  0A81               	incf	1,f
  4369  06EF  0800               	movf	0,w
  4370  06F0  3183  236B  3186   	fcall	_I2C_MasterSendTxData
  4371  06F3                     l2086:
  4372                           
  4373                           ;mcc_generated_files/i2c_master.c: 328:         return (--I2C_Status.data_length)?I2C_TX
      +                          :I2C_TX_EMPTY;
  4374  06F3  3001               	movlw	1
  4375  06F4  0020               	movlb	0	; select bank0
  4376  06F5  02B8               	subwf	_I2C_Status+24,f
  4377  06F6  3000               	movlw	0
  4378  06F7  3BB9               	subwfb	_I2C_Status+25,f
  4379  06F8  0838               	movf	_I2C_Status+24,w
  4380  06F9  0439               	iorwf	_I2C_Status+25,w
  4381  06FA  1D03               	btfss	3,2
  4382  06FB  2EFD               	goto	u591
  4383  06FC  2EFE               	goto	u590
  4384  06FD                     u591:
  4385  06FD  2F00               	goto	l2090
  4386  06FE                     u590:
  4387  06FE                     l2088:
  4388  06FE  3006               	movlw	6
  4389  06FF  2F01               	goto	l259
  4390  0700                     l2090:
  4391  0700  3003               	movlw	3
  4392  0701                     l259:
  4393  0701  0008               	return
  4394  0702                     __end_of_I2C_DO_TX:
  4395                           
  4396                           	psect	text31
  4397  03C0                     __ptext31:	
  4398 ;; *************** function _I2C_DO_SEND_ADR_WRITE *****************
  4399 ;; Defined at:
  4400 ;;		line 301 in file "mcc_generated_files/i2c_master.c"
  4401 ;; Parameters:    Size  Location     Type
  4402 ;;		None
  4403 ;; Auto vars:     Size  Location     Type
  4404 ;;		None
  4405 ;; Return value:  Size  Location     Type
  4406 ;;                  1    wreg      enum E3370
  4407 ;; Registers used:
  4408 ;;		wreg, status,2, status,0, pclath, cstack
  4409 ;; Tracked objects:
  4410 ;;		On entry : 0/0
  4411 ;;		On exit  : 0/0
  4412 ;;		Unchanged: 0/0
  4413 ;; Data sizes:     COMMON   BANK0   BANK1   BANK2   BANK3   BANK4   BANK5   BANK6   BANK7   BANK8   BANK9  BANK10  BANK1
      +1  BANK12
  4414 ;;      Params:         0       0       0       0       0       0       0       0       0       0       0       0       
      +0       0
  4415 ;;      Locals:         0       0       0       0       0       0       0       0       0       0       0       0       
      +0       0
  4416 ;;      Temps:          0       0       0       0       0       0       0       0       0       0       0       0       
      +0       0
  4417 ;;      Totals:         0       0       0       0       0       0       0       0       0       0       0       0       
      +0       0
  4418 ;;Total ram usage:        0 bytes
  4419 ;; Hardware stack levels used: 1
  4420 ;; Hardware stack levels required when called: 1
  4421 ;; This function calls:
  4422 ;;		_I2C_MasterSendTxData
  4423 ;; This function is called by:
  4424 ;;		_I2C_MasterFsm
  4425 ;; This function uses a non-reentrant model
  4426 ;;
  4427                           
  4428  03C0                     _I2C_DO_SEND_ADR_WRITE:	
  4429                           ;psect for function _I2C_DO_SEND_ADR_WRITE
  4430                           
  4431  03C0                     l2056:	
  4432                           ;incstack = 0
  4433                           ; Regs used in _I2C_DO_SEND_ADR_WRITE: [wreg+status,2+status,0+pclath+cstack]
  4434                           
  4435                           
  4436                           ;mcc_generated_files/i2c_master.c: 303:     I2C_Status.addressNackCheck = 1;
  4437  03C0  0020               	movlb	0	; select bank0
  4438  03C1  143C               	bsf	_I2C_Status+28,0
  4439  03C2                     l2058:
  4440                           
  4441                           ;mcc_generated_files/i2c_master.c: 304:     I2C_MasterSendTxData((uint8_t) (I2C_Status.a
      +                          ddress << 1));
  4442  03C2  3536               	lslf	_I2C_Status+22,w
  4443  03C3  3183  236B  3183   	fcall	_I2C_MasterSendTxData
  4444  03C6                     l2060:
  4445                           
  4446                           ;mcc_generated_files/i2c_master.c: 305:     return I2C_TX;
  4447  03C6  3003               	movlw	3
  4448  03C7                     l253:
  4449  03C7  0008               	return
  4450  03C8                     __end_of_I2C_DO_SEND_ADR_WRITE:
  4451                           
  4452                           	psect	text32
  4453  03C8                     __ptext32:	
  4454 ;; *************** function _I2C_DO_SEND_ADR_READ *****************
  4455 ;; Defined at:
  4456 ;;		line 294 in file "mcc_generated_files/i2c_master.c"
  4457 ;; Parameters:    Size  Location     Type
  4458 ;;		None
  4459 ;; Auto vars:     Size  Location     Type
  4460 ;;		None
  4461 ;; Return value:  Size  Location     Type
  4462 ;;                  1    wreg      enum E3370
  4463 ;; Registers used:
  4464 ;;		wreg, status,2, status,0, pclath, cstack
  4465 ;; Tracked objects:
  4466 ;;		On entry : 0/0
  4467 ;;		On exit  : 0/0
  4468 ;;		Unchanged: 0/0
  4469 ;; Data sizes:     COMMON   BANK0   BANK1   BANK2   BANK3   BANK4   BANK5   BANK6   BANK7   BANK8   BANK9  BANK10  BANK1
      +1  BANK12
  4470 ;;      Params:         0       0       0       0       0       0       0       0       0       0       0       0       
      +0       0
  4471 ;;      Locals:         0       0       0       0       0       0       0       0       0       0       0       0       
      +0       0
  4472 ;;      Temps:          0       0       0       0       0       0       0       0       0       0       0       0       
      +0       0
  4473 ;;      Totals:         0       0       0       0       0       0       0       0       0       0       0       0       
      +0       0
  4474 ;;Total ram usage:        0 bytes
  4475 ;; Hardware stack levels used: 1
  4476 ;; Hardware stack levels required when called: 1
  4477 ;; This function calls:
  4478 ;;		_I2C_MasterSendTxData
  4479 ;; This function is called by:
  4480 ;;		_I2C_MasterFsm
  4481 ;; This function uses a non-reentrant model
  4482 ;;
  4483                           
  4484  03C8                     _I2C_DO_SEND_ADR_READ:	
  4485                           ;psect for function _I2C_DO_SEND_ADR_READ
  4486                           
  4487  03C8                     l2048:	
  4488                           ;incstack = 0
  4489                           ; Regs used in _I2C_DO_SEND_ADR_READ: [wreg+status,2+status,0+pclath+cstack]
  4490                           
  4491                           
  4492                           ;mcc_generated_files/i2c_master.c: 296:     I2C_Status.addressNackCheck = 1;
  4493  03C8  0020               	movlb	0	; select bank0
  4494  03C9  143C               	bsf	_I2C_Status+28,0
  4495  03CA                     l2050:
  4496                           
  4497                           ;mcc_generated_files/i2c_master.c: 297:     I2C_MasterSendTxData((uint8_t) (I2C_Status.a
      +                          ddress << 1 | 1));
  4498  03CA  1403               	setc
  4499  03CB  0D36               	rlf	_I2C_Status+22,w
  4500  03CC  3183  236B  3183   	fcall	_I2C_MasterSendTxData
  4501  03CF                     l2052:
  4502                           
  4503                           ;mcc_generated_files/i2c_master.c: 298:     return I2C_RCEN;
  4504  03CF  3005               	movlw	5
  4505  03D0                     l250:
  4506  03D0  0008               	return
  4507  03D1                     __end_of_I2C_DO_SEND_ADR_READ:
  4508                           
  4509                           	psect	text33
  4510  0370                     __ptext33:	
  4511 ;; *************** function _I2C_DO_IDLE *****************
  4512 ;; Defined at:
  4513 ;;		line 287 in file "mcc_generated_files/i2c_master.c"
  4514 ;; Parameters:    Size  Location     Type
  4515 ;;		None
  4516 ;; Auto vars:     Size  Location     Type
  4517 ;;		None
  4518 ;; Return value:  Size  Location     Type
  4519 ;;                  1    wreg      enum E3370
  4520 ;; Registers used:
  4521 ;;		wreg, status,2
  4522 ;; Tracked objects:
  4523 ;;		On entry : 0/0
  4524 ;;		On exit  : 0/0
  4525 ;;		Unchanged: 0/0
  4526 ;; Data sizes:     COMMON   BANK0   BANK1   BANK2   BANK3   BANK4   BANK5   BANK6   BANK7   BANK8   BANK9  BANK10  BANK1
      +1  BANK12
  4527 ;;      Params:         0       0       0       0       0       0       0       0       0       0       0       0       
      +0       0
  4528 ;;      Locals:         0       0       0       0       0       0       0       0       0       0       0       0       
      +0       0
  4529 ;;      Temps:          0       0       0       0       0       0       0       0       0       0       0       0       
      +0       0
  4530 ;;      Totals:         0       0       0       0       0       0       0       0       0       0       0       0       
      +0       0
  4531 ;;Total ram usage:        0 bytes
  4532 ;; Hardware stack levels used: 1
  4533 ;; This function calls:
  4534 ;;		Nothing
  4535 ;; This function is called by:
  4536 ;;		_I2C_MasterFsm
  4537 ;; This function uses a non-reentrant model
  4538 ;;
  4539                           
  4540  0370                     _I2C_DO_IDLE:	
  4541                           ;psect for function _I2C_DO_IDLE
  4542                           
  4543  0370                     l2040:	
  4544                           ;incstack = 0
  4545                           ; Regs used in _I2C_DO_IDLE: [wreg+status,2]
  4546                           
  4547                           
  4548                           ;mcc_generated_files/i2c_master.c: 289:     I2C_Status.busy = 0;
  4549  0370  0020               	movlb	0	; select bank0
  4550  0371  10BC               	bcf	_I2C_Status+28,1
  4551  0372                     l2042:
  4552                           
  4553                           ;mcc_generated_files/i2c_master.c: 290:     I2C_Status.error = I2C_NOERR;
  4554  0372  01BB               	clrf	_I2C_Status+27
  4555  0373                     l2044:
  4556                           
  4557                           ;mcc_generated_files/i2c_master.c: 291:     return I2C_RESET;
  4558  0373  300E               	movlw	14
  4559  0374                     l247:
  4560  0374  0008               	return
  4561  0375                     __end_of_I2C_DO_IDLE:
  4562                           
  4563                           	psect	text34
  4564  057B                     __ptext34:	
  4565 ;; *************** function _I2C_DO_TX_EMPTY *****************
  4566 ;; Defined at:
  4567 ;;		line 363 in file "mcc_generated_files/i2c_master.c"
  4568 ;; Parameters:    Size  Location     Type
  4569 ;;		None
  4570 ;; Auto vars:     Size  Location     Type
  4571 ;;		None
  4572 ;; Return value:  Size  Location     Type
  4573 ;;                  1    wreg      enum E3370
  4574 ;; Registers used:
  4575 ;;		wreg, fsr0l, fsr0h, fsr1l, fsr1h, status,2, status,0, pclath, cstack
  4576 ;; Tracked objects:
  4577 ;;		On entry : 0/0
  4578 ;;		On exit  : 0/0
  4579 ;;		Unchanged: 0/0
  4580 ;; Data sizes:     COMMON   BANK0   BANK1   BANK2   BANK3   BANK4   BANK5   BANK6   BANK7   BANK8   BANK9  BANK10  BANK1
      +1  BANK12
  4581 ;;      Params:         0       0       0       0       0       0       0       0       0       0       0       0       
      +0       0
  4582 ;;      Locals:         0       0       0       0       0       0       0       0       0       0       0       0       
      +0       0
  4583 ;;      Temps:          3       0       0       0       0       0       0       0       0       0       0       0       
      +0       0
  4584 ;;      Totals:         3       0       0       0       0       0       0       0       0       0       0       0       
      +0       0
  4585 ;;Total ram usage:        3 bytes
  4586 ;; Hardware stack levels used: 1
  4587 ;; Hardware stack levels required when called: 3
  4588 ;; This function calls:
  4589 ;;		Absolute function
  4590 ;;		_I2C_CallbackReturnReset
  4591 ;;		_I2C_CallbackReturnStop
  4592 ;;		_I2C_DO_SEND_RESTART
  4593 ;;		_I2C_DO_SEND_STOP
  4594 ;;		_I2C_MasterSetIrq
  4595 ;;		_rd1RegCompleteHandler
  4596 ;;		_rdBlkRegCompleteHandler
  4597 ;;		_wr1RegCompleteHandler
  4598 ;;		_wr2RegCompleteHandler
  4599 ;; This function is called by:
  4600 ;;		_I2C_MasterFsm
  4601 ;; This function uses a non-reentrant model
  4602 ;;
  4603                           
  4604  057B                     _I2C_DO_TX_EMPTY:	
  4605                           ;psect for function _I2C_DO_TX_EMPTY
  4606                           
  4607  057B                     l2136:	
  4608                           ;incstack = 0
  4609                           ; Regs used in _I2C_DO_TX_EMPTY: [wreg-fsr1h+status,2+status,0+pclath+cstack]
  4610                           
  4611                           
  4612                           ;mcc_generated_files/i2c_master.c: 365:     I2C_Status.bufferFree = 1;
  4613  057B  0020               	movlb	0	; select bank0
  4614  057C  15BC               	bsf	_I2C_Status+28,3
  4615                           
  4616                           ;mcc_generated_files/i2c_master.c: 366:     switch(I2C_Status.callbackTable[I2C_DATA_COM
      +                          PLETE](I2C_Status.callbackPayload[I2C_DATA_COMPLETE]))
  4617  057D  2D8B               	goto	l2154
  4618  057E                     l2138:
  4619                           
  4620                           ;mcc_generated_files/i2c_master.c: 370:             return I2C_DO_SEND_RESTART();
  4621  057E  3183  237F  3185   	fcall	_I2C_DO_SEND_RESTART
  4622  0581  2DA9               	goto	l290
  4623  0582                     l2142:
  4624                           
  4625                           ;mcc_generated_files/i2c_master.c: 372:             I2C_MasterSetIrq();
  4626  0582  3183  235C  3185   	fcall	_I2C_MasterSetIrq
  4627  0585                     l2144:
  4628                           
  4629                           ;mcc_generated_files/i2c_master.c: 373:             return I2C_TX;
  4630  0585  3003               	movlw	3
  4631  0586  2DA9               	goto	l290
  4632  0587                     l2148:
  4633                           
  4634                           ;mcc_generated_files/i2c_master.c: 376:             return I2C_DO_SEND_STOP();
  4635  0587  3183  2384  3185   	fcall	_I2C_DO_SEND_STOP
  4636  058A  2DA9               	goto	l290
  4637  058B                     l2154:
  4638  058B  082C               	movf	low ((_I2C_Status| 0+12)),w
  4639  058C  00F0               	movwf	??_I2C_DO_TX_EMPTY
  4640  058D  0870               	movf	??_I2C_DO_TX_EMPTY,w
  4641  058E  00F9               	movwf	rdBlkRegCompleteHandler@ptr
  4642  058F  0821               	movf	_I2C_Status+1,w
  4643  0590  008A               	movwf	10
  4644  0591  0820               	movf	_I2C_Status,w
  4645  0592  000A               	callw
  4646  0593  3185               	pagesel	$
  4647  0594  00F1               	movwf	??_I2C_DO_TX_EMPTY+1
  4648  0595  01F2               	clrf	??_I2C_DO_TX_EMPTY+2
  4649                           
  4650                           ; Switch on 2 bytes has been partitioned into a top level switch of size 1, and 1 sub-sw
      +                          itches
  4651                           ; Switch size 1, requested type "simple"
  4652                           ; Number of cases is 1, Range of values is 0 to 0
  4653                           ; switch strategies available:
  4654                           ; Name         Instructions Cycles
  4655                           ; simple_byte            4     3 (average)
  4656                           ; direct_byte            8     6 (fixed)
  4657                           ; jumptable            260     6 (fixed)
  4658                           ;	Chosen strategy is simple_byte
  4659  0596  0872               	movf	??_I2C_DO_TX_EMPTY+2,w
  4660  0597  3A00               	xorlw	0	; case 0
  4661  0598  1903               	skipnz
  4662  0599  2D9B               	goto	l2698
  4663  059A  2D87               	goto	l2148
  4664  059B                     l2698:
  4665                           
  4666                           ; Switch size 1, requested type "simple"
  4667                           ; Number of cases is 4, Range of values is 1 to 4
  4668                           ; switch strategies available:
  4669                           ; Name         Instructions Cycles
  4670                           ; simple_byte           13     7 (average)
  4671                           ; direct_byte           17     9 (fixed)
  4672                           ; jumptable            263     9 (fixed)
  4673                           ;	Chosen strategy is simple_byte
  4674  059B  0871               	movf	??_I2C_DO_TX_EMPTY+1,w
  4675  059C  3A01               	xorlw	1	; case 1
  4676  059D  1903               	skipnz
  4677  059E  2D87               	goto	l2148
  4678  059F  3A03               	xorlw	3	; case 2
  4679  05A0  1903               	skipnz
  4680  05A1  2D7E               	goto	l2138
  4681  05A2  3A01               	xorlw	1	; case 3
  4682  05A3  1903               	skipnz
  4683  05A4  2D7E               	goto	l2138
  4684  05A5  3A07               	xorlw	7	; case 4
  4685  05A6  1903               	skipnz
  4686  05A7  2D82               	goto	l2142
  4687  05A8  2D87               	goto	l2148
  4688  05A9                     l290:
  4689  05A9  0008               	return
  4690  05AA                     __end_of_I2C_DO_TX_EMPTY:
  4691                           
  4692                           	psect	text35
  4693  035C                     __ptext35:	
  4694 ;; *************** function _I2C_MasterSetIrq *****************
  4695 ;; Defined at:
  4696 ;;		line 599 in file "mcc_generated_files/i2c_master.c"
  4697 ;; Parameters:    Size  Location     Type
  4698 ;;		None
  4699 ;; Auto vars:     Size  Location     Type
  4700 ;;		None
  4701 ;; Return value:  Size  Location     Type
  4702 ;;                  1    wreg      void 
  4703 ;; Registers used:
  4704 ;;		None
  4705 ;; Tracked objects:
  4706 ;;		On entry : 0/0
  4707 ;;		On exit  : 0/0
  4708 ;;		Unchanged: 0/0
  4709 ;; Data sizes:     COMMON   BANK0   BANK1   BANK2   BANK3   BANK4   BANK5   BANK6   BANK7   BANK8   BANK9  BANK10  BANK1
      +1  BANK12
  4710 ;;      Params:         0       0       0       0       0       0       0       0       0       0       0       0       
      +0       0
  4711 ;;      Locals:         0       0       0       0       0       0       0       0       0       0       0       0       
      +0       0
  4712 ;;      Temps:          0       0       0       0       0       0       0       0       0       0       0       0       
      +0       0
  4713 ;;      Totals:         0       0       0       0       0       0       0       0       0       0       0       0       
      +0       0
  4714 ;;Total ram usage:        0 bytes
  4715 ;; Hardware stack levels used: 1
  4716 ;; This function calls:
  4717 ;;		Nothing
  4718 ;; This function is called by:
  4719 ;;		_I2C_DO_TX_EMPTY
  4720 ;; This function uses a non-reentrant model
  4721 ;;
  4722                           
  4723  035C                     _I2C_MasterSetIrq:	
  4724                           ;psect for function _I2C_MasterSetIrq
  4725                           
  4726  035C                     l1998:	
  4727                           ;incstack = 0
  4728                           ; Regs used in _I2C_MasterSetIrq: []
  4729                           
  4730                           
  4731                           ;mcc_generated_files/i2c_master.c: 601:     PIR1bits.SSPIF = 1;
  4732  035C  0020               	movlb	0	; select bank0
  4733  035D  1591               	bsf	17,3	;volatile
  4734  035E                     l410:
  4735  035E  0008               	return
  4736  035F                     __end_of_I2C_MasterSetIrq:
  4737                           
  4738                           	psect	text36
  4739  03A7                     __ptext36:	
  4740 ;; *************** function _I2C_MasterIsNack *****************
  4741 ;; Defined at:
  4742 ;;		line 552 in file "mcc_generated_files/i2c_master.c"
  4743 ;; Parameters:    Size  Location     Type
  4744 ;;		None
  4745 ;; Auto vars:     Size  Location     Type
  4746 ;;		None
  4747 ;; Return value:  Size  Location     Type
  4748 ;;                  1    wreg      _Bool 
  4749 ;; Registers used:
  4750 ;;		wreg, status,2, status,0
  4751 ;; Tracked objects:
  4752 ;;		On entry : 0/0
  4753 ;;		On exit  : 0/0
  4754 ;;		Unchanged: 0/0
  4755 ;; Data sizes:     COMMON   BANK0   BANK1   BANK2   BANK3   BANK4   BANK5   BANK6   BANK7   BANK8   BANK9  BANK10  BANK1
      +1  BANK12
  4756 ;;      Params:         0       0       0       0       0       0       0       0       0       0       0       0       
      +0       0
  4757 ;;      Locals:         0       0       0       0       0       0       0       0       0       0       0       0       
      +0       0
  4758 ;;      Temps:          0       0       0       0       0       0       0       0       0       0       0       0       
      +0       0
  4759 ;;      Totals:         0       0       0       0       0       0       0       0       0       0       0       0       
      +0       0
  4760 ;;Total ram usage:        0 bytes
  4761 ;; Hardware stack levels used: 1
  4762 ;; This function calls:
  4763 ;;		Nothing
  4764 ;; This function is called by:
  4765 ;;		_I2C_MasterFsm
  4766 ;;		_I2C_DO_TX
  4767 ;; This function uses a non-reentrant model
  4768 ;;
  4769                           
  4770  03A7                     _I2C_MasterIsNack:	
  4771                           ;psect for function _I2C_MasterIsNack
  4772                           
  4773  03A7                     l1948:	
  4774                           ;incstack = 0
  4775                           ; Regs used in _I2C_MasterIsNack: [wreg+status,2+status,0]
  4776                           
  4777                           
  4778                           ;mcc_generated_files/i2c_master.c: 554:     return SSPCON2bits.ACKSTAT;
  4779  03A7  0024               	movlb	4	; select bank4
  4780  03A8  0E16               	swapf	22,w	;volatile
  4781  03A9  0C89               	rrf	9,f
  4782  03AA  0C89               	rrf	9,f
  4783  03AB  3901               	andlw	1
  4784  03AC                     l383:
  4785  03AC  0008               	return
  4786  03AD                     __end_of_I2C_MasterIsNack:
  4787                           
  4788                           	psect	text37
  4789  036B                     __ptext37:	
  4790 ;; *************** function _I2C_MasterSendTxData *****************
  4791 ;; Defined at:
  4792 ;;		line 522 in file "mcc_generated_files/i2c_master.c"
  4793 ;; Parameters:    Size  Location     Type
  4794 ;;  data            1    wreg     unsigned char 
  4795 ;; Auto vars:     Size  Location     Type
  4796 ;;  data            1    0[COMMON] unsigned char 
  4797 ;; Return value:  Size  Location     Type
  4798 ;;                  1    wreg      void 
  4799 ;; Registers used:
  4800 ;;		wreg
  4801 ;; Tracked objects:
  4802 ;;		On entry : 0/0
  4803 ;;		On exit  : 0/0
  4804 ;;		Unchanged: 0/0
  4805 ;; Data sizes:     COMMON   BANK0   BANK1   BANK2   BANK3   BANK4   BANK5   BANK6   BANK7   BANK8   BANK9  BANK10  BANK1
      +1  BANK12
  4806 ;;      Params:         0       0       0       0       0       0       0       0       0       0       0       0       
      +0       0
  4807 ;;      Locals:         1       0       0       0       0       0       0       0       0       0       0       0       
      +0       0
  4808 ;;      Temps:          0       0       0       0       0       0       0       0       0       0       0       0       
      +0       0
  4809 ;;      Totals:         1       0       0       0       0       0       0       0       0       0       0       0       
      +0       0
  4810 ;;Total ram usage:        1 bytes
  4811 ;; Hardware stack levels used: 1
  4812 ;; This function calls:
  4813 ;;		Nothing
  4814 ;; This function is called by:
  4815 ;;		_I2C_DO_SEND_ADR_READ
  4816 ;;		_I2C_DO_SEND_ADR_WRITE
  4817 ;;		_I2C_DO_TX
  4818 ;; This function uses a non-reentrant model
  4819 ;;
  4820                           
  4821  036B                     _I2C_MasterSendTxData:	
  4822                           ;psect for function _I2C_MasterSendTxData
  4823                           
  4824                           
  4825                           ;incstack = 0
  4826                           ; Regs used in _I2C_MasterSendTxData: [wreg]
  4827                           ;I2C_MasterSendTxData@data stored from wreg
  4828  036B  00F0               	movwf	I2C_MasterSendTxData@data
  4829  036C                     l1952:
  4830                           
  4831                           ;mcc_generated_files/i2c_master.c: 522: static __attribute__((inline)) void I2C_MasterSe
      +                          ndTxData(uint8_t data);mcc_generated_files/i2c_master.c: 523: {;mcc_generated_files/i2c_
      +                          master.c: 524:     SSPBUF = data;
  4832  036C  0870               	movf	I2C_MasterSendTxData@data,w
  4833  036D  0024               	movlb	4	; select bank4
  4834  036E  0091               	movwf	17	;volatile
  4835  036F                     l365:
  4836  036F  0008               	return
  4837  0370                     __end_of_I2C_MasterSendTxData:
  4838                           
  4839                           	psect	text38
  4840  0363                     __ptext38:	
  4841 ;; *************** function _I2C_MasterSendAck *****************
  4842 ;; Defined at:
  4843 ;;		line 557 in file "mcc_generated_files/i2c_master.c"
  4844 ;; Parameters:    Size  Location     Type
  4845 ;;		None
  4846 ;; Auto vars:     Size  Location     Type
  4847 ;;		None
  4848 ;; Return value:  Size  Location     Type
  4849 ;;                  1    wreg      void 
  4850 ;; Registers used:
  4851 ;;		None
  4852 ;; Tracked objects:
  4853 ;;		On entry : 0/0
  4854 ;;		On exit  : 0/0
  4855 ;;		Unchanged: 0/0
  4856 ;; Data sizes:     COMMON   BANK0   BANK1   BANK2   BANK3   BANK4   BANK5   BANK6   BANK7   BANK8   BANK9  BANK10  BANK1
      +1  BANK12
  4857 ;;      Params:         0       0       0       0       0       0       0       0       0       0       0       0       
      +0       0
  4858 ;;      Locals:         0       0       0       0       0       0       0       0       0       0       0       0       
      +0       0
  4859 ;;      Temps:          0       0       0       0       0       0       0       0       0       0       0       0       
      +0       0
  4860 ;;      Totals:         0       0       0       0       0       0       0       0       0       0       0       0       
      +0       0
  4861 ;;Total ram usage:        0 bytes
  4862 ;; Hardware stack levels used: 1
  4863 ;; This function calls:
  4864 ;;		Nothing
  4865 ;; This function is called by:
  4866 ;;		_I2C_DO_RX
  4867 ;;		_I2C_DO_RX_ACK
  4868 ;; This function uses a non-reentrant model
  4869 ;;
  4870                           
  4871  0363                     _I2C_MasterSendAck:	
  4872                           ;psect for function _I2C_MasterSendAck
  4873                           
  4874  0363                     l1976:	
  4875                           ;incstack = 0
  4876                           ; Regs used in _I2C_MasterSendAck: []
  4877                           
  4878                           
  4879                           ;mcc_generated_files/i2c_master.c: 559:     SSPCON2bits.ACKDT = 0;
  4880  0363  0024               	movlb	4	; select bank4
  4881  0364  1296               	bcf	22,5	;volatile
  4882                           
  4883                           ;mcc_generated_files/i2c_master.c: 560:     SSPCON2bits.ACKEN = 1;
  4884  0365  1616               	bsf	22,4	;volatile
  4885  0366                     l386:
  4886  0366  0008               	return
  4887  0367                     __end_of_I2C_MasterSendAck:
  4888                           
  4889                           	psect	text39
  4890  0359                     __ptext39:	
  4891 ;; *************** function _I2C_MasterGetRxData *****************
  4892 ;; Defined at:
  4893 ;;		line 517 in file "mcc_generated_files/i2c_master.c"
  4894 ;; Parameters:    Size  Location     Type
  4895 ;;		None
  4896 ;; Auto vars:     Size  Location     Type
  4897 ;;		None
  4898 ;; Return value:  Size  Location     Type
  4899 ;;                  1    wreg      unsigned char 
  4900 ;; Registers used:
  4901 ;;		wreg
  4902 ;; Tracked objects:
  4903 ;;		On entry : 0/0
  4904 ;;		On exit  : 0/0
  4905 ;;		Unchanged: 0/0
  4906 ;; Data sizes:     COMMON   BANK0   BANK1   BANK2   BANK3   BANK4   BANK5   BANK6   BANK7   BANK8   BANK9  BANK10  BANK1
      +1  BANK12
  4907 ;;      Params:         0       0       0       0       0       0       0       0       0       0       0       0       
      +0       0
  4908 ;;      Locals:         0       0       0       0       0       0       0       0       0       0       0       0       
      +0       0
  4909 ;;      Temps:          0       0       0       0       0       0       0       0       0       0       0       0       
      +0       0
  4910 ;;      Totals:         0       0       0       0       0       0       0       0       0       0       0       0       
      +0       0
  4911 ;;Total ram usage:        0 bytes
  4912 ;; Hardware stack levels used: 1
  4913 ;; This function calls:
  4914 ;;		Nothing
  4915 ;; This function is called by:
  4916 ;;		_I2C_DO_RX
  4917 ;; This function uses a non-reentrant model
  4918 ;;
  4919                           
  4920  0359                     _I2C_MasterGetRxData:	
  4921                           ;psect for function _I2C_MasterGetRxData
  4922                           
  4923  0359                     l1972:	
  4924                           ;incstack = 0
  4925                           ; Regs used in _I2C_MasterGetRxData: [wreg]
  4926                           
  4927                           
  4928                           ;mcc_generated_files/i2c_master.c: 519:     return SSPBUF;
  4929  0359  0024               	movlb	4	; select bank4
  4930  035A  0811               	movf	17,w	;volatile
  4931  035B                     l362:
  4932  035B  0008               	return
  4933  035C                     __end_of_I2C_MasterGetRxData:
  4934                           
  4935                           	psect	text40
  4936  035F                     __ptext40:	
  4937 ;; *************** function _I2C_MasterSendNack *****************
  4938 ;; Defined at:
  4939 ;;		line 563 in file "mcc_generated_files/i2c_master.c"
  4940 ;; Parameters:    Size  Location     Type
  4941 ;;		None
  4942 ;; Auto vars:     Size  Location     Type
  4943 ;;		None
  4944 ;; Return value:  Size  Location     Type
  4945 ;;                  1    wreg      void 
  4946 ;; Registers used:
  4947 ;;		None
  4948 ;; Tracked objects:
  4949 ;;		On entry : 0/0
  4950 ;;		On exit  : 0/0
  4951 ;;		Unchanged: 0/0
  4952 ;; Data sizes:     COMMON   BANK0   BANK1   BANK2   BANK3   BANK4   BANK5   BANK6   BANK7   BANK8   BANK9  BANK10  BANK1
      +1  BANK12
  4953 ;;      Params:         0       0       0       0       0       0       0       0       0       0       0       0       
      +0       0
  4954 ;;      Locals:         0       0       0       0       0       0       0       0       0       0       0       0       
      +0       0
  4955 ;;      Temps:          0       0       0       0       0       0       0       0       0       0       0       0       
      +0       0
  4956 ;;      Totals:         0       0       0       0       0       0       0       0       0       0       0       0       
      +0       0
  4957 ;;Total ram usage:        0 bytes
  4958 ;; Hardware stack levels used: 1
  4959 ;; This function calls:
  4960 ;;		Nothing
  4961 ;; This function is called by:
  4962 ;;		_I2C_DO_RX_NACK_STOP
  4963 ;;		_I2C_DO_RX_NACK_RESTART
  4964 ;; This function uses a non-reentrant model
  4965 ;;
  4966                           
  4967  035F                     _I2C_MasterSendNack:	
  4968                           ;psect for function _I2C_MasterSendNack
  4969                           
  4970  035F                     l1946:	
  4971                           ;incstack = 0
  4972                           ; Regs used in _I2C_MasterSendNack: []
  4973                           
  4974                           
  4975                           ;mcc_generated_files/i2c_master.c: 565:     SSPCON2bits.ACKDT = 1;
  4976  035F  0024               	movlb	4	; select bank4
  4977  0360  1696               	bsf	22,5	;volatile
  4978                           
  4979                           ;mcc_generated_files/i2c_master.c: 566:     SSPCON2bits.ACKEN = 1;
  4980  0361  1616               	bsf	22,4	;volatile
  4981  0362                     l389:
  4982  0362  0008               	return
  4983  0363                     __end_of_I2C_MasterSendNack:
  4984                           
  4985                           	psect	text41
  4986  0356                     __ptext41:	
  4987 ;; *************** function _I2C_MasterStartRx *****************
  4988 ;; Defined at:
  4989 ;;		line 537 in file "mcc_generated_files/i2c_master.c"
  4990 ;; Parameters:    Size  Location     Type
  4991 ;;		None
  4992 ;; Auto vars:     Size  Location     Type
  4993 ;;		None
  4994 ;; Return value:  Size  Location     Type
  4995 ;;                  1    wreg      void 
  4996 ;; Registers used:
  4997 ;;		None
  4998 ;; Tracked objects:
  4999 ;;		On entry : 0/0
  5000 ;;		On exit  : 0/0
  5001 ;;		Unchanged: 0/0
  5002 ;; Data sizes:     COMMON   BANK0   BANK1   BANK2   BANK3   BANK4   BANK5   BANK6   BANK7   BANK8   BANK9  BANK10  BANK1
      +1  BANK12
  5003 ;;      Params:         0       0       0       0       0       0       0       0       0       0       0       0       
      +0       0
  5004 ;;      Locals:         0       0       0       0       0       0       0       0       0       0       0       0       
      +0       0
  5005 ;;      Temps:          0       0       0       0       0       0       0       0       0       0       0       0       
      +0       0
  5006 ;;      Totals:         0       0       0       0       0       0       0       0       0       0       0       0       
      +0       0
  5007 ;;Total ram usage:        0 bytes
  5008 ;; Hardware stack levels used: 1
  5009 ;; This function calls:
  5010 ;;		Nothing
  5011 ;; This function is called by:
  5012 ;;		_I2C_DO_RCEN
  5013 ;; This function uses a non-reentrant model
  5014 ;;
  5015                           
  5016  0356                     _I2C_MasterStartRx:	
  5017                           ;psect for function _I2C_MasterStartRx
  5018                           
  5019  0356                     l1990:	
  5020                           ;incstack = 0
  5021                           ; Regs used in _I2C_MasterStartRx: []
  5022                           
  5023                           
  5024                           ;mcc_generated_files/i2c_master.c: 539:     SSPCON2bits.RCEN = 1;
  5025  0356  0024               	movlb	4	; select bank4
  5026  0357  1596               	bsf	22,3	;volatile
  5027  0358                     l374:
  5028  0358  0008               	return
  5029  0359                     __end_of_I2C_MasterStartRx:
  5030                           
  5031                           	psect	text42
  5032  046A                     __ptext42:	
  5033 ;; *************** function _rdBlkRegCompleteHandler *****************
  5034 ;; Defined at:
  5035 ;;		line 753 in file "mcc_generated_files/i2c_master.c"
  5036 ;; Parameters:    Size  Location     Type
  5037 ;;  ptr             1    9[COMMON] PTR void 
  5038 ;;		 -> I2C_ReadDataBlock@bufferBlock(3), I2C_Write2ByteRegister@data(2), I2C_Write1ByteRegister@data(1), I2C_Read2ByteR
      +egister@returnValue(1), 
  5039 ;;		 -> I2C_Read1ByteRegister@returnValue(1), NULL(0), 
  5040 ;; Auto vars:     Size  Location     Type
  5041 ;;		None
  5042 ;; Return value:  Size  Location     Type
  5043 ;;                  1    wreg      enum E360
  5044 ;; Registers used:
  5045 ;;		wreg, fsr1l, fsr1h, status,2, status,0, pclath, cstack
  5046 ;; Tracked objects:
  5047 ;;		On entry : 0/0
  5048 ;;		On exit  : 0/0
  5049 ;;		Unchanged: 0/0
  5050 ;; Data sizes:     COMMON   BANK0   BANK1   BANK2   BANK3   BANK4   BANK5   BANK6   BANK7   BANK8   BANK9  BANK10  BANK1
      +1  BANK12
  5051 ;;      Params:         1       0       0       0       0       0       0       0       0       0       0       0       
      +0       0
  5052 ;;      Locals:         0       0       0       0       0       0       0       0       0       0       0       0       
      +0       0
  5053 ;;      Temps:          0       0       0       0       0       0       0       0       0       0       0       0       
      +0       0
  5054 ;;      Totals:         1       0       0       0       0       0       0       0       0       0       0       0       
      +0       0
  5055 ;;Total ram usage:        1 bytes
  5056 ;; Hardware stack levels used: 1
  5057 ;; Hardware stack levels required when called: 2
  5058 ;; This function calls:
  5059 ;;		_I2C_SetBuffer
  5060 ;;		_I2C_SetDataCompleteCallback
  5061 ;; This function is called by:
  5062 ;;		_I2C_ReadDataBlock
  5063 ;;		_I2C_DO_TX
  5064 ;;		_I2C_DO_RX
  5065 ;;		_I2C_DO_TX_EMPTY
  5066 ;;		_I2C_DO_ADDRESS_NACK
  5067 ;;		_I2C_DO_RX_EMPTY
  5068 ;; This function uses a non-reentrant model
  5069 ;;
  5070                           
  5071  046A                     _rdBlkRegCompleteHandler:	
  5072                           ;psect for function _rdBlkRegCompleteHandler
  5073                           
  5074  046A                     l2032:	
  5075                           ;incstack = 0
  5076                           ; Regs used in _rdBlkRegCompleteHandler: [wreg+fsr1l+fsr1h+status,2+status,0+pclath+csta
      +                          ck]
  5077                           
  5078                           
  5079                           ;mcc_generated_files/i2c_master.c: 753: static i2c_operations_t rdBlkRegCompleteHandler(
      +                          void *ptr);mcc_generated_files/i2c_master.c: 754: {;mcc_generated_files/i2c_master.c: 75
      +                          5:     I2C_SetBuffer(((i2c_buffer_t *)ptr)->data,((i2c_buffer_t*)ptr)->len);
  5080  046A  0879               	movf	rdBlkRegCompleteHandler@ptr,w
  5081  046B  0086               	movwf	6
  5082  046C  0187               	clrf	7
  5083  046D  3F40               	moviw [0]fsr1
  5084  046E  00F0               	movwf	I2C_SetBuffer@bufferSize
  5085  046F  3F41               	moviw [1]fsr1
  5086  0470  00F1               	movwf	I2C_SetBuffer@bufferSize+1
  5087  0471  0879               	movf	rdBlkRegCompleteHandler@ptr,w
  5088  0472  3E02               	addlw	2
  5089  0473  0086               	movwf	6
  5090  0474  0187               	clrf	7
  5091  0475  0801               	movf	1,w
  5092  0476  3184  2427  3184   	fcall	_I2C_SetBuffer
  5093                           
  5094                           ;mcc_generated_files/i2c_master.c: 756:     I2C_SetDataCompleteCallback(((void*)0),((voi
      +                          d*)0));
  5095  0479  3000               	movlw	0
  5096  047A  00F5               	movwf	I2C_SetDataCompleteCallback@cb
  5097  047B  00F6               	movwf	I2C_SetDataCompleteCallback@cb+1
  5098  047C  01F7               	clrf	I2C_SetDataCompleteCallback@ptr
  5099  047D  3183  23E6  3184   	fcall	_I2C_SetDataCompleteCallback
  5100  0480                     l2034:
  5101                           
  5102                           ;mcc_generated_files/i2c_master.c: 757:     return I2C_RESTART_READ;
  5103  0480  3002               	movlw	2
  5104  0481                     l504:
  5105  0481  0008               	return
  5106  0482                     __end_of_rdBlkRegCompleteHandler:
  5107                           
  5108                           	psect	text43
  5109  0459                     __ptext43:	
  5110 ;; *************** function _wr1RegCompleteHandler *****************
  5111 ;; Defined at:
  5112 ;;		line 739 in file "mcc_generated_files/i2c_master.c"
  5113 ;; Parameters:    Size  Location     Type
  5114 ;;  ptr             1    9[COMMON] PTR void 
  5115 ;;		 -> I2C_ReadDataBlock@bufferBlock(3), I2C_Write2ByteRegister@data(2), I2C_Write1ByteRegister@data(1), I2C_Read2ByteR
      +egister@returnValue(1), 
  5116 ;;		 -> I2C_Read1ByteRegister@returnValue(1), NULL(0), 
  5117 ;; Auto vars:     Size  Location     Type
  5118 ;;		None
  5119 ;; Return value:  Size  Location     Type
  5120 ;;                  1    wreg      enum E360
  5121 ;; Registers used:
  5122 ;;		wreg, fsr1l, fsr1h, status,2, status,0, pclath, cstack
  5123 ;; Tracked objects:
  5124 ;;		On entry : 0/0
  5125 ;;		On exit  : 0/0
  5126 ;;		Unchanged: 0/0
  5127 ;; Data sizes:     COMMON   BANK0   BANK1   BANK2   BANK3   BANK4   BANK5   BANK6   BANK7   BANK8   BANK9  BANK10  BANK1
      +1  BANK12
  5128 ;;      Params:         1       0       0       0       0       0       0       0       0       0       0       0       
      +0       0
  5129 ;;      Locals:         0       0       0       0       0       0       0       0       0       0       0       0       
      +0       0
  5130 ;;      Temps:          0       0       0       0       0       0       0       0       0       0       0       0       
      +0       0
  5131 ;;      Totals:         1       0       0       0       0       0       0       0       0       0       0       0       
      +0       0
  5132 ;;Total ram usage:        1 bytes
  5133 ;; Hardware stack levels used: 1
  5134 ;; Hardware stack levels required when called: 2
  5135 ;; This function calls:
  5136 ;;		_I2C_SetBuffer
  5137 ;;		_I2C_SetDataCompleteCallback
  5138 ;; This function is called by:
  5139 ;;		_I2C_Write1ByteRegister
  5140 ;;		_I2C_DO_TX
  5141 ;;		_I2C_DO_RX
  5142 ;;		_I2C_DO_TX_EMPTY
  5143 ;;		_I2C_DO_ADDRESS_NACK
  5144 ;;		_I2C_DO_RX_EMPTY
  5145 ;; This function uses a non-reentrant model
  5146 ;;
  5147                           
  5148  0459                     _wr1RegCompleteHandler:	
  5149                           ;psect for function _wr1RegCompleteHandler
  5150                           
  5151  0459                     l2016:	
  5152                           ;incstack = 0
  5153                           ; Regs used in _wr1RegCompleteHandler: [wreg+fsr1l+fsr1h+status,2+status,0+pclath+cstack
      +                          ]
  5154                           
  5155                           
  5156                           ;mcc_generated_files/i2c_master.c: 739: static i2c_operations_t wr1RegCompleteHandler(vo
      +                          id *ptr);mcc_generated_files/i2c_master.c: 740: {;mcc_generated_files/i2c_master.c: 741:
      +                               I2C_SetBuffer(ptr,1);
  5157  0459  3001               	movlw	1
  5158  045A  00F0               	movwf	I2C_SetBuffer@bufferSize
  5159  045B  3000               	movlw	0
  5160  045C  00F1               	movwf	I2C_SetBuffer@bufferSize+1
  5161  045D  0879               	movf	wr1RegCompleteHandler@ptr,w
  5162  045E  3184  2427  3184   	fcall	_I2C_SetBuffer
  5163  0461                     l2018:
  5164                           
  5165                           ;mcc_generated_files/i2c_master.c: 742:     I2C_SetDataCompleteCallback(((void*)0),((voi
      +                          d*)0));
  5166  0461  3000               	movlw	0
  5167  0462  00F5               	movwf	I2C_SetDataCompleteCallback@cb
  5168  0463  00F6               	movwf	I2C_SetDataCompleteCallback@cb+1
  5169  0464  01F7               	clrf	I2C_SetDataCompleteCallback@ptr
  5170  0465  3183  23E6  3184   	fcall	_I2C_SetDataCompleteCallback
  5171  0468                     l2020:
  5172                           
  5173                           ;mcc_generated_files/i2c_master.c: 743:     return I2C_CONTINUE;
  5174  0468  3004               	movlw	4
  5175  0469                     l498:
  5176  0469  0008               	return
  5177  046A                     __end_of_wr1RegCompleteHandler:
  5178                           
  5179                           	psect	text44
  5180  0448                     __ptext44:	
  5181 ;; *************** function _rd1RegCompleteHandler *****************
  5182 ;; Defined at:
  5183 ;;		line 725 in file "mcc_generated_files/i2c_master.c"
  5184 ;; Parameters:    Size  Location     Type
  5185 ;;  ptr             1    9[COMMON] PTR void 
  5186 ;;		 -> I2C_ReadDataBlock@bufferBlock(3), I2C_Write2ByteRegister@data(2), I2C_Write1ByteRegister@data(1), I2C_Read2ByteR
      +egister@returnValue(1), 
  5187 ;;		 -> I2C_Read1ByteRegister@returnValue(1), NULL(0), 
  5188 ;; Auto vars:     Size  Location     Type
  5189 ;;		None
  5190 ;; Return value:  Size  Location     Type
  5191 ;;                  1    wreg      enum E360
  5192 ;; Registers used:
  5193 ;;		wreg, fsr1l, fsr1h, status,2, status,0, pclath, cstack
  5194 ;; Tracked objects:
  5195 ;;		On entry : 0/0
  5196 ;;		On exit  : 0/0
  5197 ;;		Unchanged: 0/0
  5198 ;; Data sizes:     COMMON   BANK0   BANK1   BANK2   BANK3   BANK4   BANK5   BANK6   BANK7   BANK8   BANK9  BANK10  BANK1
      +1  BANK12
  5199 ;;      Params:         1       0       0       0       0       0       0       0       0       0       0       0       
      +0       0
  5200 ;;      Locals:         0       0       0       0       0       0       0       0       0       0       0       0       
      +0       0
  5201 ;;      Temps:          0       0       0       0       0       0       0       0       0       0       0       0       
      +0       0
  5202 ;;      Totals:         1       0       0       0       0       0       0       0       0       0       0       0       
      +0       0
  5203 ;;Total ram usage:        1 bytes
  5204 ;; Hardware stack levels used: 1
  5205 ;; Hardware stack levels required when called: 2
  5206 ;; This function calls:
  5207 ;;		_I2C_SetBuffer
  5208 ;;		_I2C_SetDataCompleteCallback
  5209 ;; This function is called by:
  5210 ;;		_I2C_Read1ByteRegister
  5211 ;;		_I2C_Read2ByteRegister
  5212 ;;		_I2C_DO_TX
  5213 ;;		_I2C_DO_RX
  5214 ;;		_I2C_DO_TX_EMPTY
  5215 ;;		_I2C_DO_ADDRESS_NACK
  5216 ;;		_I2C_DO_RX_EMPTY
  5217 ;; This function uses a non-reentrant model
  5218 ;;
  5219                           
  5220  0448                     _rd1RegCompleteHandler:	
  5221                           ;psect for function _rd1RegCompleteHandler
  5222                           
  5223  0448                     l2008:	
  5224                           ;incstack = 0
  5225                           ; Regs used in _rd1RegCompleteHandler: [wreg+fsr1l+fsr1h+status,2+status,0+pclath+cstack
      +                          ]
  5226                           
  5227                           
  5228                           ;mcc_generated_files/i2c_master.c: 725: static i2c_operations_t rd1RegCompleteHandler(vo
      +                          id *ptr);mcc_generated_files/i2c_master.c: 726: {;mcc_generated_files/i2c_master.c: 727:
      +                               I2C_SetBuffer(ptr,1);
  5229  0448  3001               	movlw	1
  5230  0449  00F0               	movwf	I2C_SetBuffer@bufferSize
  5231  044A  3000               	movlw	0
  5232  044B  00F1               	movwf	I2C_SetBuffer@bufferSize+1
  5233  044C  0879               	movf	rd1RegCompleteHandler@ptr,w
  5234  044D  3184  2427  3184   	fcall	_I2C_SetBuffer
  5235  0450                     l2010:
  5236                           
  5237                           ;mcc_generated_files/i2c_master.c: 728:     I2C_SetDataCompleteCallback(((void*)0),((voi
      +                          d*)0));
  5238  0450  3000               	movlw	0
  5239  0451  00F5               	movwf	I2C_SetDataCompleteCallback@cb
  5240  0452  00F6               	movwf	I2C_SetDataCompleteCallback@cb+1
  5241  0453  01F7               	clrf	I2C_SetDataCompleteCallback@ptr
  5242  0454  3183  23E6  3184   	fcall	_I2C_SetDataCompleteCallback
  5243  0457                     l2012:
  5244                           
  5245                           ;mcc_generated_files/i2c_master.c: 729:     return I2C_RESTART_READ;
  5246  0457  3002               	movlw	2
  5247  0458                     l492:
  5248  0458  0008               	return
  5249  0459                     __end_of_rd1RegCompleteHandler:
  5250                           
  5251                           	psect	text45
  5252  0342                     __ptext45:	
  5253 ;; *************** function _I2C_CallbackReturnReset *****************
  5254 ;; Defined at:
  5255 ;;		line 479 in file "mcc_generated_files/i2c_master.c"
  5256 ;; Parameters:    Size  Location     Type
  5257 ;;  funPtr          1    9[COMMON] PTR void 
  5258 ;;		 -> I2C_ReadDataBlock@bufferBlock(3), I2C_Write2ByteRegister@data(2), I2C_Write1ByteRegister@data(1), I2C_Read2ByteR
      +egister@returnValue(1), 
  5259 ;;		 -> I2C_Read1ByteRegister@returnValue(1), NULL(0), 
  5260 ;; Auto vars:     Size  Location     Type
  5261 ;;		None
  5262 ;; Return value:  Size  Location     Type
  5263 ;;                  1    wreg      enum E360
  5264 ;; Registers used:
  5265 ;;		wreg
  5266 ;; Tracked objects:
  5267 ;;		On entry : 0/0
  5268 ;;		On exit  : 0/0
  5269 ;;		Unchanged: 0/0
  5270 ;; Data sizes:     COMMON   BANK0   BANK1   BANK2   BANK3   BANK4   BANK5   BANK6   BANK7   BANK8   BANK9  BANK10  BANK1
      +1  BANK12
  5271 ;;      Params:         1       0       0       0       0       0       0       0       0       0       0       0       
      +0       0
  5272 ;;      Locals:         0       0       0       0       0       0       0       0       0       0       0       0       
      +0       0
  5273 ;;      Temps:          0       0       0       0       0       0       0       0       0       0       0       0       
      +0       0
  5274 ;;      Totals:         1       0       0       0       0       0       0       0       0       0       0       0       
      +0       0
  5275 ;;Total ram usage:        1 bytes
  5276 ;; Hardware stack levels used: 1
  5277 ;; This function calls:
  5278 ;;		Nothing
  5279 ;; This function is called by:
  5280 ;;		_I2C_Open
  5281 ;;		_I2C_DO_TX
  5282 ;;		_I2C_DO_RX
  5283 ;;		_I2C_DO_TX_EMPTY
  5284 ;;		_I2C_DO_ADDRESS_NACK
  5285 ;;		_I2C_DO_RX_EMPTY
  5286 ;; This function uses a non-reentrant model
  5287 ;;
  5288                           
  5289  0342                     _I2C_CallbackReturnReset:	
  5290                           ;psect for function _I2C_CallbackReturnReset
  5291                           
  5292  0342                     l2004:	
  5293                           ;incstack = 0
  5294                           ; Regs used in _I2C_CallbackReturnReset: [wreg]
  5295                           
  5296                           
  5297                           ;mcc_generated_files/i2c_master.c: 479: i2c_operations_t I2C_CallbackReturnReset(void *f
      +                          unPtr);mcc_generated_files/i2c_master.c: 480: {;mcc_generated_files/i2c_master.c: 481:  
      +                             return I2C_RESET_LINK;
  5298  0342  3005               	movlw	5
  5299  0343                     l346:
  5300  0343  0008               	return
  5301  0344                     __end_of_I2C_CallbackReturnReset:
  5302                           
  5303                           	psect	text46
  5304  0340                     __ptext46:	
  5305 ;; *************** function _I2C_CallbackReturnStop *****************
  5306 ;; Defined at:
  5307 ;;		line 474 in file "mcc_generated_files/i2c_master.c"
  5308 ;; Parameters:    Size  Location     Type
  5309 ;;  funPtr          1    9[COMMON] PTR void 
  5310 ;;		 -> I2C_ReadDataBlock@bufferBlock(3), I2C_Write2ByteRegister@data(2), I2C_Write1ByteRegister@data(1), I2C_Read2ByteR
      +egister@returnValue(1), 
  5311 ;;		 -> I2C_Read1ByteRegister@returnValue(1), NULL(0), 
  5312 ;; Auto vars:     Size  Location     Type
  5313 ;;		None
  5314 ;; Return value:  Size  Location     Type
  5315 ;;                  1    wreg      enum E360
  5316 ;; Registers used:
  5317 ;;		wreg
  5318 ;; Tracked objects:
  5319 ;;		On entry : 0/0
  5320 ;;		On exit  : 0/0
  5321 ;;		Unchanged: 0/0
  5322 ;; Data sizes:     COMMON   BANK0   BANK1   BANK2   BANK3   BANK4   BANK5   BANK6   BANK7   BANK8   BANK9  BANK10  BANK1
      +1  BANK12
  5323 ;;      Params:         1       0       0       0       0       0       0       0       0       0       0       0       
      +0       0
  5324 ;;      Locals:         0       0       0       0       0       0       0       0       0       0       0       0       
      +0       0
  5325 ;;      Temps:          0       0       0       0       0       0       0       0       0       0       0       0       
      +0       0
  5326 ;;      Totals:         1       0       0       0       0       0       0       0       0       0       0       0       
      +0       0
  5327 ;;Total ram usage:        1 bytes
  5328 ;; Hardware stack levels used: 1
  5329 ;; This function calls:
  5330 ;;		Nothing
  5331 ;; This function is called by:
  5332 ;;		_I2C_Open
  5333 ;;		_I2C_SetCallback
  5334 ;;		_I2C_DO_TX
  5335 ;;		_I2C_DO_RX
  5336 ;;		_I2C_DO_TX_EMPTY
  5337 ;;		_I2C_DO_ADDRESS_NACK
  5338 ;;		_I2C_DO_RX_EMPTY
  5339 ;; This function uses a non-reentrant model
  5340 ;;
  5341                           
  5342  0340                     _I2C_CallbackReturnStop:	
  5343                           ;psect for function _I2C_CallbackReturnStop
  5344                           
  5345  0340                     l2000:	
  5346                           ;incstack = 0
  5347                           ; Regs used in _I2C_CallbackReturnStop: [wreg]
  5348                           
  5349                           
  5350                           ;mcc_generated_files/i2c_master.c: 474: i2c_operations_t I2C_CallbackReturnStop(void *fu
      +                          nPtr);mcc_generated_files/i2c_master.c: 475: {;mcc_generated_files/i2c_master.c: 476:   
      +                            return I2C_STOP;
  5351  0340  3001               	movlw	1
  5352  0341                     l343:
  5353  0341  0008               	return
  5354  0342                     __end_of_I2C_CallbackReturnStop:
  5355                           
  5356                           	psect	text47
  5357  0437                     __ptext47:	
  5358 ;; *************** function _wr2RegCompleteHandler *****************
  5359 ;; Defined at:
  5360 ;;		line 746 in file "mcc_generated_files/i2c_master.c"
  5361 ;; Parameters:    Size  Location     Type
  5362 ;;  ptr             1    9[COMMON] PTR void 
  5363 ;;		 -> I2C_ReadDataBlock@bufferBlock(3), I2C_Write2ByteRegister@data(2), I2C_Write1ByteRegister@data(1), I2C_Read2ByteR
      +egister@returnValue(1), 
  5364 ;;		 -> I2C_Read1ByteRegister@returnValue(1), NULL(0), 
  5365 ;; Auto vars:     Size  Location     Type
  5366 ;;		None
  5367 ;; Return value:  Size  Location     Type
  5368 ;;                  1    wreg      enum E360
  5369 ;; Registers used:
  5370 ;;		wreg, fsr1l, fsr1h, status,2, status,0, pclath, cstack
  5371 ;; Tracked objects:
  5372 ;;		On entry : 0/0
  5373 ;;		On exit  : 0/0
  5374 ;;		Unchanged: 0/0
  5375 ;; Data sizes:     COMMON   BANK0   BANK1   BANK2   BANK3   BANK4   BANK5   BANK6   BANK7   BANK8   BANK9  BANK10  BANK1
      +1  BANK12
  5376 ;;      Params:         1       0       0       0       0       0       0       0       0       0       0       0       
      +0       0
  5377 ;;      Locals:         0       0       0       0       0       0       0       0       0       0       0       0       
      +0       0
  5378 ;;      Temps:          0       0       0       0       0       0       0       0       0       0       0       0       
      +0       0
  5379 ;;      Totals:         1       0       0       0       0       0       0       0       0       0       0       0       
      +0       0
  5380 ;;Total ram usage:        1 bytes
  5381 ;; Hardware stack levels used: 1
  5382 ;; Hardware stack levels required when called: 2
  5383 ;; This function calls:
  5384 ;;		_I2C_SetBuffer
  5385 ;;		_I2C_SetDataCompleteCallback
  5386 ;; This function is called by:
  5387 ;;		_I2C_Write2ByteRegister
  5388 ;;		_I2C_DO_TX
  5389 ;;		_I2C_DO_RX
  5390 ;;		_I2C_DO_TX_EMPTY
  5391 ;;		_I2C_DO_ADDRESS_NACK
  5392 ;;		_I2C_DO_RX_EMPTY
  5393 ;; This function uses a non-reentrant model
  5394 ;;
  5395                           
  5396  0437                     _wr2RegCompleteHandler:	
  5397                           ;psect for function _wr2RegCompleteHandler
  5398                           
  5399  0437                     l2024:	
  5400                           ;incstack = 0
  5401                           ; Regs used in _wr2RegCompleteHandler: [wreg+fsr1l+fsr1h+status,2+status,0+pclath+cstack
      +                          ]
  5402                           
  5403                           
  5404                           ;mcc_generated_files/i2c_master.c: 746: static i2c_operations_t wr2RegCompleteHandler(vo
      +                          id *ptr);mcc_generated_files/i2c_master.c: 747: {;mcc_generated_files/i2c_master.c: 748:
      +                               I2C_SetBuffer(ptr,2);
  5405  0437  3002               	movlw	2
  5406  0438  00F0               	movwf	I2C_SetBuffer@bufferSize
  5407  0439  3000               	movlw	0
  5408  043A  00F1               	movwf	I2C_SetBuffer@bufferSize+1
  5409  043B  0879               	movf	wr2RegCompleteHandler@ptr,w
  5410  043C  3184  2427  3184   	fcall	_I2C_SetBuffer
  5411  043F                     l2026:
  5412                           
  5413                           ;mcc_generated_files/i2c_master.c: 749:     I2C_SetDataCompleteCallback(((void*)0),((voi
      +                          d*)0));
  5414  043F  3000               	movlw	0
  5415  0440  00F5               	movwf	I2C_SetDataCompleteCallback@cb
  5416  0441  00F6               	movwf	I2C_SetDataCompleteCallback@cb+1
  5417  0442  01F7               	clrf	I2C_SetDataCompleteCallback@ptr
  5418  0443  3183  23E6  3184   	fcall	_I2C_SetDataCompleteCallback
  5419  0446                     l2028:
  5420                           
  5421                           ;mcc_generated_files/i2c_master.c: 750:     return I2C_CONTINUE;
  5422  0446  3004               	movlw	4
  5423  0447                     l501:
  5424  0447  0008               	return
  5425  0448                     __end_of_wr2RegCompleteHandler:
  5426                           
  5427                           	psect	text48
  5428  03E6                     __ptext48:	
  5429 ;; *************** function _I2C_SetDataCompleteCallback *****************
  5430 ;; Defined at:
  5431 ;;		line 227 in file "mcc_generated_files/i2c_master.c"
  5432 ;; Parameters:    Size  Location     Type
  5433 ;;  cb              2    5[COMMON] PTR FTN(PTR void ,)enum 
  5434 ;;		 -> rdBlkRegCompleteHandler(1), wr2RegCompleteHandler(1), wr1RegCompleteHandler(1), rd1RegCompleteHandler(1), 
  5435 ;;		 -> Absolute function(1), 
  5436 ;;  ptr             1    7[COMMON] PTR void 
  5437 ;;		 -> I2C_ReadDataBlock@bufferBlock(3), I2C_Write2ByteRegister@data(2), I2C_Write1ByteRegister@data(1), I2C_Read2ByteR
      +egister@returnValue(1), 
  5438 ;;		 -> I2C_Read1ByteRegister@returnValue(1), NULL(0), 
  5439 ;; Auto vars:     Size  Location     Type
  5440 ;;		None
  5441 ;; Return value:  Size  Location     Type
  5442 ;;                  1    wreg      void 
  5443 ;; Registers used:
  5444 ;;		wreg, fsr1l, fsr1h, status,2, status,0, pclath, cstack
  5445 ;; Tracked objects:
  5446 ;;		On entry : 0/0
  5447 ;;		On exit  : 0/0
  5448 ;;		Unchanged: 0/0
  5449 ;; Data sizes:     COMMON   BANK0   BANK1   BANK2   BANK3   BANK4   BANK5   BANK6   BANK7   BANK8   BANK9  BANK10  BANK1
      +1  BANK12
  5450 ;;      Params:         3       0       0       0       0       0       0       0       0       0       0       0       
      +0       0
  5451 ;;      Locals:         0       0       0       0       0       0       0       0       0       0       0       0       
      +0       0
  5452 ;;      Temps:          1       0       0       0       0       0       0       0       0       0       0       0       
      +0       0
  5453 ;;      Totals:         4       0       0       0       0       0       0       0       0       0       0       0       
      +0       0
  5454 ;;Total ram usage:        4 bytes
  5455 ;; Hardware stack levels used: 1
  5456 ;; Hardware stack levels required when called: 1
  5457 ;; This function calls:
  5458 ;;		_I2C_SetCallback
  5459 ;; This function is called by:
  5460 ;;		_I2C_Write1ByteRegister
  5461 ;;		_rd1RegCompleteHandler
  5462 ;;		_wr1RegCompleteHandler
  5463 ;;		_wr2RegCompleteHandler
  5464 ;;		_rdBlkRegCompleteHandler
  5465 ;;		_I2C_Read1ByteRegister
  5466 ;;		_I2C_Read2ByteRegister
  5467 ;;		_I2C_Write2ByteRegister
  5468 ;;		_I2C_ReadDataBlock
  5469 ;;		_rd2RegCompleteHandler
  5470 ;; This function uses a non-reentrant model
  5471 ;;
  5472                           
  5473  03E6                     _I2C_SetDataCompleteCallback:	
  5474                           ;psect for function _I2C_SetDataCompleteCallback
  5475                           
  5476  03E6                     l1940:	
  5477                           ;incstack = 0
  5478                           ; Regs used in _I2C_SetDataCompleteCallback: [wreg+fsr1l+fsr1h+status,2+status,0+pclath+
      +                          cstack]
  5479                           
  5480                           
  5481                           ;mcc_generated_files/i2c_master.c: 227: void I2C_SetDataCompleteCallback(i2c_callback_t 
      +                          cb, void *ptr);mcc_generated_files/i2c_master.c: 228: {;mcc_generated_files/i2c_master.c
      +                          : 229:     I2C_SetCallback(I2C_DATA_COMPLETE, cb, ptr);
  5482  03E6  0876               	movf	I2C_SetDataCompleteCallback@cb+1,w
  5483  03E7  00F1               	movwf	I2C_SetCallback@cb+1
  5484  03E8  0875               	movf	I2C_SetDataCompleteCallback@cb,w
  5485  03E9  00F0               	movwf	I2C_SetCallback@cb
  5486  03EA  0877               	movf	I2C_SetDataCompleteCallback@ptr,w
  5487  03EB  00F8               	movwf	??_I2C_SetDataCompleteCallback
  5488  03EC  0878               	movf	??_I2C_SetDataCompleteCallback,w
  5489  03ED  00F2               	movwf	I2C_SetCallback@ptr
  5490  03EE  3000               	movlw	0
  5491  03EF  3184  24FE  3183   	fcall	_I2C_SetCallback
  5492  03F2                     l217:
  5493  03F2  0008               	return
  5494  03F3                     __end_of_I2C_SetDataCompleteCallback:
  5495                           
  5496                           	psect	text49
  5497  04FE                     __ptext49:	
  5498 ;; *************** function _I2C_SetCallback *****************
  5499 ;; Defined at:
  5500 ;;		line 252 in file "mcc_generated_files/i2c_master.c"
  5501 ;; Parameters:    Size  Location     Type
  5502 ;;  idx             1    wreg     enum E3388
  5503 ;;  cb              2    0[COMMON] PTR FTN(PTR void ,)enum 
  5504 ;;		 -> rdBlkRegCompleteHandler(1), wr2RegCompleteHandler(1), wr1RegCompleteHandler(1), rd1RegCompleteHandler(1), 
  5505 ;;		 -> Absolute function(1), 
  5506 ;;  ptr             1    2[COMMON] PTR void 
  5507 ;;		 -> I2C_ReadDataBlock@bufferBlock(3), I2C_Write2ByteRegister@data(2), I2C_Write1ByteRegister@data(1), I2C_Read2ByteR
      +egister@returnValue(1), 
  5508 ;;		 -> I2C_Read1ByteRegister@returnValue(1), NULL(0), 
  5509 ;; Auto vars:     Size  Location     Type
  5510 ;;  idx             1    4[COMMON] enum E3388
  5511 ;; Return value:  Size  Location     Type
  5512 ;;                  1    wreg      void 
  5513 ;; Registers used:
  5514 ;;		wreg, fsr1l, fsr1h, status,2, status,0
  5515 ;; Tracked objects:
  5516 ;;		On entry : 0/0
  5517 ;;		On exit  : 0/0
  5518 ;;		Unchanged: 0/0
  5519 ;; Data sizes:     COMMON   BANK0   BANK1   BANK2   BANK3   BANK4   BANK5   BANK6   BANK7   BANK8   BANK9  BANK10  BANK1
      +1  BANK12
  5520 ;;      Params:         3       0       0       0       0       0       0       0       0       0       0       0       
      +0       0
  5521 ;;      Locals:         1       0       0       0       0       0       0       0       0       0       0       0       
      +0       0
  5522 ;;      Temps:          1       0       0       0       0       0       0       0       0       0       0       0       
      +0       0
  5523 ;;      Totals:         5       0       0       0       0       0       0       0       0       0       0       0       
      +0       0
  5524 ;;Total ram usage:        5 bytes
  5525 ;; Hardware stack levels used: 1
  5526 ;; This function calls:
  5527 ;;		Nothing
  5528 ;; This function is called by:
  5529 ;;		_I2C_SetDataCompleteCallback
  5530 ;;		_I2C_SetAddressNackCallback
  5531 ;;		_I2C_SetWriteCollisionCallback
  5532 ;;		_I2C_SetDataNackCallback
  5533 ;;		_I2C_SetTimeoutCallback
  5534 ;; This function uses a non-reentrant model
  5535 ;;
  5536                           
  5537  04FE                     _I2C_SetCallback:	
  5538                           ;psect for function _I2C_SetCallback
  5539                           
  5540                           
  5541                           ;incstack = 0
  5542                           ; Regs used in _I2C_SetCallback: [wreg+fsr1l+fsr1h+status,2+status,0]
  5543                           ;I2C_SetCallback@idx stored from wreg
  5544  04FE  00F4               	movwf	I2C_SetCallback@idx
  5545  04FF                     l1928:
  5546                           
  5547                           ;mcc_generated_files/i2c_master.c: 252: static void I2C_SetCallback(i2c_callbackIndex_t 
      +                          idx, i2c_callback_t cb, void *ptr);mcc_generated_files/i2c_master.c: 253: {;mcc_generate
      +                          d_files/i2c_master.c: 254:     if(cb)
  5548  04FF  0870               	movf	I2C_SetCallback@cb,w
  5549  0500  0471               	iorwf	I2C_SetCallback@cb+1,w
  5550  0501  1903               	btfsc	3,2
  5551  0502  2D04               	goto	u561
  5552  0503  2D05               	goto	u560
  5553  0504                     u561:
  5554  0504  2D16               	goto	l1932
  5555  0505                     u560:
  5556  0505                     l1930:
  5557                           
  5558                           ;mcc_generated_files/i2c_master.c: 255:     {;mcc_generated_files/i2c_master.c: 256:    
      +                               I2C_Status.callbackTable[idx] = cb;
  5559  0505  3574               	lslf	I2C_SetCallback@idx,w
  5560  0506  3E20               	addlw	(low (_I2C_Status| 0))& (0+255)
  5561  0507  0086               	movwf	6
  5562  0508  0187               	clrf	7
  5563  0509  0870               	movf	I2C_SetCallback@cb,w
  5564  050A  3FC0               	movwi [0]fsr1
  5565  050B  0871               	movf	I2C_SetCallback@cb+1,w
  5566  050C  3FC1               	movwi [1]fsr1
  5567                           
  5568                           ;mcc_generated_files/i2c_master.c: 257:         I2C_Status.callbackPayload[idx] = ptr;
  5569  050D  0872               	movf	I2C_SetCallback@ptr,w
  5570  050E  00F3               	movwf	??_I2C_SetCallback
  5571  050F  0874               	movf	I2C_SetCallback@idx,w
  5572  0510  3E2C               	addlw	(low ((_I2C_Status| 0+12)))& (0+255)
  5573  0511  0086               	movwf	6
  5574  0512  0187               	clrf	7
  5575  0513  0873               	movf	??_I2C_SetCallback,w
  5576  0514  0081               	movwf	1
  5577                           
  5578                           ;mcc_generated_files/i2c_master.c: 258:     }
  5579  0515  2D23               	goto	l234
  5580  0516                     l1932:
  5581                           
  5582                           ;mcc_generated_files/i2c_master.c: 260:     {;mcc_generated_files/i2c_master.c: 261:    
      +                               I2C_Status.callbackTable[idx] = I2C_CallbackReturnStop;
  5583  0516  3574               	lslf	I2C_SetCallback@idx,w
  5584  0517  3E20               	addlw	(low (_I2C_Status| 0))& (0+255)
  5585  0518  0086               	movwf	6
  5586  0519  0187               	clrf	7
  5587  051A  3040               	movlw	low _I2C_CallbackReturnStop
  5588  051B  3FC0               	movwi [0]fsr1
  5589  051C  3003               	movlw	high _I2C_CallbackReturnStop
  5590  051D  3FC1               	movwi [1]fsr1
  5591                           
  5592                           ;mcc_generated_files/i2c_master.c: 262:         I2C_Status.callbackPayload[idx] = ((void
      +                          *)0);
  5593  051E  0874               	movf	I2C_SetCallback@idx,w
  5594  051F  3E2C               	addlw	(low ((_I2C_Status| 0+12)))& (0+255)
  5595  0520  0086               	movwf	6
  5596  0521  0187               	clrf	7
  5597  0522  0181               	clrf	1
  5598  0523                     l234:
  5599  0523  0008               	return
  5600  0524                     __end_of_I2C_SetCallback:
  5601                           
  5602                           	psect	text50
  5603  0427                     __ptext50:	
  5604 ;; *************** function _I2C_SetBuffer *****************
  5605 ;; Defined at:
  5606 ;;		line 217 in file "mcc_generated_files/i2c_master.c"
  5607 ;; Parameters:    Size  Location     Type
  5608 ;;  buffer          1    wreg     PTR void 
  5609 ;;		 -> I2C_Read1ByteRegister@returnValue.data(2), I2C_Read2ByteRegister@returnValue.data(2), I2C_Write1ByteRegister@dat
      +a.data(2), I2C_Write2ByteRegister@data.data(2), 
  5610 ;;		 -> I2C_ReadDataBlock@reg(1), I2C_ReadDataBlock@bufferBlock(3), bufferBlock.data(2), I2C_Write2ByteRegister@reg(1), 
  5611 ;;		 -> I2C_Write2ByteRegister@data(2), I2C_Write1ByteRegister@reg(1), I2C_Write1ByteRegister@data(1), I2C_Read2ByteRegi
      +ster@reg(1), 
  5612 ;;		 -> I2C_Read2ByteRegister@returnValue(1), I2C_Read1ByteRegister@reg(1), I2C_Read1ByteRegister@returnValue(1), I2C_Rd
      +@returnValue(1), 
  5613 ;;		 -> NULL(0), 
  5614 ;;  bufferSize      2    0[COMMON] unsigned int 
  5615 ;; Auto vars:     Size  Location     Type
  5616 ;;  buffer          1    3[COMMON] PTR void 
  5617 ;;		 -> I2C_Read1ByteRegister@returnValue.data(2), I2C_Read2ByteRegister@returnValue.data(2), I2C_Write1ByteRegister@dat
      +a.data(2), I2C_Write2ByteRegister@data.data(2), 
  5618 ;;		 -> I2C_ReadDataBlock@reg(1), I2C_ReadDataBlock@bufferBlock(3), bufferBlock.data(2), I2C_Write2ByteRegister@reg(1), 
  5619 ;;		 -> I2C_Write2ByteRegister@data(2), I2C_Write1ByteRegister@reg(1), I2C_Write1ByteRegister@data(1), I2C_Read2ByteRegi
      +ster@reg(1), 
  5620 ;;		 -> I2C_Read2ByteRegister@returnValue(1), I2C_Read1ByteRegister@reg(1), I2C_Read1ByteRegister@returnValue(1), I2C_Rd
      +@returnValue(1), 
  5621 ;;		 -> NULL(0), 
  5622 ;; Return value:  Size  Location     Type
  5623 ;;                  1    wreg      void 
  5624 ;; Registers used:
  5625 ;;		wreg
  5626 ;; Tracked objects:
  5627 ;;		On entry : 0/0
  5628 ;;		On exit  : 0/0
  5629 ;;		Unchanged: 0/0
  5630 ;; Data sizes:     COMMON   BANK0   BANK1   BANK2   BANK3   BANK4   BANK5   BANK6   BANK7   BANK8   BANK9  BANK10  BANK1
      +1  BANK12
  5631 ;;      Params:         2       0       0       0       0       0       0       0       0       0       0       0       
      +0       0
  5632 ;;      Locals:         1       0       0       0       0       0       0       0       0       0       0       0       
      +0       0
  5633 ;;      Temps:          1       0       0       0       0       0       0       0       0       0       0       0       
      +0       0
  5634 ;;      Totals:         4       0       0       0       0       0       0       0       0       0       0       0       
      +0       0
  5635 ;;Total ram usage:        4 bytes
  5636 ;; Hardware stack levels used: 1
  5637 ;; This function calls:
  5638 ;;		Nothing
  5639 ;; This function is called by:
  5640 ;;		_I2C_Rd
  5641 ;;		_I2C_Write1ByteRegister
  5642 ;;		_rd1RegCompleteHandler
  5643 ;;		_wr1RegCompleteHandler
  5644 ;;		_wr2RegCompleteHandler
  5645 ;;		_rdBlkRegCompleteHandler
  5646 ;;		_I2C_Read1ByteRegister
  5647 ;;		_I2C_Read2ByteRegister
  5648 ;;		_I2C_Write2ByteRegister
  5649 ;;		_I2C_WriteNBytes
  5650 ;;		_I2C_ReadNBytes
  5651 ;;		_I2C_ReadDataBlock
  5652 ;;		_rd2RegCompleteHandler
  5653 ;; This function uses a non-reentrant model
  5654 ;;
  5655                           
  5656  0427                     _I2C_SetBuffer:	
  5657                           ;psect for function _I2C_SetBuffer
  5658                           
  5659                           
  5660                           ;incstack = 0
  5661                           ; Regs used in _I2C_SetBuffer: [wreg]
  5662                           ;I2C_SetBuffer@buffer stored from wreg
  5663  0427  00F3               	movwf	I2C_SetBuffer@buffer
  5664  0428                     l1934:
  5665                           
  5666                           ;mcc_generated_files/i2c_master.c: 217: void I2C_SetBuffer(void *buffer, size_t bufferSi
      +                          ze);mcc_generated_files/i2c_master.c: 218: {;mcc_generated_files/i2c_master.c: 219:     
      +                          if(I2C_Status.bufferFree)
  5667  0428  0020               	movlb	0	; select bank0
  5668  0429  1DBC               	btfss	_I2C_Status+28,3
  5669  042A  2C2C               	goto	u571
  5670  042B  2C2D               	goto	u570
  5671  042C                     u571:
  5672  042C  2C36               	goto	l214
  5673  042D                     u570:
  5674  042D                     l1936:
  5675                           
  5676                           ;mcc_generated_files/i2c_master.c: 220:     {;mcc_generated_files/i2c_master.c: 221:    
      +                               I2C_Status.data_ptr = buffer;
  5677  042D  0873               	movf	I2C_SetBuffer@buffer,w
  5678  042E  00F2               	movwf	??_I2C_SetBuffer
  5679  042F  0872               	movf	??_I2C_SetBuffer,w
  5680  0430  00B7               	movwf	low ((_I2C_Status| 0+23))
  5681                           
  5682                           ;mcc_generated_files/i2c_master.c: 222:         I2C_Status.data_length = bufferSize;
  5683  0431  0871               	movf	I2C_SetBuffer@bufferSize+1,w
  5684  0432  00B9               	movwf	_I2C_Status+25
  5685  0433  0870               	movf	I2C_SetBuffer@bufferSize,w
  5686  0434  00B8               	movwf	_I2C_Status+24
  5687  0435                     l1938:
  5688                           
  5689                           ;mcc_generated_files/i2c_master.c: 223:         I2C_Status.bufferFree = 0;
  5690  0435  11BC               	bcf	_I2C_Status+28,3
  5691  0436                     l214:
  5692  0436  0008               	return
  5693  0437                     __end_of_I2C_SetBuffer:
  5694                           
  5695                           	psect	text51
  5696  0353                     __ptext51:	
  5697 ;; *************** function _I2C_MasterStop *****************
  5698 ;; Defined at:
  5699 ;;		line 547 in file "mcc_generated_files/i2c_master.c"
  5700 ;; Parameters:    Size  Location     Type
  5701 ;;		None
  5702 ;; Auto vars:     Size  Location     Type
  5703 ;;		None
  5704 ;; Return value:  Size  Location     Type
  5705 ;;                  1    wreg      void 
  5706 ;; Registers used:
  5707 ;;		None
  5708 ;; Tracked objects:
  5709 ;;		On entry : 0/0
  5710 ;;		On exit  : 0/0
  5711 ;;		Unchanged: 0/0
  5712 ;; Data sizes:     COMMON   BANK0   BANK1   BANK2   BANK3   BANK4   BANK5   BANK6   BANK7   BANK8   BANK9  BANK10  BANK1
      +1  BANK12
  5713 ;;      Params:         0       0       0       0       0       0       0       0       0       0       0       0       
      +0       0
  5714 ;;      Locals:         0       0       0       0       0       0       0       0       0       0       0       0       
      +0       0
  5715 ;;      Temps:          0       0       0       0       0       0       0       0       0       0       0       0       
      +0       0
  5716 ;;      Totals:         0       0       0       0       0       0       0       0       0       0       0       0       
      +0       0
  5717 ;;Total ram usage:        0 bytes
  5718 ;; Hardware stack levels used: 1
  5719 ;; This function calls:
  5720 ;;		Nothing
  5721 ;; This function is called by:
  5722 ;;		_I2C_DO_SEND_STOP
  5723 ;; This function uses a non-reentrant model
  5724 ;;
  5725                           
  5726  0353                     _I2C_MasterStop:	
  5727                           ;psect for function _I2C_MasterStop
  5728                           
  5729  0353                     l1944:	
  5730                           ;incstack = 0
  5731                           ; Regs used in _I2C_MasterStop: []
  5732                           
  5733                           
  5734                           ;mcc_generated_files/i2c_master.c: 549:     SSPCON2bits.PEN = 1;
  5735  0353  0024               	movlb	4	; select bank4
  5736  0354  1516               	bsf	22,2	;volatile
  5737  0355                     l380:
  5738  0355  0008               	return
  5739  0356                     __end_of_I2C_MasterStop:
  5740                           
  5741                           	psect	text52
  5742  0350                     __ptext52:	
  5743 ;; *************** function _I2C_MasterEnableRestart *****************
  5744 ;; Defined at:
  5745 ;;		line 527 in file "mcc_generated_files/i2c_master.c"
  5746 ;; Parameters:    Size  Location     Type
  5747 ;;		None
  5748 ;; Auto vars:     Size  Location     Type
  5749 ;;		None
  5750 ;; Return value:  Size  Location     Type
  5751 ;;                  1    wreg      void 
  5752 ;; Registers used:
  5753 ;;		None
  5754 ;; Tracked objects:
  5755 ;;		On entry : 0/0
  5756 ;;		On exit  : 0/0
  5757 ;;		Unchanged: 0/0
  5758 ;; Data sizes:     COMMON   BANK0   BANK1   BANK2   BANK3   BANK4   BANK5   BANK6   BANK7   BANK8   BANK9  BANK10  BANK1
      +1  BANK12
  5759 ;;      Params:         0       0       0       0       0       0       0       0       0       0       0       0       
      +0       0
  5760 ;;      Locals:         0       0       0       0       0       0       0       0       0       0       0       0       
      +0       0
  5761 ;;      Temps:          0       0       0       0       0       0       0       0       0       0       0       0       
      +0       0
  5762 ;;      Totals:         0       0       0       0       0       0       0       0       0       0       0       0       
      +0       0
  5763 ;;Total ram usage:        0 bytes
  5764 ;; Hardware stack levels used: 1
  5765 ;; This function calls:
  5766 ;;		Nothing
  5767 ;; This function is called by:
  5768 ;;		_I2C_DO_SEND_RESTART_READ
  5769 ;;		_I2C_DO_SEND_RESTART_WRITE
  5770 ;;		_I2C_DO_SEND_RESTART
  5771 ;;		_I2C_DO_RX_EMPTY
  5772 ;; This function uses a non-reentrant model
  5773 ;;
  5774                           
  5775  0350                     _I2C_MasterEnableRestart:	
  5776                           ;psect for function _I2C_MasterEnableRestart
  5777                           
  5778  0350                     l1942:	
  5779                           ;incstack = 0
  5780                           ; Regs used in _I2C_MasterEnableRestart: []
  5781                           
  5782                           
  5783                           ;mcc_generated_files/i2c_master.c: 529:     SSPCON2bits.RSEN = 1;
  5784  0350  0024               	movlb	4	; select bank4
  5785  0351  1496               	bsf	22,1	;volatile
  5786  0352                     l368:
  5787  0352  0008               	return
  5788  0353                     __end_of_I2C_MasterEnableRestart:
  5789                           
  5790                           	psect	text53
  5791  034D                     __ptext53:	
  5792 ;; *************** function _I2C_MasterStart *****************
  5793 ;; Defined at:
  5794 ;;		line 542 in file "mcc_generated_files/i2c_master.c"
  5795 ;; Parameters:    Size  Location     Type
  5796 ;;		None
  5797 ;; Auto vars:     Size  Location     Type
  5798 ;;		None
  5799 ;; Return value:  Size  Location     Type
  5800 ;;                  1    wreg      void 
  5801 ;; Registers used:
  5802 ;;		None
  5803 ;; Tracked objects:
  5804 ;;		On entry : 0/0
  5805 ;;		On exit  : 0/0
  5806 ;;		Unchanged: 0/0
  5807 ;; Data sizes:     COMMON   BANK0   BANK1   BANK2   BANK3   BANK4   BANK5   BANK6   BANK7   BANK8   BANK9  BANK10  BANK1
      +1  BANK12
  5808 ;;      Params:         0       0       0       0       0       0       0       0       0       0       0       0       
      +0       0
  5809 ;;      Locals:         0       0       0       0       0       0       0       0       0       0       0       0       
      +0       0
  5810 ;;      Temps:          0       0       0       0       0       0       0       0       0       0       0       0       
      +0       0
  5811 ;;      Totals:         0       0       0       0       0       0       0       0       0       0       0       0       
      +0       0
  5812 ;;Total ram usage:        0 bytes
  5813 ;; Hardware stack levels used: 1
  5814 ;; This function calls:
  5815 ;;		Nothing
  5816 ;; This function is called by:
  5817 ;;		_I2C_MasterOperation
  5818 ;; This function uses a non-reentrant model
  5819 ;;
  5820                           
  5821  034D                     _I2C_MasterStart:	
  5822                           ;psect for function _I2C_MasterStart
  5823                           
  5824  034D                     l2206:	
  5825                           ;incstack = 0
  5826                           ; Regs used in _I2C_MasterStart: []
  5827                           
  5828                           
  5829                           ;mcc_generated_files/i2c_master.c: 544:     SSPCON2bits.SEN = 1;
  5830  034D  0024               	movlb	4	; select bank4
  5831  034E  1416               	bsf	22,0	;volatile
  5832  034F                     l377:
  5833  034F  0008               	return
  5834  0350                     __end_of_I2C_MasterStart:
  5835                           
  5836                           	psect	text54
  5837  0482                     __ptext54:	
  5838 ;; *************** function _I2C_Close *****************
  5839 ;; Defined at:
  5840 ;;		line 163 in file "mcc_generated_files/i2c_master.c"
  5841 ;; Parameters:    Size  Location     Type
  5842 ;;		None
  5843 ;; Auto vars:     Size  Location     Type
  5844 ;;  returnValue     1    1[COMMON] enum E355
  5845 ;; Return value:  Size  Location     Type
  5846 ;;                  1    wreg      enum E355
  5847 ;; Registers used:
  5848 ;;		wreg, status,2, status,0, pclath, cstack
  5849 ;; Tracked objects:
  5850 ;;		On entry : 0/0
  5851 ;;		On exit  : 0/0
  5852 ;;		Unchanged: 0/0
  5853 ;; Data sizes:     COMMON   BANK0   BANK1   BANK2   BANK3   BANK4   BANK5   BANK6   BANK7   BANK8   BANK9  BANK10  BANK1
      +1  BANK12
  5854 ;;      Params:         0       0       0       0       0       0       0       0       0       0       0       0       
      +0       0
  5855 ;;      Locals:         1       0       0       0       0       0       0       0       0       0       0       0       
      +0       0
  5856 ;;      Temps:          1       0       0       0       0       0       0       0       0       0       0       0       
      +0       0
  5857 ;;      Totals:         2       0       0       0       0       0       0       0       0       0       0       0       
      +0       0
  5858 ;;Total ram usage:        2 bytes
  5859 ;; Hardware stack levels used: 1
  5860 ;; Hardware stack levels required when called: 1
  5861 ;; This function calls:
  5862 ;;		_I2C_MasterClearIrq
  5863 ;;		_I2C_MasterClose
  5864 ;;		_I2C_MasterDisableIrq
  5865 ;; This function is called by:
  5866 ;;		_I2C_Rd
  5867 ;;		_I2C_Write1ByteRegister
  5868 ;;		_I2C_Read1ByteRegister
  5869 ;;		_I2C_Read2ByteRegister
  5870 ;;		_I2C_Write2ByteRegister
  5871 ;;		_I2C_WriteNBytes
  5872 ;;		_I2C_ReadNBytes
  5873 ;;		_I2C_ReadDataBlock
  5874 ;; This function uses a non-reentrant model
  5875 ;;
  5876                           
  5877  0482                     _I2C_Close:	
  5878                           ;psect for function _I2C_Close
  5879                           
  5880  0482                     l2320:	
  5881                           ;incstack = 0
  5882                           ; Regs used in _I2C_Close: [wreg+status,2+status,0+pclath+cstack]
  5883                           
  5884                           
  5885                           ;mcc_generated_files/i2c_master.c: 165:     i2c_error_t returnValue = I2C_BUSY;
  5886  0482  01F1               	clrf	I2C_Close@returnValue
  5887  0483  0AF1               	incf	I2C_Close@returnValue,f
  5888                           
  5889                           ;mcc_generated_files/i2c_master.c: 166:     if(!I2C_Status.busy)
  5890  0484  0020               	movlb	0	; select bank0
  5891  0485  18BC               	btfsc	_I2C_Status+28,1
  5892  0486  2C88               	goto	u691
  5893  0487  2C89               	goto	u690
  5894  0488                     u691:
  5895  0488  2C9C               	goto	l2334
  5896  0489                     u690:
  5897  0489                     l2322:
  5898                           
  5899                           ;mcc_generated_files/i2c_master.c: 167:     {;mcc_generated_files/i2c_master.c: 168:    
      +                               I2C_Status.inUse = 0;
  5900  0489  113C               	bcf	_I2C_Status+28,2
  5901  048A                     l2324:
  5902                           
  5903                           ;mcc_generated_files/i2c_master.c: 169:         I2C_Status.address = 0xff;
  5904  048A  30FF               	movlw	255
  5905  048B  00F0               	movwf	??_I2C_Close
  5906  048C  0870               	movf	??_I2C_Close,w
  5907  048D  00B6               	movwf	_I2C_Status+22
  5908  048E                     l2326:
  5909                           
  5910                           ;mcc_generated_files/i2c_master.c: 170:         I2C_MasterClearIrq();
  5911  048E  3183  2344  3184   	fcall	_I2C_MasterClearIrq
  5912  0491                     l2328:
  5913                           
  5914                           ;mcc_generated_files/i2c_master.c: 171:         I2C_MasterDisableIrq();
  5915  0491  3183  234A  3184   	fcall	_I2C_MasterDisableIrq
  5916  0494                     l2330:
  5917                           
  5918                           ;mcc_generated_files/i2c_master.c: 172:         I2C_MasterClose();
  5919  0494  3183  2347  3184   	fcall	_I2C_MasterClose
  5920  0497                     l2332:
  5921                           
  5922                           ;mcc_generated_files/i2c_master.c: 173:         returnValue = I2C_Status.error;
  5923  0497  0020               	movlb	0	; select bank0
  5924  0498  083B               	movf	_I2C_Status+27,w
  5925  0499  00F0               	movwf	??_I2C_Close
  5926  049A  0870               	movf	??_I2C_Close,w
  5927  049B  00F1               	movwf	I2C_Close@returnValue
  5928  049C                     l2334:
  5929                           
  5930                           ;mcc_generated_files/i2c_master.c: 175:     return returnValue;
  5931  049C  0871               	movf	I2C_Close@returnValue,w
  5932  049D                     l195:
  5933  049D  0008               	return
  5934  049E                     __end_of_I2C_Close:
  5935                           
  5936                           	psect	text55
  5937  034A                     __ptext55:	
  5938 ;; *************** function _I2C_MasterDisableIrq *****************
  5939 ;; Defined at:
  5940 ;;		line 589 in file "mcc_generated_files/i2c_master.c"
  5941 ;; Parameters:    Size  Location     Type
  5942 ;;		None
  5943 ;; Auto vars:     Size  Location     Type
  5944 ;;		None
  5945 ;; Return value:  Size  Location     Type
  5946 ;;                  1    wreg      void 
  5947 ;; Registers used:
  5948 ;;		None
  5949 ;; Tracked objects:
  5950 ;;		On entry : 0/0
  5951 ;;		On exit  : 0/0
  5952 ;;		Unchanged: 0/0
  5953 ;; Data sizes:     COMMON   BANK0   BANK1   BANK2   BANK3   BANK4   BANK5   BANK6   BANK7   BANK8   BANK9  BANK10  BANK1
      +1  BANK12
  5954 ;;      Params:         0       0       0       0       0       0       0       0       0       0       0       0       
      +0       0
  5955 ;;      Locals:         0       0       0       0       0       0       0       0       0       0       0       0       
      +0       0
  5956 ;;      Temps:          0       0       0       0       0       0       0       0       0       0       0       0       
      +0       0
  5957 ;;      Totals:         0       0       0       0       0       0       0       0       0       0       0       0       
      +0       0
  5958 ;;Total ram usage:        0 bytes
  5959 ;; Hardware stack levels used: 1
  5960 ;; This function calls:
  5961 ;;		Nothing
  5962 ;; This function is called by:
  5963 ;;		_I2C_Close
  5964 ;;		_I2C_SetTimeOut
  5965 ;; This function uses a non-reentrant model
  5966 ;;
  5967                           
  5968  034A                     _I2C_MasterDisableIrq:	
  5969                           ;psect for function _I2C_MasterDisableIrq
  5970                           
  5971  034A                     l2228:	
  5972                           ;incstack = 0
  5973                           ; Regs used in _I2C_MasterDisableIrq: []
  5974                           
  5975                           
  5976                           ;mcc_generated_files/i2c_master.c: 591:     PIE1bits.SSPIE = 0;
  5977  034A  0021               	movlb	1	; select bank1
  5978  034B  1191               	bcf	17,3	;volatile
  5979  034C                     l404:
  5980  034C  0008               	return
  5981  034D                     __end_of_I2C_MasterDisableIrq:
  5982                           
  5983                           	psect	text56
  5984  0347                     __ptext56:	
  5985 ;; *************** function _I2C_MasterClose *****************
  5986 ;; Defined at:
  5987 ;;		line 511 in file "mcc_generated_files/i2c_master.c"
  5988 ;; Parameters:    Size  Location     Type
  5989 ;;		None
  5990 ;; Auto vars:     Size  Location     Type
  5991 ;;		None
  5992 ;; Return value:  Size  Location     Type
  5993 ;;                  1    wreg      void 
  5994 ;; Registers used:
  5995 ;;		None
  5996 ;; Tracked objects:
  5997 ;;		On entry : 0/0
  5998 ;;		On exit  : 0/0
  5999 ;;		Unchanged: 0/0
  6000 ;; Data sizes:     COMMON   BANK0   BANK1   BANK2   BANK3   BANK4   BANK5   BANK6   BANK7   BANK8   BANK9  BANK10  BANK1
      +1  BANK12
  6001 ;;      Params:         0       0       0       0       0       0       0       0       0       0       0       0       
      +0       0
  6002 ;;      Locals:         0       0       0       0       0       0       0       0       0       0       0       0       
      +0       0
  6003 ;;      Temps:          0       0       0       0       0       0       0       0       0       0       0       0       
      +0       0
  6004 ;;      Totals:         0       0       0       0       0       0       0       0       0       0       0       0       
      +0       0
  6005 ;;Total ram usage:        0 bytes
  6006 ;; Hardware stack levels used: 1
  6007 ;; This function calls:
  6008 ;;		Nothing
  6009 ;; This function is called by:
  6010 ;;		_I2C_Close
  6011 ;; This function uses a non-reentrant model
  6012 ;;
  6013                           
  6014  0347                     _I2C_MasterClose:	
  6015                           ;psect for function _I2C_MasterClose
  6016                           
  6017  0347                     l2230:	
  6018                           ;incstack = 0
  6019                           ; Regs used in _I2C_MasterClose: []
  6020                           
  6021                           
  6022                           ;mcc_generated_files/i2c_master.c: 514:     SSPCON1bits.SSPEN = 0;
  6023  0347  0024               	movlb	4	; select bank4
  6024  0348  1295               	bcf	21,5	;volatile
  6025  0349                     l359:
  6026  0349  0008               	return
  6027  034A                     __end_of_I2C_MasterClose:
  6028                           
  6029                           	psect	text57
  6030  0344                     __ptext57:	
  6031 ;; *************** function _I2C_MasterClearIrq *****************
  6032 ;; Defined at:
  6033 ;;		line 594 in file "mcc_generated_files/i2c_master.c"
  6034 ;; Parameters:    Size  Location     Type
  6035 ;;		None
  6036 ;; Auto vars:     Size  Location     Type
  6037 ;;		None
  6038 ;; Return value:  Size  Location     Type
  6039 ;;                  1    wreg      void 
  6040 ;; Registers used:
  6041 ;;		None
  6042 ;; Tracked objects:
  6043 ;;		On entry : 0/0
  6044 ;;		On exit  : 0/0
  6045 ;;		Unchanged: 0/0
  6046 ;; Data sizes:     COMMON   BANK0   BANK1   BANK2   BANK3   BANK4   BANK5   BANK6   BANK7   BANK8   BANK9  BANK10  BANK1
      +1  BANK12
  6047 ;;      Params:         0       0       0       0       0       0       0       0       0       0       0       0       
      +0       0
  6048 ;;      Locals:         0       0       0       0       0       0       0       0       0       0       0       0       
      +0       0
  6049 ;;      Temps:          0       0       0       0       0       0       0       0       0       0       0       0       
      +0       0
  6050 ;;      Totals:         0       0       0       0       0       0       0       0       0       0       0       0       
      +0       0
  6051 ;;Total ram usage:        0 bytes
  6052 ;; Hardware stack levels used: 1
  6053 ;; This function calls:
  6054 ;;		Nothing
  6055 ;; This function is called by:
  6056 ;;		_I2C_Open
  6057 ;;		_I2C_Close
  6058 ;;		_I2C_MasterFsm
  6059 ;; This function uses a non-reentrant model
  6060 ;;
  6061                           
  6062  0344                     _I2C_MasterClearIrq:	
  6063                           ;psect for function _I2C_MasterClearIrq
  6064                           
  6065  0344                     l2038:	
  6066                           ;incstack = 0
  6067                           ; Regs used in _I2C_MasterClearIrq: []
  6068                           
  6069                           
  6070                           ;mcc_generated_files/i2c_master.c: 596:     PIR1bits.SSPIF = 0;
  6071  0344  0020               	movlb	0	; select bank0
  6072  0345  1191               	bcf	17,3	;volatile
  6073  0346                     l407:
  6074  0346  0008               	return
  6075  0347                     __end_of_I2C_MasterClearIrq:
  6076  007E                     btemp	set	126	;btemp
  6077  007E                     wtemp0	set	126
  6078                           
  6079                           	psect	idloc
  6080                           
  6081                           ;Config register IDLOC0 @ 0x8000
  6082                           ;	unspecified, using default values
  6083  8000                     	org	32768
  6084  8000  3FFF               	dw	16383
  6085                           
  6086                           ;Config register IDLOC1 @ 0x8001
  6087                           ;	unspecified, using default values
  6088  8001                     	org	32769
  6089  8001  3FFF               	dw	16383
  6090                           
  6091                           ;Config register IDLOC2 @ 0x8002
  6092                           ;	unspecified, using default values
  6093  8002                     	org	32770
  6094  8002  3FFF               	dw	16383
  6095                           
  6096                           ;Config register IDLOC3 @ 0x8003
  6097                           ;	unspecified, using default values
  6098  8003                     	org	32771
  6099  8003  3FFF               	dw	16383
  6100                           
  6101                           	psect	config
  6102                           
  6103                           ;Config register CONFIG1 @ 0x8007
  6104                           ;	Oscillator Selection
  6105                           ;	FOSC = INTOSC, INTOSC oscillator: I/O function on CLKIN pin
  6106                           ;	Watchdog Timer Enable
  6107                           ;	WDTE = OFF, WDT disabled
  6108                           ;	Power-up Timer Enable
  6109                           ;	PWRTE = OFF, PWRT disabled
  6110                           ;	MCLR Pin Function Select
  6111                           ;	MCLRE = ON, MCLR/VPP pin function is MCLR
  6112                           ;	Flash Program Memory Code Protection
  6113                           ;	CP = OFF, Program memory code protection is disabled
  6114                           ;	Data Memory Code Protection
  6115                           ;	CPD = OFF, Data memory code protection is disabled
  6116                           ;	Brown-out Reset Enable
  6117                           ;	BOREN = ON, Brown-out Reset enabled
  6118                           ;	Clock Out Enable
  6119                           ;	CLKOUTEN = OFF, CLKOUT function is disabled. I/O or oscillator function on the CLKOUT 
      +                          pin
  6120                           ;	Internal/External Switchover
  6121                           ;	IESO = ON, Internal/External Switchover mode is enabled
  6122                           ;	Fail-Safe Clock Monitor Enable
  6123                           ;	FCMEN = ON, Fail-Safe Clock Monitor is enabled
  6124  8007                     	org	32775
  6125  8007  3FE4               	dw	16356
  6126                           
  6127                           ;Config register CONFIG2 @ 0x8008
  6128                           ;	Flash Memory Self-Write Protection
  6129                           ;	WRT = OFF, Write protection off
  6130                           ;	Voltage Regulator Capacitor Enable
  6131                           ;	VCAPEN = OFF, All VCAP pin functionality is disabled
  6132                           ;	PLL Enable
  6133                           ;	PLLEN = ON, 4x PLL enabled
  6134                           ;	Stack Overflow/Underflow Reset Enable
  6135                           ;	STVREN = ON, Stack Overflow or Underflow will cause a Reset
  6136                           ;	Brown-out Reset Voltage Selection
  6137                           ;	BORV = LO, Brown-out Reset Voltage (Vbor), low trip point selected.
  6138                           ;	Low-Voltage Programming Enable
  6139                           ;	LVP = ON, Low-voltage programming enabled
  6140  8008                     	org	32776
  6141  8008  3FFF               	dw	16383

Data Sizes:
    Strings     0
    Constant    42
    Data        0
    BSS         34
    Persistent  32
    Stack       0

Auto Spaces:
    Space          Size  Autos    Used
    COMMON           14     14      14
    BANK0            80      3      37
    BANK1            80      0       0
    BANK2            80      0       0
    BANK3            80      0       0
    BANK4            80      0       0
    BANK5            80      0       0
    BANK6            80      0       0
    BANK7            80      0       0
    BANK8            80      0       0
    BANK9            80      0       0
    BANK10           80      0       0
    BANK11           80      0       0
    BANK12           48      0       0

Pointer List with Targets:

    I2C_Read1ByteRegister@returnValue.data	PTR unsigned char  size(1) Largest target is 0

    I2C_Read2ByteRegister@returnValue.data	PTR unsigned char  size(1) Largest target is 0

    I2C_Write1ByteRegister@data.data	PTR unsigned char  size(1) Largest target is 0

    I2C_Write2ByteRegister@data.data	PTR unsigned char  size(1) Largest target is 0

    I2C_DO_TX$1511$0	PTR void  size(1) Largest target is 4
		 -> I2C_ReadDataBlock@bufferBlock(COMMON[3]), I2C_Write2ByteRegister@data(COMMON[2]), I2C_Write1ByteRegister@data(COMMON[1]), I2C_Read2ByteRegister@returnValue(COMMON[1]), 
		 -> I2C_Read1ByteRegister@returnValue(COMMON[1]), NULL(NULL[0]), 

    I2C_DO_TX$1516	PTR void  size(1) Largest target is 4
		 -> I2C_ReadDataBlock@bufferBlock(COMMON[3]), I2C_Write2ByteRegister@data(COMMON[2]), I2C_Write1ByteRegister@data(COMMON[1]), I2C_Read2ByteRegister@returnValue(COMMON[1]), 
		 -> I2C_Read1ByteRegister@returnValue(COMMON[1]), NULL(NULL[0]), 

    I2C_DO_TX$1511	PTR FTN(PTR void ,)enum E360 size(2) Largest target is 1
		 -> rdBlkRegCompleteHandler(), wr2RegCompleteHandler(), wr1RegCompleteHandler(), rd1RegCompleteHandler(), 
		 -> I2C_CallbackReturnReset(), I2C_CallbackReturnStop(), Absolute function(), 

    I2C_MasterFsm$1510	const PTR FTN()enum E3370 size(2) Largest target is 1
		 -> I2C_DO_ADDRESS_NACK(), I2C_DO_RESET(), I2C_DO_RX_NACK_RESTART(), I2C_DO_RX_NACK_STOP(), 
		 -> I2C_DO_RX_ACK(), I2C_DO_SEND_STOP(), I2C_DO_SEND_RESTART(), I2C_DO_SEND_RESTART_WRITE(), 
		 -> I2C_DO_SEND_RESTART_READ(), I2C_DO_TX_EMPTY(), I2C_DO_RCEN(), I2C_DO_RX(), 
		 -> I2C_DO_TX(), I2C_DO_SEND_ADR_WRITE(), I2C_DO_SEND_ADR_READ(), I2C_DO_IDLE(), 

    I2C_CallbackReturnStop@funPtr	PTR void  size(1) Largest target is 4
		 -> I2C_ReadDataBlock@bufferBlock(COMMON[3]), I2C_Write2ByteRegister@data(COMMON[2]), I2C_Write1ByteRegister@data(COMMON[1]), I2C_Read2ByteRegister@returnValue(COMMON[1]), 
		 -> I2C_Read1ByteRegister@returnValue(COMMON[1]), NULL(NULL[0]), 

    I2C_CallbackReturnReset@funPtr	PTR void  size(1) Largest target is 4
		 -> I2C_ReadDataBlock@bufferBlock(COMMON[3]), I2C_Write2ByteRegister@data(COMMON[2]), I2C_Write1ByteRegister@data(COMMON[1]), I2C_Read2ByteRegister@returnValue(COMMON[1]), 
		 -> I2C_Read1ByteRegister@returnValue(COMMON[1]), NULL(NULL[0]), 

    cb$0	PTR void  size(1) Largest target is 4
		 -> I2C_ReadDataBlock@bufferBlock(COMMON[3]), I2C_Write2ByteRegister@data(COMMON[2]), I2C_Write1ByteRegister@data(COMMON[1]), I2C_Read2ByteRegister@returnValue(COMMON[1]), 
		 -> I2C_Read1ByteRegister@returnValue(COMMON[1]), NULL(NULL[0]), 

    Absolute function$0	PTR void  size(1) Largest target is 4
		 -> I2C_ReadDataBlock@bufferBlock(COMMON[3]), I2C_Write2ByteRegister@data(COMMON[2]), I2C_Write1ByteRegister@data(COMMON[1]), I2C_Read2ByteRegister@returnValue(COMMON[1]), 
		 -> I2C_Read1ByteRegister@returnValue(COMMON[1]), NULL(NULL[0]), 

    cb$0	PTR void  size(1) Largest target is 4
		 -> I2C_ReadDataBlock@bufferBlock(COMMON[3]), I2C_Write2ByteRegister@data(COMMON[2]), I2C_Write1ByteRegister@data(COMMON[1]), I2C_Read2ByteRegister@returnValue(COMMON[1]), 
		 -> I2C_Read1ByteRegister@returnValue(COMMON[1]), NULL(NULL[0]), 

    S206$0$0	PTR void  size(1) Largest target is 4
		 -> I2C_ReadDataBlock@bufferBlock(COMMON[3]), I2C_Write2ByteRegister@data(COMMON[2]), I2C_Write1ByteRegister@data(COMMON[1]), I2C_Read2ByteRegister@returnValue(COMMON[1]), 
		 -> I2C_Read1ByteRegister@returnValue(COMMON[1]), NULL(NULL[0]), 

    rdBlkRegCompleteHandler@ptr.data	PTR unsigned char  size(1) Largest target is 0

    rdBlkRegCompleteHandler@ptr	PTR void  size(1) Largest target is 4
		 -> I2C_ReadDataBlock@bufferBlock(COMMON[3]), I2C_Write2ByteRegister@data(COMMON[2]), I2C_Write1ByteRegister@data(COMMON[1]), I2C_Read2ByteRegister@returnValue(COMMON[1]), 
		 -> I2C_Read1ByteRegister@returnValue(COMMON[1]), NULL(NULL[0]), 

    wr2RegCompleteHandler@ptr	PTR void  size(1) Largest target is 4
		 -> I2C_ReadDataBlock@bufferBlock(COMMON[3]), I2C_Write2ByteRegister@data(COMMON[2]), I2C_Write1ByteRegister@data(COMMON[1]), I2C_Read2ByteRegister@returnValue(COMMON[1]), 
		 -> I2C_Read1ByteRegister@returnValue(COMMON[1]), NULL(NULL[0]), 

    wr1RegCompleteHandler@ptr	PTR void  size(1) Largest target is 4
		 -> I2C_ReadDataBlock@bufferBlock(COMMON[3]), I2C_Write2ByteRegister@data(COMMON[2]), I2C_Write1ByteRegister@data(COMMON[1]), I2C_Read2ByteRegister@returnValue(COMMON[1]), 
		 -> I2C_Read1ByteRegister@returnValue(COMMON[1]), NULL(NULL[0]), 

    rd1RegCompleteHandler@ptr	PTR void  size(1) Largest target is 4
		 -> I2C_ReadDataBlock@bufferBlock(COMMON[3]), I2C_Write2ByteRegister@data(COMMON[2]), I2C_Write1ByteRegister@data(COMMON[1]), I2C_Read2ByteRegister@returnValue(COMMON[1]), 
		 -> I2C_Read1ByteRegister@returnValue(COMMON[1]), NULL(NULL[0]), 

    S522$data	PTR unsigned char  size(1) Largest target is 0

    bufferBlock.data	PTR unsigned char  size(1) Largest target is 0

    I2C_SetCallback@ptr	PTR void  size(1) Largest target is 4
		 -> I2C_ReadDataBlock@bufferBlock(COMMON[3]), I2C_Write2ByteRegister@data(COMMON[2]), I2C_Write1ByteRegister@data(COMMON[1]), I2C_Read2ByteRegister@returnValue(COMMON[1]), 
		 -> I2C_Read1ByteRegister@returnValue(COMMON[1]), NULL(NULL[0]), 

    I2C_SetCallback@cb	PTR FTN(PTR void ,)enum E360 size(2) Largest target is 1
		 -> rdBlkRegCompleteHandler(), wr2RegCompleteHandler(), wr1RegCompleteHandler(), rd1RegCompleteHandler(), 
		 -> Absolute function(), 

    I2C_SetAddressNackCallback@ptr	PTR void  size(1) Largest target is 0
		 -> NULL(NULL[0]), 

    I2C_SetAddressNackCallback@cb	PTR FTN(PTR void ,)enum E360 size(2) Largest target is 1
		 -> Absolute function(), 

    I2C_SetDataCompleteCallback@ptr	PTR void  size(1) Largest target is 4
		 -> I2C_ReadDataBlock@bufferBlock(COMMON[3]), I2C_Write2ByteRegister@data(COMMON[2]), I2C_Write1ByteRegister@data(COMMON[1]), I2C_Read2ByteRegister@returnValue(COMMON[1]), 
		 -> I2C_Read1ByteRegister@returnValue(COMMON[1]), NULL(NULL[0]), 

    I2C_SetDataCompleteCallback@cb	PTR FTN(PTR void ,)enum E360 size(2) Largest target is 1
		 -> rdBlkRegCompleteHandler(), wr2RegCompleteHandler(), wr1RegCompleteHandler(), rd1RegCompleteHandler(), 
		 -> Absolute function(), 

    I2C_SetBuffer@buffer	PTR void  size(1) Largest target is 4
		 -> I2C_Read1ByteRegister@returnValue.data(COMMON[2]), I2C_Read2ByteRegister@returnValue.data(COMMON[2]), I2C_Write1ByteRegister@data.data(COMMON[2]), I2C_Write2ByteRegister@data.data(COMMON[2]), 
		 -> I2C_ReadDataBlock@reg(COMMON[1]), I2C_ReadDataBlock@bufferBlock(COMMON[3]), bufferBlock.data(COMMON[2]), I2C_Write2ByteRegister@reg(COMMON[1]), 
		 -> I2C_Write2ByteRegister@data(COMMON[2]), I2C_Write1ByteRegister@reg(COMMON[1]), I2C_Write1ByteRegister@data(COMMON[1]), I2C_Read2ByteRegister@reg(COMMON[1]), 
		 -> I2C_Read2ByteRegister@returnValue(COMMON[1]), I2C_Read1ByteRegister@reg(COMMON[1]), I2C_Read1ByteRegister@returnValue(COMMON[1]), I2C_Rd@returnValue(COMMON[1]), 
		 -> NULL(NULL[0]), 

    S206$data_ptr	PTR unsigned char  size(1) Largest target is 4
		 -> I2C_ReadDataBlock@reg(COMMON[1]), I2C_ReadDataBlock@bufferBlock(COMMON[3]), I2C_Write2ByteRegister@reg(COMMON[1]), I2C_Write2ByteRegister@data(COMMON[2]), 
		 -> I2C_Write1ByteRegister@reg(COMMON[1]), I2C_Write1ByteRegister@data(COMMON[1]), I2C_Read2ByteRegister@reg(COMMON[1]), I2C_Read2ByteRegister@returnValue(COMMON[1]), 
		 -> I2C_Read1ByteRegister@reg(COMMON[1]), I2C_Read1ByteRegister@returnValue(COMMON[1]), I2C_Rd@returnValue(COMMON[1]), NULL(NULL[0]), 

    I2C_Status.data_ptr	PTR unsigned char  size(1) Largest target is 4
		 -> I2C_Read1ByteRegister@returnValue.data(COMMON[2]), I2C_Read2ByteRegister@returnValue.data(COMMON[2]), I2C_Write1ByteRegister@data.data(COMMON[2]), I2C_Write2ByteRegister@data.data(COMMON[2]), 
		 -> I2C_ReadDataBlock@reg(COMMON[1]), I2C_ReadDataBlock@bufferBlock(COMMON[3]), bufferBlock.data(COMMON[2]), I2C_Write2ByteRegister@reg(COMMON[1]), 
		 -> I2C_Write2ByteRegister@data(COMMON[2]), I2C_Write1ByteRegister@reg(COMMON[1]), I2C_Write1ByteRegister@data(COMMON[1]), I2C_Read2ByteRegister@reg(COMMON[1]), 
		 -> I2C_Read2ByteRegister@returnValue(COMMON[1]), I2C_Read1ByteRegister@reg(COMMON[1]), I2C_Read1ByteRegister@returnValue(COMMON[1]), I2C_Rd@returnValue(COMMON[1]), 
		 -> NULL(NULL[0]), 

    S206$callbackPayload	PTR void [6] size(1) Largest target is 4
		 -> I2C_ReadDataBlock@bufferBlock(COMMON[3]), I2C_Write2ByteRegister@data(COMMON[2]), I2C_Write1ByteRegister@data(COMMON[1]), I2C_Read2ByteRegister@returnValue(COMMON[1]), 
		 -> I2C_Read1ByteRegister@returnValue(COMMON[1]), NULL(NULL[0]), 

    I2C_Status.callbackPayload	PTR void [6] size(1) Largest target is 4
		 -> I2C_ReadDataBlock@bufferBlock(COMMON[3]), I2C_Write2ByteRegister@data(COMMON[2]), I2C_Write1ByteRegister@data(COMMON[1]), I2C_Read2ByteRegister@returnValue(COMMON[1]), 
		 -> I2C_Read1ByteRegister@returnValue(COMMON[1]), NULL(NULL[0]), 

    S206$callbackTable	PTR FTN(PTR void ,)enum E360[6] size(2) Largest target is 1
		 -> rdBlkRegCompleteHandler(), wr2RegCompleteHandler(), wr1RegCompleteHandler(), rd1RegCompleteHandler(), 
		 -> I2C_CallbackReturnReset(), I2C_CallbackReturnStop(), Absolute function(), 

    I2C_Status.callbackTable	PTR FTN(PTR void ,)enum E360[6] size(2) Largest target is 1
		 -> rdBlkRegCompleteHandler(), wr2RegCompleteHandler(), wr1RegCompleteHandler(), rd1RegCompleteHandler(), 
		 -> I2C_CallbackReturnReset(), I2C_CallbackReturnStop(), Absolute function(), 

    i2c_fsmStateTable	const PTR FTN()enum E3370[16] size(2) Largest target is 1
		 -> I2C_DO_ADDRESS_NACK(), I2C_DO_RESET(), I2C_DO_RX_NACK_RESTART(), I2C_DO_RX_NACK_STOP(), 
		 -> I2C_DO_RX_ACK(), I2C_DO_SEND_STOP(), I2C_DO_SEND_RESTART(), I2C_DO_SEND_RESTART_WRITE(), 
		 -> I2C_DO_SEND_RESTART_READ(), I2C_DO_TX_EMPTY(), I2C_DO_RCEN(), I2C_DO_RX(), 
		 -> I2C_DO_TX(), I2C_DO_SEND_ADR_WRITE(), I2C_DO_SEND_ADR_READ(), I2C_DO_IDLE(), 


Critical Paths under _main in COMMON

    _main->_I2C_Write1ByteRegister
    _I2C_SetAddressNackCallback->_I2C_SetCallback
    _I2C_MasterWrite->_I2C_MasterOperation
    _I2C_MasterRead->_I2C_MasterOperation
    _I2C_Poller->_I2C_MasterFsm
    _I2C_MasterFsm->_I2C_DO_TX
    _I2C_DO_TX->_I2C_MasterSendTxData
    _I2C_DO_SEND_ADR_WRITE->_I2C_MasterSendTxData
    _wr2RegCompleteHandler->_I2C_SetDataCompleteCallback
    _wr1RegCompleteHandler->_I2C_SetDataCompleteCallback
    _rdBlkRegCompleteHandler->_I2C_SetDataCompleteCallback
    _rd1RegCompleteHandler->_I2C_SetDataCompleteCallback
    _I2C_SetDataCompleteCallback->_I2C_SetCallback

Critical Paths under _main in BANK0

    None.

Critical Paths under _main in BANK1

    None.

Critical Paths under _main in BANK2

    None.

Critical Paths under _main in BANK3

    None.

Critical Paths under _main in BANK4

    None.

Critical Paths under _main in BANK5

    None.

Critical Paths under _main in BANK6

    None.

Critical Paths under _main in BANK7

    None.

Critical Paths under _main in BANK8

    None.

Critical Paths under _main in BANK9

    None.

Critical Paths under _main in BANK10

    None.

Critical Paths under _main in BANK11

    None.

Critical Paths under _main in BANK12

    None.

Call Graph Tables:

 ---------------------------------------------------------------------------------
 (Depth) Function   	        Calls       Base Space   Used Autos Params    Refs
 ---------------------------------------------------------------------------------
 (0) _main                                                 3     3      0  138030
                                              0 BANK0      3     3      0
                             _I2C_Rd
             _I2C_Write1ByteRegister
                  _SYSTEM_Initialize
                            ___awdiv
                            ___awmod
 ---------------------------------------------------------------------------------
 (1) ___awmod                                              7     3      4     448
                                              0 COMMON     7     3      4
 ---------------------------------------------------------------------------------
 (1) ___awdiv                                              9     5      4     452
                                              0 COMMON     9     5      4
 ---------------------------------------------------------------------------------
 (1) _SYSTEM_Initialize                                    0     0      0       0
                     _I2C_Initialize
              _OSCILLATOR_Initialize
             _PIN_MANAGER_Initialize
                     _WDT_Initialize
 ---------------------------------------------------------------------------------
 (2) _WDT_Initialize                                       0     0      0       0
 ---------------------------------------------------------------------------------
 (2) _PIN_MANAGER_Initialize                               0     0      0       0
 ---------------------------------------------------------------------------------
 (2) _OSCILLATOR_Initialize                                0     0      0       0
 ---------------------------------------------------------------------------------
 (2) _I2C_Initialize                                       0     0      0       0
 ---------------------------------------------------------------------------------
 (1) _I2C_Write1ByteRegister                               4     2      2   70893
                                             10 COMMON     4     2      2
                          _I2C_Close
                    _I2C_MasterWrite
                           _I2C_Open
         _I2C_SetAddressNackCallback
                      _I2C_SetBuffer
        _I2C_SetDataCompleteCallback
 ---------------------------------------------------------------------------------
 (2) _I2C_SetAddressNackCallback                           4     1      3    1870
                                              5 COMMON     4     1      3
                    _I2C_SetCallback
 ---------------------------------------------------------------------------------
 (2) _I2C_MasterWrite                                      0     0      0   64636
                _I2C_MasterOperation
 ---------------------------------------------------------------------------------
 (1) _I2C_Rd                                               2     2      0   66237
                                             10 COMMON     2     2      0
                          _I2C_Close
                     _I2C_MasterRead
                           _I2C_Open
                      _I2C_SetBuffer
 ---------------------------------------------------------------------------------
 (2) _I2C_Open                                             3     3      0      46
                                              0 COMMON     3     3      0
                 _I2C_MasterClearIrq
                     _I2C_MasterOpen
 ---------------------------------------------------------------------------------
 (3) _I2C_MasterOpen                                       0     0      0       0
 ---------------------------------------------------------------------------------
 (2) _I2C_MasterRead                                       0     0      0   64636
                _I2C_MasterOperation
 ---------------------------------------------------------------------------------
 (3) _I2C_MasterOperation                                  3     3      0   64636
                                              7 COMMON     3     3      0
                    _I2C_MasterStart
                         _I2C_Poller
 ---------------------------------------------------------------------------------
 (4) _I2C_Poller                                           0     0      0   64590
                      _I2C_MasterFsm
             _I2C_MasterWaitForEvent
 ---------------------------------------------------------------------------------
 (5) _I2C_MasterWaitForEvent                               0     0      0       0
 ---------------------------------------------------------------------------------
 (5) _I2C_MasterFsm                                        3     3      0   64590
                                              4 COMMON     3     3      0
                _I2C_DO_ADDRESS_NACK *
                        _I2C_DO_IDLE *
                        _I2C_DO_RCEN *
                       _I2C_DO_RESET *
                          _I2C_DO_RX *
                      _I2C_DO_RX_ACK *
             _I2C_DO_RX_NACK_RESTART *
                _I2C_DO_RX_NACK_STOP *
               _I2C_DO_SEND_ADR_READ *
              _I2C_DO_SEND_ADR_WRITE *
                _I2C_DO_SEND_RESTART *
           _I2C_DO_SEND_RESTART_READ *
          _I2C_DO_SEND_RESTART_WRITE *
                   _I2C_DO_SEND_STOP *
                          _I2C_DO_TX *
                    _I2C_DO_TX_EMPTY *
                 _I2C_MasterClearIrq
                   _I2C_MasterIsNack
 ---------------------------------------------------------------------------------
 (6) _I2C_DO_TX_EMPTY                                      3     3      0   16131
                                              0 COMMON     3     3      0
                   Absolute function *
            _I2C_CallbackReturnReset *
             _I2C_CallbackReturnStop *
                _I2C_DO_SEND_RESTART
                   _I2C_DO_SEND_STOP
                   _I2C_MasterSetIrq
              _rd1RegCompleteHandler *
            _rdBlkRegCompleteHandler *
              _wr1RegCompleteHandler *
              _wr2RegCompleteHandler *
 ---------------------------------------------------------------------------------
 (7) _I2C_MasterSetIrq                                     0     0      0       0
 ---------------------------------------------------------------------------------
 (6) _I2C_DO_TX                                            3     3      0   16153
                                              1 COMMON     3     3      0
                   Absolute function *
            _I2C_CallbackReturnReset *
             _I2C_CallbackReturnStop *
           _I2C_DO_SEND_RESTART_READ
          _I2C_DO_SEND_RESTART_WRITE
                   _I2C_DO_SEND_STOP
                   _I2C_MasterIsNack
               _I2C_MasterSendTxData
              _rd1RegCompleteHandler *
            _rdBlkRegCompleteHandler *
              _wr1RegCompleteHandler *
              _wr2RegCompleteHandler *
 ---------------------------------------------------------------------------------
 (6) _I2C_MasterIsNack                                     0     0      0       0
 ---------------------------------------------------------------------------------
 (7) _I2C_DO_SEND_RESTART_WRITE                            0     0      0       0
            _I2C_MasterEnableRestart
 ---------------------------------------------------------------------------------
 (7) _I2C_DO_SEND_RESTART_READ                             0     0      0       0
            _I2C_MasterEnableRestart
 ---------------------------------------------------------------------------------
 (6) _I2C_DO_SEND_ADR_WRITE                                0     0      0      22
               _I2C_MasterSendTxData
 ---------------------------------------------------------------------------------
 (6) _I2C_DO_SEND_ADR_READ                                 0     0      0      22
               _I2C_MasterSendTxData
 ---------------------------------------------------------------------------------
 (7) _I2C_MasterSendTxData                                 1     1      0      22
                                              0 COMMON     1     1      0
 ---------------------------------------------------------------------------------
 (6) _I2C_DO_RX_ACK                                        0     0      0       0
                  _I2C_MasterSendAck
 ---------------------------------------------------------------------------------
 (6) _I2C_DO_RX                                            3     3      0   16131
                                              0 COMMON     3     3      0
                   Absolute function *
            _I2C_CallbackReturnReset *
             _I2C_CallbackReturnStop *
             _I2C_DO_RX_NACK_RESTART
                _I2C_DO_RX_NACK_STOP
                _I2C_MasterGetRxData
                  _I2C_MasterSendAck
              _rd1RegCompleteHandler *
            _rdBlkRegCompleteHandler *
              _wr1RegCompleteHandler *
              _wr2RegCompleteHandler *
 ---------------------------------------------------------------------------------
 (7) _I2C_MasterSendAck                                    0     0      0       0
 ---------------------------------------------------------------------------------
 (7) _I2C_MasterGetRxData                                  0     0      0       0
 ---------------------------------------------------------------------------------
 (6) _I2C_DO_RX_NACK_STOP                                  0     0      0       0
                 _I2C_MasterSendNack
 ---------------------------------------------------------------------------------
 (6) _I2C_DO_RX_NACK_RESTART                               0     0      0       0
                 _I2C_MasterSendNack
 ---------------------------------------------------------------------------------
 (7) _I2C_MasterSendNack                                   0     0      0       0
 ---------------------------------------------------------------------------------
 (6) _I2C_DO_RESET                                         0     0      0       0
 ---------------------------------------------------------------------------------
 (6) _I2C_DO_RCEN                                          0     0      0       0
                  _I2C_MasterStartRx
 ---------------------------------------------------------------------------------
 (7) _I2C_MasterStartRx                                    0     0      0       0
 ---------------------------------------------------------------------------------
 (6) _I2C_DO_IDLE                                          0     0      0       0
 ---------------------------------------------------------------------------------
 (6) _I2C_DO_ADDRESS_NACK                                  3     3      0   16131
                                              0 COMMON     3     3      0
                   Absolute function *
            _I2C_CallbackReturnReset *
             _I2C_CallbackReturnStop *
                _I2C_DO_SEND_RESTART
                   _I2C_DO_SEND_STOP
              _rd1RegCompleteHandler *
            _rdBlkRegCompleteHandler *
              _wr1RegCompleteHandler *
              _wr2RegCompleteHandler *
 ---------------------------------------------------------------------------------
 (7) _wr2RegCompleteHandler                                1     0      1    3961
                                              9 COMMON     1     0      1
                      _I2C_SetBuffer
        _I2C_SetDataCompleteCallback
 ---------------------------------------------------------------------------------
 (7) _wr1RegCompleteHandler                                1     0      1    3961
                                              9 COMMON     1     0      1
                      _I2C_SetBuffer
        _I2C_SetDataCompleteCallback
 ---------------------------------------------------------------------------------
 (7) _rdBlkRegCompleteHandler                              1     0      1    4248
                                              9 COMMON     1     0      1
                      _I2C_SetBuffer
        _I2C_SetDataCompleteCallback
 ---------------------------------------------------------------------------------
 (7) _rd1RegCompleteHandler                                1     0      1    3961
                                              9 COMMON     1     0      1
                      _I2C_SetBuffer
        _I2C_SetDataCompleteCallback
 ---------------------------------------------------------------------------------
 (2) _I2C_SetDataCompleteCallback                          4     1      3    2478
                                              5 COMMON     4     1      3
                    _I2C_SetCallback
 ---------------------------------------------------------------------------------
 (3) _I2C_SetCallback                                      5     2      3     914
                                              0 COMMON     5     2      3
 ---------------------------------------------------------------------------------
 (2) _I2C_SetBuffer                                        4     2      2    1461
                                              0 COMMON     4     2      2
 ---------------------------------------------------------------------------------
 (7) _I2C_DO_SEND_STOP                                     0     0      0       0
                     _I2C_MasterStop
 ---------------------------------------------------------------------------------
 (8) _I2C_MasterStop                                       0     0      0       0
 ---------------------------------------------------------------------------------
 (7) _I2C_DO_SEND_RESTART                                  0     0      0       0
            _I2C_MasterEnableRestart
 ---------------------------------------------------------------------------------
 (8) _I2C_MasterEnableRestart                              0     0      0       0
 ---------------------------------------------------------------------------------
 (7) _I2C_CallbackReturnStop                               1     0      1       0
                                              9 COMMON     1     0      1
 ---------------------------------------------------------------------------------
 (7) _I2C_CallbackReturnReset                              1     0      1       0
                                              9 COMMON     1     0      1
 ---------------------------------------------------------------------------------
 (7) Absolute function(Fake)                               1     0      1       0
 ---------------------------------------------------------------------------------
 (4) _I2C_MasterStart                                      0     0      0       0
 ---------------------------------------------------------------------------------
 (2) _I2C_Close                                            2     2      0      24
                                              0 COMMON     2     2      0
                 _I2C_MasterClearIrq
                    _I2C_MasterClose
               _I2C_MasterDisableIrq
 ---------------------------------------------------------------------------------
 (3) _I2C_MasterDisableIrq                                 0     0      0       0
 ---------------------------------------------------------------------------------
 (3) _I2C_MasterClose                                      0     0      0       0
 ---------------------------------------------------------------------------------
 (3) _I2C_MasterClearIrq                                   0     0      0       0
 ---------------------------------------------------------------------------------
 Estimated maximum stack depth 8
 ---------------------------------------------------------------------------------

 Call Graph Graphs:

 _main (ROOT)
   _I2C_Rd
     _I2C_Close
       _I2C_MasterClearIrq
       _I2C_MasterClose
       _I2C_MasterDisableIrq
     _I2C_MasterRead
       _I2C_MasterOperation
         _I2C_MasterStart
         _I2C_Poller
           _I2C_MasterFsm
             _I2C_DO_ADDRESS_NACK *
               Absolute function(Fake) *
               _I2C_CallbackReturnReset *
               _I2C_CallbackReturnStop *
               _I2C_DO_SEND_RESTART *
                 _I2C_MasterEnableRestart
               _I2C_DO_SEND_STOP *
                 _I2C_MasterStop
               _rd1RegCompleteHandler *
                 _I2C_SetBuffer
                 _I2C_SetDataCompleteCallback
                   _I2C_SetCallback
               _rdBlkRegCompleteHandler *
                 _I2C_SetBuffer
                 _I2C_SetDataCompleteCallback
               _wr1RegCompleteHandler *
                 _I2C_SetBuffer
                 _I2C_SetDataCompleteCallback
               _wr2RegCompleteHandler *
                 _I2C_SetBuffer
                 _I2C_SetDataCompleteCallback
             _I2C_DO_IDLE *
             _I2C_DO_RCEN *
               _I2C_MasterStartRx
             _I2C_DO_RESET *
             _I2C_DO_RX *
               Absolute function(Fake) *
               _I2C_CallbackReturnReset *
               _I2C_CallbackReturnStop *
               _I2C_DO_RX_NACK_RESTART *
                 _I2C_MasterSendNack
               _I2C_DO_RX_NACK_STOP *
                 _I2C_MasterSendNack
               _I2C_MasterGetRxData *
               _I2C_MasterSendAck *
               _rd1RegCompleteHandler *
               _rdBlkRegCompleteHandler *
               _wr1RegCompleteHandler *
               _wr2RegCompleteHandler *
             _I2C_DO_RX_ACK *
               _I2C_MasterSendAck
             _I2C_DO_RX_NACK_RESTART *
             _I2C_DO_RX_NACK_STOP *
             _I2C_DO_SEND_ADR_READ *
               _I2C_MasterSendTxData
             _I2C_DO_SEND_ADR_WRITE *
               _I2C_MasterSendTxData
             _I2C_DO_SEND_RESTART *
             _I2C_DO_SEND_RESTART_READ *
               _I2C_MasterEnableRestart
             _I2C_DO_SEND_RESTART_WRITE *
               _I2C_MasterEnableRestart
             _I2C_DO_SEND_STOP *
             _I2C_DO_TX *
               Absolute function(Fake) *
               _I2C_CallbackReturnReset *
               _I2C_CallbackReturnStop *
               _I2C_DO_SEND_RESTART_READ *
               _I2C_DO_SEND_RESTART_WRITE *
               _I2C_DO_SEND_STOP *
               _I2C_MasterIsNack *
               _I2C_MasterSendTxData *
               _rd1RegCompleteHandler *
               _rdBlkRegCompleteHandler *
               _wr1RegCompleteHandler *
               _wr2RegCompleteHandler *
             _I2C_DO_TX_EMPTY *
               Absolute function(Fake) *
               _I2C_CallbackReturnReset *
               _I2C_CallbackReturnStop *
               _I2C_DO_SEND_RESTART *
               _I2C_DO_SEND_STOP *
               _I2C_MasterSetIrq *
               _rd1RegCompleteHandler *
               _rdBlkRegCompleteHandler *
               _wr1RegCompleteHandler *
               _wr2RegCompleteHandler *
             _I2C_MasterClearIrq *
             _I2C_MasterIsNack *
           _I2C_MasterWaitForEvent
     _I2C_Open
       _I2C_MasterClearIrq
       _I2C_MasterOpen
     _I2C_SetBuffer
   _I2C_Write1ByteRegister
     _I2C_Close
     _I2C_MasterWrite
       _I2C_MasterOperation
     _I2C_Open
     _I2C_SetAddressNackCallback
       _I2C_SetCallback
     _I2C_SetBuffer
     _I2C_SetDataCompleteCallback
   _SYSTEM_Initialize
     _I2C_Initialize
     _OSCILLATOR_Initialize
     _PIN_MANAGER_Initialize
     _WDT_Initialize
   ___awdiv
   ___awmod

 Address spaces:
Name               Size   Autos  Total    Cost      Usage
BIGRAM             3F0      0       0       0        0.0%
EEDATA             100      0       0       0        0.0%
NULL                 0      0       0       0        0.0%
CODE                 0      0       0       0        0.0%
BITCOMMON            E      0       0       1        0.0%
BITSFR0              0      0       0       1        0.0%
SFR0                 0      0       0       1        0.0%
COMMON               E      E       E       2      100.0%
BITSFR1              0      0       0       2        0.0%
SFR1                 0      0       0       2        0.0%
BITSFR2              0      0       0       3        0.0%
SFR2                 0      0       0       3        0.0%
STACK                0      0       0       3        0.0%
BITBANK0            50      0       0       4        0.0%
BITSFR3              0      0       0       4        0.0%
SFR3                 0      0       0       4        0.0%
BANK0               50      3      25       5       46.2%
BITSFR4              0      0       0       5        0.0%
SFR4                 0      0       0       5        0.0%
BITBANK1            50      0       0       6        0.0%
BITSFR5              0      0       0       6        0.0%
SFR5                 0      0       0       6        0.0%
BANK1               50      0       0       7        0.0%
BITSFR6              0      0       0       7        0.0%
SFR6                 0      0       0       7        0.0%
BITBANK2            50      0       0       8        0.0%
BITSFR7              0      0       0       8        0.0%
SFR7                 0      0       0       8        0.0%
BANK2               50      0       0       9        0.0%
BITSFR8              0      0       0       9        0.0%
SFR8                 0      0       0       9        0.0%
BITBANK3            50      0       0      10        0.0%
BITSFR9              0      0       0      10        0.0%
SFR9                 0      0       0      10        0.0%
BANK3               50      0       0      11        0.0%
BITSFR10             0      0       0      11        0.0%
SFR10                0      0       0      11        0.0%
BITBANK4            50      0       0      12        0.0%
BITSFR11             0      0       0      12        0.0%
SFR11                0      0       0      12        0.0%
BANK4               50      0       0      13        0.0%
BITSFR12             0      0       0      13        0.0%
SFR12                0      0       0      13        0.0%
BITBANK5            50      0       0      14        0.0%
BITSFR13             0      0       0      14        0.0%
SFR13                0      0       0      14        0.0%
BANK5               50      0       0      15        0.0%
BITSFR14             0      0       0      15        0.0%
SFR14                0      0       0      15        0.0%
BITBANK6            50      0       0      16        0.0%
BITSFR15             0      0       0      16        0.0%
SFR15                0      0       0      16        0.0%
BANK6               50      0       0      17        0.0%
BITSFR16             0      0       0      17        0.0%
SFR16                0      0       0      17        0.0%
BITBANK7            50      0       0      18        0.0%
BITSFR17             0      0       0      18        0.0%
SFR17                0      0       0      18        0.0%
BANK7               50      0       0      19        0.0%
BITSFR18             0      0       0      19        0.0%
SFR18                0      0       0      19        0.0%
BITSFR19             0      0       0      20        0.0%
SFR19                0      0       0      20        0.0%
ABS                  0      0      33      20        0.0%
BITBANK8            50      0       0      21        0.0%
BITSFR20             0      0       0      21        0.0%
SFR20                0      0       0      21        0.0%
BANK8               50      0       0      22        0.0%
BITSFR21             0      0       0      22        0.0%
SFR21                0      0       0      22        0.0%
BITBANK9            50      0       0      23        0.0%
BITSFR22             0      0       0      23        0.0%
SFR22                0      0       0      23        0.0%
BANK9               50      0       0      24        0.0%
BITSFR23             0      0       0      24        0.0%
SFR23                0      0       0      24        0.0%
BITBANK10           50      0       0      25        0.0%
BITSFR24             0      0       0      25        0.0%
SFR24                0      0       0      25        0.0%
BANK10              50      0       0      26        0.0%
BITSFR25             0      0       0      26        0.0%
SFR25                0      0       0      26        0.0%
BITBANK11           50      0       0      27        0.0%
BITSFR26             0      0       0      27        0.0%
SFR26                0      0       0      27        0.0%
BANK11              50      0       0      28        0.0%
BITSFR27             0      0       0      28        0.0%
SFR27                0      0       0      28        0.0%
BITBANK12           30      0       0      29        0.0%
BITSFR28             0      0       0      29        0.0%
SFR28                0      0       0      29        0.0%
BANK12              30      0       0      30        0.0%
BITSFR29             0      0       0      30        0.0%
SFR29                0      0       0      30        0.0%
BITSFR30             0      0       0      31        0.0%
SFR30                0      0       0      31        0.0%
DATA                 0      0      33      31        0.0%
BITSFR31             0      0       0      32        0.0%
SFR31                0      0       0      32        0.0%


Microchip Technology PIC Macro Assembler V2.36 build 20220127204148 
Symbol Table                                                                                   Sun May 07 16:33:58 2023

             ??_I2C_DO_SEND_ADR_READ 0070              ??_I2C_DO_SEND_ADR_WRITE 0071  
                        _SSPSTATbits 0214                                   l23 0764  
                                 l25 07E2                                   l69 04FD  
                       ___awdiv@sign 0076                ??_I2C_DO_SEND_RESTART 0070  
                                l201 04BB                                  l204 03A1  
                                l214 0436                                  l311 037E  
                                l207 03A6                                  l223 0419  
                                l320 038D                                  l240 03FF  
                                l217 03F2                                  l234 0523  
                                l410 035E                                  l250 03D0  
                                l314 0383                                  l323 0392  
                                l404 034C                                  l308 0379  
                                l244 054E                                  l501 0447  
                                l253 03C7                                  l317 0388  
                                l413 03AD                                  l326 0397  
                                l190 0612                                  l407 0346  
                                l343 0341                                  l247 0374  
                                l335 057A                                  l191 0613  
                                l504 0481                                  l256 06E5  
                                l272 0631                                  l273 0659  
                                l329 039C                                  l417 03B2  
                                l346 0343                                  l362 035B  
                                l290 05A9                                  l426 04DB  
                                l195 049D                                  l259 0701  
                                l187 03D9                                  l531 03E5  
                                l380 0355                                  l284 03BF  
                                l356 040C                                  l365 036F  
                                l453 05D9                                  l525 0426  
                                l374 0358                                  l534 036A  
                                l359 0349                                  l383 03AC  
                                l368 0352                                  l528 03E0  
                                l377 034F                                  l386 0366  
                                l492 0458                                  l389 0362  
                                l498 0469                                  l850 06AC  
                                l837 0760                                  u600 062C  
                                u601 062B                                  u610 03B2  
                                u611 03B1                                  u620 052C  
                                u700 03E5                                  u621 052B  
                                u701 03E4                                  u630 0534  
                                u710 05B4                                  u631 0533  
                                u711 05B3                                  u560 0505  
                                u640 03FF                                  u720 05D9  
                                u561 0504                                  u641 03FE  
                                u721 05D8                                  u570 042D  
                                u650 0405                                  u730 04C7  
                                u810 0742                                  u571 042C  
                                u651 0404                                  u731 04C6  
                                u811 0741                                  u580 06B5  
                                u660 04A6                                  u740 04DA  
                                u900 068F                                  u581 06B4  
                                u661 04A5                                  u741 04D9  
                                u805 0734                                  u901 068E  
                                u590 06FE                                  u670 04AD  
                                u830 0752                                  u750 0707  
                                u591 06FD                                  u671 04AC  
                                u831 0751                                  u815 073E  
                                u751 0706                                  u680 05E2  
                                u840 0757                                  u760 0712  
                                u920 069E                                  u681 05E1  
                                u841 0756                                  u825 0748  
                                u761 0711                                  u921 069D  
                                u905 068B                                  u690 0489  
                                u770 0723                                  u930 06A3  
                                u850 065F                                  u691 0488  
                                u771 0722                                  u931 06A2  
                                u915 0694                                  u851 065E  
                                u860 066A                                  u861 0669  
                                u790 0733                                  u870 0675  
                                u950 07DB                                  u791 0732  
                                u871 0674                                  u951 07DA  
                                u960 07E8                                  u785 0727  
                                u961 07E7                                  u945 07BD  
                                u890 0685                                  u970 07EE  
                                u891 0684                                  u971 07ED  
                                u885 0679               _I2C_MasterWaitForEvent 03AD  
                       ___awmod@sign 0076                                  wreg 0009  
       ??_I2C_SetAddressNackCallback 0078               _I2C_Write1ByteRegister 05AA  
           ??_I2C_CallbackReturnStop 007A                         _I2C_DO_RESET 0398  
                               l2000 0340                                 l2010 0450  
                               l2004 0342                                 l2012 0457  
                               l2020 0468                                 l2100 061E  
                               l2102 0622                                 l2024 0437  
                               l2008 0448                                 l2016 0459  
                               l2032 046A                                 l2040 0370  
                               l2112 0633                                 l2104 062C  
                               l2200 052C                                 l2026 043F  
                               l2018 0461                                 l2034 0480  
                               l2042 0372                                 l2050 03CA  
                               l2122 063B                                 l2106 062F  
                               l2130 03BB                                 l2202 0534  
                               l2210 03F4                                 l2028 0446  
                               l2044 0373                                 l2052 03CF  
                               l2060 03C6                                 l2116 0637  
                               l2132 03BE                                 l2204 0539  
                               l2212 03F7                                 l2220 0406  
                               l2300 05F6                                 l2038 0344  
                               l2230 0347                                 l2206 034D  
                               l2142 0582                                 l2214 03FA  
                               l2222 0408                                 l2310 0606  
                               l2302 05F7                                 l2320 0482  
                               l2144 0585                                 l2136 057B  
                               l2048 03C8                                 l2056 03C0  
                               l2072 06BA                                 l2064 06AD  
                               l2128 03B9                                 l2160 0389  
                               l2208 03F3                                 l2240 04AD  
                               l2232 049F                                 l2224 040B  
                               l2216 0400                                 l2312 060B  
                               l2304 05FC                                 l2400 071B  
                               l2330 0494                                 l2322 0489  
                               l2138 057E                                 l2154 058B  
                               l2058 03C2                                 l2090 0700  
                               l2082 06C2                                 l2162 038C  
                               l2170 039B                                 l2242 04B0  
                               l2234 04A6                                 l2218 0405  
                               l2314 060E                                 l2306 0600  
                               l2410 072F                                 l2402 071D  
                               l2228 034A                                 l2332 0497  
                               l2324 048A                                 l2148 0587  
                               l2084 06E7                                 l2076 06BE  
                               l2068 06B6                                 l2244 04B4  
                               l2236 04A7                                 l2316 0611  
                               l2308 0605                                 l2260 04E9  
                               l2252 04DC                                 l2420 074C  
                               l2412 0733                                 l2404 0723  
                               l2326 048E                                 l2334 049C  
                               l2086 06F3                                 l2166 0398  
                               l2182 055A                                 l2174 054F  
                               l2246 04B7                                 l2238 04A8  
                               l2342 03A2                                 l2350 03DD  
                               l2270 04F4                                 l2262 04EB  
                               l2254 04E2                                 l2414 0742  
                               l2406 0726                                 l2422 0752  
                               l2430 065A                                 l2328 0491  
                               l2088 06FE                                 l2168 039A  
                               l2176 0551                                 l2248 04BA  
                               l2360 05AB                                 l2280 03D1  
                               l2352 03DE                                 l2272 04F6  
                               l2264 04ED                                 l2256 04E5  
                               l2424 0757                                 l2416 0746  
                               l2408 072B                                 l2440 066A  
                               l2432 065B                                 l2098 0614  
                               l2178 0556                                 l2338 039D  
                               l2290 05E2                                 l2346 040D  
                               l2370 05D1                                 l2362 05B4  
                               l2282 03D3                                 l2274 04F8  
                               l2266 04F0                                 l2258 04E7  
                               l2354 0367                                 l2426 075C  
                               l2418 0747                                 l2450 0681  
                               l2442 066F                                 l2434 065F  
                               l2188 055E                                 l2196 0524  
                               l2292 05E6                                 l2380 04D2  
                               l2372 04BD                                 l2364 05BF  
                               l2284 03D5                                 l2348 03DA  
                               l2276 04F9                                 l2268 04F2  
                               l2356 041A                                 l2452 0685  
                               l2444 0675                                 l2460 069E  
                               l2436 0664                                 l2198 0527  
                               l2294 05E7                                 l2382 04DA  
                               l2374 04BE                                 l2366 05C7  
                               l2358 05AB                                 l2286 03D8  
                               l2278 04FB                                 l2390 0707  
                               l2462 06A3                                 l2454 068F  
                               l2446 0678                                 l2438 0666  
                               l2470 078B                                 l2296 05E8  
                               l2288 05DB                                 l2376 04C7  
                               l2368 05CE                                 l2392 070C  
                               l2464 06A8                                 l2456 0693  
                               l2448 067D                                 l2480 07D4  
                               l2472 079B                                 l1930 0505  
                               l2298 05F1                                 l2378 04CF  
                               l2394 070E                                 l2386 0702  
                               l2458 0698                                 l2490 07EE  
                               l2482 07DB                                 l2474 07AC  
                               l1932 0516                                 l1940 03E6  
                               l2396 0712                                 l2388 0703  
                               l2484 07E0                                 l2476 07B7  
                               l2468 0761                                 l1942 0350  
                               l1934 0428                                 l2398 0717  
                               l2486 07E8                                 l2478 07C8  
                               l1944 0353                                 l1936 042D  
                               l1928 04FF                                 l1952 036C  
                               l1960 037A                                 l2488 07E9  
                               l1938 0435                                 l1946 035F  
                               l1954 0375                                 l1962 037D  
                               l1972 0359                                 l1948 03A7  
                               l1956 0378                                 l1980 0396  
                               l2692 0572                                 l1990 0356  
                               l2694 064B                                 l1966 0384  
                               l1976 0363                                 l2696 06D7  
                               l1992 037F                                 l1968 0387  
                               l1984 038E                                 l2698 059B  
                               l1994 0382                                 l1986 0391  
                               l1978 0393                                 l1998 035C  
                               u1117 07CE                                 _LATA 010C  
                               _LATB 010D                                 _LATC 010E  
                               _LATD 010F                                 _LATE 0110  
                               _PLLR 04D6                                 _WPUB 020D  
                               _WPUE 0210              ??_wr2RegCompleteHandler 007A  
                               _main 0761             ?_I2C_CallbackReturnReset 0079  
                               fsr0h 0005                                 fsr1h 0007  
                               indf0 0000                                 fsr0l 0004  
                               indf1 0001                                 fsr1l 0006  
                   __end_of_I2C_Open 0614                                 btemp 007E  
                               start 0002                     ?_I2C_MasterClose 0070  
                   ?_I2C_MasterStart 0070                        _I2C_DO_RX_ACK 0389  
                   ?_I2C_MasterWrite 0070        __end_of_OSCILLATOR_Initialize 03E6  
                              ?_main 0070                      __end_of___awdiv 0761  
                    __end_of___awmod 06AD                      ___awdiv@divisor 0070  
                    ___awdiv@counter 0075                    ??_I2C_DO_TX_EMPTY 0070  
                              _TRISA 008C                                _TRISB 008D  
                              _TRISC 008E                                _TRISD 008F  
                              _TRISE 0090                      __end_of_digitos 082A  
                  __end_of_I2C_DO_RX 065A                    __end_of_I2C_DO_TX 0702  
                     _WDT_Initialize 0367                    __end_of_I2C_Close 049E  
     I2C_MasterOperation@returnValue 0079              _I2C_MasterEnableRestart 0350  
                              pclath 000A                     ?_I2C_SetCallback 0070  
       I2C_SetAddressNackCallback@cb 0075                                status 0003  
                              wtemp0 007E                    ?_I2C_DO_SEND_STOP 0070  
                 ??_I2C_DO_SEND_STOP 0070                      __initialization 07F5  
                       __end_of_main 07F5            ?_I2C_DO_SEND_RESTART_READ 0070  
                     ?_I2C_DO_RX_ACK 0070                               ??_main 0042  
                  ?_I2C_MasterIsNack 0070                    I2C_Rd@returnValue 007B  
                  ?_I2C_MasterSetIrq 0070                   ??_I2C_MasterIsNack 0070  
             __end_of_WDT_Initialize 036B                   ??_I2C_MasterSetIrq 0070  
    __end_of_I2C_CallbackReturnReset 0344                               _I2C_Rd 04BC  
                   ___awdiv@dividend 0072                               _APFCON 011D  
      I2C_SetDataCompleteCallback@cb 0075                               _ANSELA 018C  
                             _ANSELB 018D                               _ANSELD 018F  
                             _ANSELE 0190                               _BORCON 0116  
                       ??_I2C_Poller 0077                               _OSCCON 0099  
                             _WDTCON 0097                               _SSPADD 0212  
                             _SSPBUF 0211                  _I2C_MasterGetRxData 0359  
                      _I2C_MasterFsm 0524                            ??___awdiv 0074  
                          ??___awmod 0074                    I2C_SetCallback@cb 0070  
                   ___awdiv@quotient 0077                      ___awmod@divisor 0070  
                    ___awmod@counter 0075                        _I2C_SetBuffer 0427  
                 __end_of_I2C_Poller 0400         __end_of_I2C_MasterDisableIrq 034D  
                _I2C_DO_ADDRESS_NACK 054F                 ?_I2C_MasterGetRxData 0070  
                          ?_I2C_Open 0070   __end_of_I2C_SetAddressNackCallback 041A  
         _I2C_SetAddressNackCallback 040D                      ?_WDT_Initialize 0070  
          ??_I2C_MasterEnableRestart 0070                    _SYSTEM_Initialize 041A  
            __end_of__initialization 07FD                  _I2C_MasterOperation 049E  
                 ?_SYSTEM_Initialize 0070                 ?_I2C_DO_ADDRESS_NACK 0070  
            _rdBlkRegCompleteHandler 046A                       __pcstackCOMMON 0070  
                     ?_I2C_MasterFsm 0070                      ??_I2C_DO_RX_ACK 0070  
             _I2C_CallbackReturnStop 0340                  ??_SYSTEM_Initialize 0070  
                     ?_I2C_SetBuffer 0070              ?_I2C_MasterWaitForEvent 0070  
      __end_of_I2C_DO_SEND_ADR_WRITE 03C8           ?_I2C_DO_SEND_RESTART_WRITE 0070  
               ?_I2C_MasterOperation 0070                ??_I2C_MasterGetRxData 0070  
            ?_I2C_Write1ByteRegister 007A                       _OPTION_REGbits 0095  
                         ??_I2C_Open 0070           __end_of_I2C_MasterClearIrq 0347  
                            ?_I2C_Rd 0070            __end_of_SYSTEM_Initialize 0427  
                  _I2C_MasterSendAck 0363                           __pbssBANK0 0020  
                      ??_I2C_DO_IDLE 0070                        ??_I2C_DO_RCEN 0070  
       __end_of_I2C_MasterSendTxData 0370                   ?_I2C_MasterSendAck 0070  
                  _I2C_MasterStartRx 0356                ??_I2C_DO_ADDRESS_NACK 0070  
      __end_of_wr2RegCompleteHandler 0448                  _I2C_DO_RX_NACK_STOP 038E  
              _rd1RegCompleteHandler 0448                   ?_I2C_MasterStartRx 0070  
         __end_of_I2C_MasterSendNack 0363                _wr1RegCompleteHandler 0459  
                         __pmaintext 0761                  ??_I2C_MasterSendAck 0070  
           rd1RegCompleteHandler@ptr 0079          __end_of_I2C_DO_SEND_RESTART 0384  
                    _I2C_DO_TX_EMPTY 057B                  I2C_SetBuffer@buffer 0073  
     __end_of_I2C_MasterWaitForEvent 03B3                  ??_I2C_MasterStartRx 0070  
              ??_I2C_MasterOperation 0077       I2C_SetDataCompleteCallback@ptr 0077  
     __end_of_I2C_Write1ByteRegister 05DA             ??_I2C_DO_RX_NACK_RESTART 0070  
  __end_of_I2C_DO_SEND_RESTART_WRITE 037F                 ?_I2C_DO_RX_NACK_STOP 0070  
          __end_of_I2C_MasterSendAck 0367                              _OSCTUNE 0098  
                            _SSPCON1 0215                              _SSPCON2 0216  
                            _SSPSTAT 0214            __end_of_I2C_MasterStartRx 0359  
               I2C_Close@returnValue 0071         ?_I2C_SetDataCompleteCallback 0075  
                          _I2C_DO_RX 0614                            _I2C_DO_TX 06AD  
   __end_of_I2C_DO_SEND_RESTART_READ 037A                            _I2C_Close 0482  
          ??_rdBlkRegCompleteHandler 007A                 _I2C_MasterDisableIrq 034A  
                    ??_I2C_MasterFsm 0074                  __end_of_I2C_DO_IDLE 0375  
                __end_of_I2C_DO_RCEN 03C0                              ___awdiv 0702  
                            ___awmod 065A                      ??_I2C_SetBuffer 0072  
            I2C_SetBuffer@bufferSize 0070                       _I2C_MasterRead 039D  
                            _decenas 003F                       _I2C_MasterOpen 0400  
                     _I2C_MasterStop 0353                       _I2C_Initialize 03D1  
                            _digitos 0820                              __ptext1 065A  
                            __ptext2 0702                              __ptext3 041A  
                            __ptext4 0367                              __ptext5 04DC  
                            __ptext6 03DA                              __ptext7 03D1  
                            __ptext8 05AA                              __ptext9 040D  
              ??_I2C_DO_RX_NACK_STOP 0070                _OSCILLATOR_Initialize 03DA  
                   ___awmod@dividend 0072                   I2C_SetCallback@idx 0074  
           ??_PIN_MANAGER_Initialize 0070        I2C_CallbackReturnReset@funPtr 0079  
                 I2C_SetCallback@ptr 0072             wr1RegCompleteHandler@ptr 0079  
          I2C_Write1ByteRegister@reg 007A                              clrloop0 03B4  
               end_of_initialization 07FD                           ?_I2C_DO_RX 0070  
                         ?_I2C_DO_TX 0070                           ?_I2C_Close 0070  
             ?_rd1RegCompleteHandler 0079              __end_of_I2C_DO_TX_EMPTY 05AA  
              ?_I2C_MasterDisableIrq 0070               ?_wr1RegCompleteHandler 0079  
             __end_of_I2C_MasterRead 03A2               __end_of_I2C_MasterOpen 040D  
             __end_of_I2C_MasterStop 0356               __end_of_I2C_Initialize 03DA  
                   ??_WDT_Initialize 0070      __end_of_rdBlkRegCompleteHandler 0482  
               _I2C_MasterSendTxData 036B          ?_I2C_SetAddressNackCallback 0075  
                     __end_of_I2C_Rd 04DC                          _I2C_DO_IDLE 0370  
                        _I2C_DO_RCEN 03B9           rdBlkRegCompleteHandler@ptr 0079  
      I2C_Write1ByteRegister@address 007D              ?_I2C_CallbackReturnStop 0079  
           _I2C_DO_SEND_RESTART_READ 0375         I2C_CallbackReturnStop@funPtr 0079  
                    ?_I2C_MasterRead 0070                      ?_I2C_MasterOpen 0070  
                    ?_I2C_MasterStop 0070                      ?_I2C_Initialize 0070  
            _I2C_CallbackReturnReset 0342                ?_I2C_MasterSendTxData 0070  
             ?_OSCILLATOR_Initialize 0070          ??_I2C_DO_SEND_RESTART_WRITE 0070  
                start_initialization 07F5                        ?_I2C_DO_RESET 0070  
                           ??_I2C_Rd 007A                          ??_I2C_DO_RX 0070  
                        ??_I2C_DO_TX 0071                    ??_I2C_MasterClose 0070  
             ??_I2C_MasterDisableIrq 0070                          ??_I2C_Close 0070  
                  ??_I2C_MasterStart 0070                    ??_I2C_MasterWrite 007A  
     __end_of_I2C_CallbackReturnStop 0342               _I2C_DO_RX_NACK_RESTART 0393  
                   ?_I2C_DO_TX_EMPTY 0070                   _I2C_MasterClearIrq 0344  
                ?_I2C_MasterClearIrq 0070          __end_of_I2C_MasterGetRxData 035C  
                      I2C_Rd@address 007A                __end_of_I2C_DO_RX_ACK 038E  
                   _I2C_DO_SEND_STOP 0384                    ??_I2C_SetCallback 0073  
                I2C_Open@returnValue 0072                   _I2C_MasterSendNack 035F  
           ?_I2C_MasterEnableRestart 0070                    _i2c_fsmStateTable 0800  
              _I2C_DO_SEND_ADR_WRITE 03C0                            ___latbits 0003  
                      __pcstackBANK0 0042                       ??_I2C_DO_RESET 0070  
                ?_I2C_MasterSendNack 0070         __end_of_I2C_DO_SEND_ADR_READ 03D1  
               ??_I2C_MasterClearIrq 0070          __end_of_I2C_DO_ADDRESS_NACK 057B  
                   _I2C_MasterIsNack 03A7            _I2C_DO_SEND_RESTART_WRITE 037A  
                   _I2C_MasterSetIrq 035C               _PIN_MANAGER_Initialize 04DC  
              _wr2RegCompleteHandler 0437            ??_I2C_CallbackReturnReset 007A  
        __end_of_I2C_MasterOperation 04BC                 ??_I2C_MasterSendNack 0070  
                           ?___awdiv 0070                             ?___awmod 0070  
             ??_I2C_MasterSendTxData 0070            __end_of_i2c_fsmStateTable 0820  
            I2C_MasterOperation@read 0078                             _I2C_Open 05DA  
            ??_rd1RegCompleteHandler 007A              ??_wr1RegCompleteHandler 007A  
                          clear_ram0 03B3                             _PIE1bits 0091  
                           _PIR1bits 0011                             _PIR2bits 0012  
              __end_of_I2C_MasterFsm 054F          __end_of_I2C_DO_RX_NACK_STOP 0393  
    __end_of_I2C_MasterEnableRestart 0353                __end_of_I2C_SetBuffer 0437  
             ?_I2C_DO_SEND_ADR_WRITE 0070             I2C_MasterSendTxData@data 0070  
                          _statusbtn 003D             wr2RegCompleteHandler@ptr 0079  
         ??_I2C_DO_SEND_RESTART_READ 0070             ?_rdBlkRegCompleteHandler 0079  
                         _I2C_Poller 03F3                           _I2C_Status 0020  
                       ?_I2C_DO_IDLE 0070                         ?_I2C_DO_RCEN 0070  
                   ??_I2C_MasterRead 007A                     ??_I2C_MasterOpen 0070  
             ?_wr2RegCompleteHandler 0079                     ??_I2C_MasterStop 0070  
           ??_I2C_MasterWaitForEvent 0070                     ??_I2C_Initialize 0070  
               __end_of_I2C_DO_RESET 039D             ??_I2C_Write1ByteRegister 007C  
            ??_OSCILLATOR_Initialize 0070                 _I2C_DO_SEND_ADR_READ 03C8  
                    _I2C_MasterClose 0347        I2C_SetAddressNackCallback@ptr 0077  
                    I2C_Open@address 0071                      _I2C_MasterStart 034D  
                    _I2C_MasterWrite 03A2                             __ptext10 03A2  
                           __ptext11 04BC                             __ptext20 0398  
                           __ptext12 05DA                             __ptext21 0393  
                           __ptext13 0400                             __ptext30 06AD  
                           __ptext22 038E                             __ptext14 039D  
                           __ptext31 03C0                             __ptext23 0389  
                           __ptext15 049E                             __ptext40 035F  
                           __ptext32 03C8                             __ptext24 0384  
                           __ptext16 03F3                             __ptext41 0356  
                           __ptext33 0370                             __ptext25 037F  
                           __ptext17 03AD                             __ptext50 0427  
                           __ptext42 046A                             __ptext34 057B  
                           __ptext26 037A                             __ptext18 0524  
                           __ptext51 0353                             __ptext43 0459  
                           __ptext35 035C                             __ptext27 0375  
                           __ptext19 054F                             __ptext52 0350  
                           __ptext44 0448                             __ptext36 03A7  
                           __ptext28 03B9                             __ptext53 034D  
                           __ptext45 0342                             __ptext37 036B  
                           __ptext29 0614                             __ptext54 0482  
                           __ptext46 0340                             __ptext38 0363  
                           __ptext55 034A                             __ptext47 0437  
                           __ptext39 0359                             __ptext56 0347  
                           __ptext48 03E6                             __ptext57 0344  
                           __ptext49 04FE  __end_of_I2C_SetDataCompleteCallback 03F3  
        _I2C_SetDataCompleteCallback 03E6                             _contador 0041  
            ?_I2C_DO_RX_NACK_RESTART 0070             __end_of_I2C_DO_SEND_STOP 0389  
                    _I2C_SetCallback 04FE        ??_I2C_SetDataCompleteCallback 0078  
         I2C_Write1ByteRegister@data 007B                             _unidades 0040  
              ?_I2C_DO_SEND_ADR_READ 0070             __end_of_I2C_MasterIsNack 03AD  
           __end_of_I2C_MasterSetIrq 035F       __end_of_I2C_DO_RX_NACK_RESTART 0398  
                        ?_I2C_Poller 0070              ?_PIN_MANAGER_Initialize 0070  
                _I2C_DO_SEND_RESTART 037F              __end_of_I2C_MasterClose 034A  
            __end_of_I2C_MasterStart 0350              __end_of_I2C_MasterWrite 03A7  
                      __pstringtext1 0800                        __pstringtext2 0820  
               ?_I2C_DO_SEND_RESTART 0070                          _SSPCON1bits 0215  
                        _SSPCON2bits 0216              __end_of_I2C_SetCallback 0524  
     __end_of_PIN_MANAGER_Initialize 04FE        __end_of_rd1RegCompleteHandler 0459  
      __end_of_wr1RegCompleteHandler 046A  
