

Microchip MPLAB XC8 Assembler V2.36 build 20220127204148 
                                                                                               Sun May 28 15:09:19 2023

Microchip MPLAB XC8 C Compiler v2.36 (Free license) build 20220127204148 Og1 
     1                           	processor	16F1939
     2                           	pagewidth 120
     3                           	opt	flic
     4                           	psect	idataBANK0,global,class=CODE,delta=2,noexec
     5                           	psect	stringtext1,global,class=STRCODE,delta=2,noexec
     6                           	psect	cinit,global,class=CODE,merge=1,delta=2
     7                           	psect	bssBANK0,global,class=BANK0,space=1,delta=1,noexec
     8                           	psect	dataBANK0,global,class=BANK0,space=1,delta=1,noexec
     9                           	psect	clrtext,global,class=CODE,delta=2
    10                           	psect	cstackCOMMON,global,class=COMMON,space=1,delta=1,noexec
    11                           	psect	cstackBANK0,global,class=BANK0,space=1,delta=1,noexec
    12                           	psect	maintext,global,class=CODE,merge=1,split=1,delta=2
    13                           	psect	text1,local,class=CODE,merge=1,delta=2
    14                           	psect	text2,local,class=CODE,merge=1,delta=2
    15                           	psect	text3,local,class=CODE,merge=1,delta=2
    16                           	psect	text4,local,class=CODE,merge=1,delta=2
    17                           	psect	text5,local,class=CODE,merge=1,delta=2
    18                           	psect	text6,local,class=CODE,merge=1,delta=2
    19                           	psect	text7,local,class=CODE,merge=1,delta=2
    20                           	psect	text8,local,class=CODE,merge=1,inline,delta=2
    21                           	psect	text9,local,class=CODE,merge=1,delta=2
    22                           	psect	text10,local,class=CODE,merge=1,delta=2
    23                           	psect	text11,local,class=CODE,merge=1,delta=2
    24                           	psect	text12,local,class=CODE,merge=1,inline,delta=2
    25                           	psect	text13,local,class=CODE,merge=1,inline,delta=2
    26                           	psect	text14,local,class=CODE,merge=1,delta=2
    27                           	psect	text15,local,class=CODE,merge=1,delta=2
    28                           	psect	text16,local,class=CODE,merge=1,delta=2
    29                           	psect	text17,local,class=CODE,merge=1,delta=2
    30                           	psect	text18,local,class=CODE,merge=1,delta=2
    31                           	psect	text19,local,class=CODE,merge=1,delta=2
    32                           	psect	text20,local,class=CODE,merge=1,delta=2
    33                           	psect	text21,local,class=CODE,merge=1,delta=2
    34                           	psect	text22,local,class=CODE,merge=1,delta=2
    35                           	psect	text23,local,class=CODE,merge=1,delta=2
    36                           	psect	text24,local,class=CODE,merge=1,delta=2
    37                           	psect	text25,local,class=CODE,merge=1,delta=2
    38                           	psect	text26,local,class=CODE,merge=1,delta=2
    39                           	psect	text27,local,class=CODE,merge=1,delta=2
    40                           	psect	text28,local,class=CODE,merge=1,delta=2
    41                           	psect	text29,local,class=CODE,merge=1,delta=2
    42                           	psect	text30,local,class=CODE,merge=1,inline,delta=2
    43                           	psect	text31,local,class=CODE,merge=1,inline,delta=2
    44                           	psect	text32,local,class=CODE,merge=1,inline,delta=2
    45                           	psect	text33,local,class=CODE,merge=1,inline,delta=2
    46                           	psect	text34,local,class=CODE,merge=1,inline,delta=2
    47                           	psect	text35,local,class=CODE,merge=1,inline,delta=2
    48                           	psect	text36,local,class=CODE,merge=1,inline,delta=2
    49                           	psect	text37,local,class=CODE,merge=1,delta=2
    50                           	psect	text38,local,class=CODE,merge=1,delta=2
    51                           	psect	text39,local,class=CODE,merge=1,delta=2
    52                           	psect	text40,local,class=CODE,merge=1,delta=2
    53                           	psect	text41,local,class=CODE,merge=1,delta=2
    54                           	psect	text42,local,class=CODE,merge=1,delta=2
    55                           	psect	text43,local,class=CODE,merge=1,delta=2
    56                           	psect	text44,local,class=CODE,merge=1,delta=2
    57                           	psect	text45,local,class=CODE,merge=1,delta=2
    58                           	psect	text46,local,class=CODE,merge=1,inline,delta=2
    59                           	psect	text47,local,class=CODE,merge=1,inline,delta=2
    60                           	psect	text48,local,class=CODE,merge=1,inline,delta=2
    61                           	psect	text49,local,class=CODE,merge=1,delta=2
    62                           	psect	text50,local,class=CODE,merge=1,inline,delta=2
    63                           	psect	text51,local,class=CODE,merge=1,inline,delta=2
    64                           	psect	text52,local,class=CODE,merge=1,inline,delta=2
    65                           	psect	text53,local,class=CODE,merge=1,delta=2
    66                           	psect	text54,local,class=CODE,merge=1,delta=2
    67                           	psect	text55,local,class=CODE,merge=1,delta=2
    68                           	psect	text56,local,class=CODE,merge=1,delta=2
    69                           	psect	text57,local,class=CODE,merge=1,delta=2
    70                           	psect	idloc,global,abs,ovrld,class=IDLOC,space=5,delta=2,noexec
    71                           	psect	config,global,abs,ovrld,class=CONFIG,space=4,delta=2,noexec
    72                           	dabs	1,0x7E,2
    73  0000                     
    74                           ; Version 2.40
    75                           ; Generated 17/11/2021 GMT
    76                           ; 
    77                           ; Copyright © 2021, Microchip Technology Inc. and its subsidiaries ("Microchip")
    78                           ; All rights reserved.
    79                           ; 
    80                           ; This software is developed by Microchip Technology Inc. and its subsidiaries ("Microch
      +                          ip").
    81                           ; 
    82                           ; Redistribution and use in source and binary forms, with or without modification, are
    83                           ; permitted provided that the following conditions are met:
    84                           ; 
    85                           ;     1. Redistributions of source code must retain the above copyright notice, this lis
      +                          t of
    86                           ;        conditions and the following disclaimer.
    87                           ; 
    88                           ;     2. Redistributions in binary form must reproduce the above copyright notice, this 
      +                          list
    89                           ;        of conditions and the following disclaimer in the documentation and/or other
    90                           ;        materials provided with the distribution. Publication is not required when
    91                           ;        this file is used in an embedded application.
    92                           ; 
    93                           ;     3. Microchip's name may not be used to endorse or promote products derived from th
      +                          is
    94                           ;        software without specific prior written permission.
    95                           ; 
    96                           ; THIS SOFTWARE IS PROVIDED BY MICROCHIP "AS IS" AND ANY EXPRESS OR IMPLIED WARRANTIES,
    97                           ; INCLUDING, BUT NOT LIMITED TO, THE IMPLIED WARRANTIES OF MERCHANTABILITY AND FITNESS F
      +                          OR
    98                           ; PURPOSE ARE DISCLAIMED.  IN NO EVENT SHALL MICROCHIP BE LIABLE FOR ANY DIRECT, INDIREC
      +                          T,
    99                           ; INCIDENTAL, SPECIAL, EXEMPLARY, OR CONSEQUENTIAL DAMAGES (INCLUDING BUT NOT LIMITED TO
   100                           ; PROCUREMENT OF SUBSTITUTE GOODS OR SERVICES; LOSS OF USE, DATA OR PROFITS; OR BUSINESS
   101                           ; INTERRUPTION) HOWSOEVER CAUSED AND ON ANY THEORY OF LIABILITY, WHETHER IN CONTRACT, ST
      +                          RICT
   102                           ; LIABILITY, OR TORT (INCLUDING NEGLIGENCE OR OTHERWISE) ARISING IN ANY WAY OUT OF THE U
      +                          SE OF
   103                           ; THIS SOFTWARE, EVEN IF ADVISED OF THE POSSIBILITY OF SUCH DAMAGE.
   104                           ; 
   105                           ; 
   106                           ; Code-generator required, PIC16F1939 Definitions
   107                           ; 
   108                           ; SFR Addresses
   109  0000                     	;# 
   110  0001                     	;# 
   111  0002                     	;# 
   112  0003                     	;# 
   113  0004                     	;# 
   114  0005                     	;# 
   115  0006                     	;# 
   116  0007                     	;# 
   117  0008                     	;# 
   118  0009                     	;# 
   119  000A                     	;# 
   120  000B                     	;# 
   121  000C                     	;# 
   122  000D                     	;# 
   123  000E                     	;# 
   124  000F                     	;# 
   125  0010                     	;# 
   126  0011                     	;# 
   127  0012                     	;# 
   128  0013                     	;# 
   129  0015                     	;# 
   130  0016                     	;# 
   131  0016                     	;# 
   132  0017                     	;# 
   133  0018                     	;# 
   134  0019                     	;# 
   135  001A                     	;# 
   136  001B                     	;# 
   137  001C                     	;# 
   138  001E                     	;# 
   139  001F                     	;# 
   140  008C                     	;# 
   141  008D                     	;# 
   142  008E                     	;# 
   143  008F                     	;# 
   144  0090                     	;# 
   145  0091                     	;# 
   146  0092                     	;# 
   147  0093                     	;# 
   148  0095                     	;# 
   149  0096                     	;# 
   150  0097                     	;# 
   151  0098                     	;# 
   152  0099                     	;# 
   153  009A                     	;# 
   154  009B                     	;# 
   155  009B                     	;# 
   156  009C                     	;# 
   157  009D                     	;# 
   158  009E                     	;# 
   159  010C                     	;# 
   160  010D                     	;# 
   161  010E                     	;# 
   162  010F                     	;# 
   163  0110                     	;# 
   164  0111                     	;# 
   165  0112                     	;# 
   166  0113                     	;# 
   167  0114                     	;# 
   168  0115                     	;# 
   169  0116                     	;# 
   170  0117                     	;# 
   171  0118                     	;# 
   172  0119                     	;# 
   173  011A                     	;# 
   174  011B                     	;# 
   175  011D                     	;# 
   176  018C                     	;# 
   177  018D                     	;# 
   178  018F                     	;# 
   179  0190                     	;# 
   180  0191                     	;# 
   181  0191                     	;# 
   182  0192                     	;# 
   183  0193                     	;# 
   184  0193                     	;# 
   185  0193                     	;# 
   186  0194                     	;# 
   187  0195                     	;# 
   188  0196                     	;# 
   189  0199                     	;# 
   190  019A                     	;# 
   191  019B                     	;# 
   192  019B                     	;# 
   193  019B                     	;# 
   194  019B                     	;# 
   195  019C                     	;# 
   196  019C                     	;# 
   197  019D                     	;# 
   198  019E                     	;# 
   199  019F                     	;# 
   200  020D                     	;# 
   201  0210                     	;# 
   202  0211                     	;# 
   203  0212                     	;# 
   204  0213                     	;# 
   205  0214                     	;# 
   206  0215                     	;# 
   207  0215                     	;# 
   208  0216                     	;# 
   209  0217                     	;# 
   210  0291                     	;# 
   211  0291                     	;# 
   212  0292                     	;# 
   213  0293                     	;# 
   214  0294                     	;# 
   215  0295                     	;# 
   216  0295                     	;# 
   217  0296                     	;# 
   218  0298                     	;# 
   219  0298                     	;# 
   220  0299                     	;# 
   221  029A                     	;# 
   222  029B                     	;# 
   223  029C                     	;# 
   224  029C                     	;# 
   225  029D                     	;# 
   226  029E                     	;# 
   227  029F                     	;# 
   228  0311                     	;# 
   229  0311                     	;# 
   230  0312                     	;# 
   231  0313                     	;# 
   232  0314                     	;# 
   233  0315                     	;# 
   234  0315                     	;# 
   235  0316                     	;# 
   236  0318                     	;# 
   237  0318                     	;# 
   238  0319                     	;# 
   239  031A                     	;# 
   240  031C                     	;# 
   241  031C                     	;# 
   242  031D                     	;# 
   243  031E                     	;# 
   244  0394                     	;# 
   245  0395                     	;# 
   246  0396                     	;# 
   247  0415                     	;# 
   248  0416                     	;# 
   249  0417                     	;# 
   250  041C                     	;# 
   251  041D                     	;# 
   252  041E                     	;# 
   253  0791                     	;# 
   254  0792                     	;# 
   255  0793                     	;# 
   256  0794                     	;# 
   257  0795                     	;# 
   258  0798                     	;# 
   259  0799                     	;# 
   260  079A                     	;# 
   261  07A0                     	;# 
   262  07A1                     	;# 
   263  07A2                     	;# 
   264  07A3                     	;# 
   265  07A4                     	;# 
   266  07A5                     	;# 
   267  07A6                     	;# 
   268  07A7                     	;# 
   269  07A8                     	;# 
   270  07A9                     	;# 
   271  07AA                     	;# 
   272  07AB                     	;# 
   273  0FE4                     	;# 
   274  0FE5                     	;# 
   275  0FE6                     	;# 
   276  0FE7                     	;# 
   277  0FE8                     	;# 
   278  0FE9                     	;# 
   279  0FEA                     	;# 
   280  0FEB                     	;# 
   281  0FED                     	;# 
   282  0FEE                     	;# 
   283  0FEF                     	;# 
   284  0000                     	;# 
   285  0001                     	;# 
   286  0002                     	;# 
   287  0003                     	;# 
   288  0004                     	;# 
   289  0005                     	;# 
   290  0006                     	;# 
   291  0007                     	;# 
   292  0008                     	;# 
   293  0009                     	;# 
   294  000A                     	;# 
   295  000B                     	;# 
   296  000C                     	;# 
   297  000D                     	;# 
   298  000E                     	;# 
   299  000F                     	;# 
   300  0010                     	;# 
   301  0011                     	;# 
   302  0012                     	;# 
   303  0013                     	;# 
   304  0015                     	;# 
   305  0016                     	;# 
   306  0016                     	;# 
   307  0017                     	;# 
   308  0018                     	;# 
   309  0019                     	;# 
   310  001A                     	;# 
   311  001B                     	;# 
   312  001C                     	;# 
   313  001E                     	;# 
   314  001F                     	;# 
   315  008C                     	;# 
   316  008D                     	;# 
   317  008E                     	;# 
   318  008F                     	;# 
   319  0090                     	;# 
   320  0091                     	;# 
   321  0092                     	;# 
   322  0093                     	;# 
   323  0095                     	;# 
   324  0096                     	;# 
   325  0097                     	;# 
   326  0098                     	;# 
   327  0099                     	;# 
   328  009A                     	;# 
   329  009B                     	;# 
   330  009B                     	;# 
   331  009C                     	;# 
   332  009D                     	;# 
   333  009E                     	;# 
   334  010C                     	;# 
   335  010D                     	;# 
   336  010E                     	;# 
   337  010F                     	;# 
   338  0110                     	;# 
   339  0111                     	;# 
   340  0112                     	;# 
   341  0113                     	;# 
   342  0114                     	;# 
   343  0115                     	;# 
   344  0116                     	;# 
   345  0117                     	;# 
   346  0118                     	;# 
   347  0119                     	;# 
   348  011A                     	;# 
   349  011B                     	;# 
   350  011D                     	;# 
   351  018C                     	;# 
   352  018D                     	;# 
   353  018F                     	;# 
   354  0190                     	;# 
   355  0191                     	;# 
   356  0191                     	;# 
   357  0192                     	;# 
   358  0193                     	;# 
   359  0193                     	;# 
   360  0193                     	;# 
   361  0194                     	;# 
   362  0195                     	;# 
   363  0196                     	;# 
   364  0199                     	;# 
   365  019A                     	;# 
   366  019B                     	;# 
   367  019B                     	;# 
   368  019B                     	;# 
   369  019B                     	;# 
   370  019C                     	;# 
   371  019C                     	;# 
   372  019D                     	;# 
   373  019E                     	;# 
   374  019F                     	;# 
   375  020D                     	;# 
   376  0210                     	;# 
   377  0211                     	;# 
   378  0212                     	;# 
   379  0213                     	;# 
   380  0214                     	;# 
   381  0215                     	;# 
   382  0215                     	;# 
   383  0216                     	;# 
   384  0217                     	;# 
   385  0291                     	;# 
   386  0291                     	;# 
   387  0292                     	;# 
   388  0293                     	;# 
   389  0294                     	;# 
   390  0295                     	;# 
   391  0295                     	;# 
   392  0296                     	;# 
   393  0298                     	;# 
   394  0298                     	;# 
   395  0299                     	;# 
   396  029A                     	;# 
   397  029B                     	;# 
   398  029C                     	;# 
   399  029C                     	;# 
   400  029D                     	;# 
   401  029E                     	;# 
   402  029F                     	;# 
   403  0311                     	;# 
   404  0311                     	;# 
   405  0312                     	;# 
   406  0313                     	;# 
   407  0314                     	;# 
   408  0315                     	;# 
   409  0315                     	;# 
   410  0316                     	;# 
   411  0318                     	;# 
   412  0318                     	;# 
   413  0319                     	;# 
   414  031A                     	;# 
   415  031C                     	;# 
   416  031C                     	;# 
   417  031D                     	;# 
   418  031E                     	;# 
   419  0394                     	;# 
   420  0395                     	;# 
   421  0396                     	;# 
   422  0415                     	;# 
   423  0416                     	;# 
   424  0417                     	;# 
   425  041C                     	;# 
   426  041D                     	;# 
   427  041E                     	;# 
   428  0791                     	;# 
   429  0792                     	;# 
   430  0793                     	;# 
   431  0794                     	;# 
   432  0795                     	;# 
   433  0798                     	;# 
   434  0799                     	;# 
   435  079A                     	;# 
   436  07A0                     	;# 
   437  07A1                     	;# 
   438  07A2                     	;# 
   439  07A3                     	;# 
   440  07A4                     	;# 
   441  07A5                     	;# 
   442  07A6                     	;# 
   443  07A7                     	;# 
   444  07A8                     	;# 
   445  07A9                     	;# 
   446  07AA                     	;# 
   447  07AB                     	;# 
   448  0FE4                     	;# 
   449  0FE5                     	;# 
   450  0FE6                     	;# 
   451  0FE7                     	;# 
   452  0FE8                     	;# 
   453  0FE9                     	;# 
   454  0FEA                     	;# 
   455  0FEB                     	;# 
   456  0FED                     	;# 
   457  0FEE                     	;# 
   458  0FEF                     	;# 
   459  0000                     	;# 
   460  0001                     	;# 
   461  0002                     	;# 
   462  0003                     	;# 
   463  0004                     	;# 
   464  0005                     	;# 
   465  0006                     	;# 
   466  0007                     	;# 
   467  0008                     	;# 
   468  0009                     	;# 
   469  000A                     	;# 
   470  000B                     	;# 
   471  000C                     	;# 
   472  000D                     	;# 
   473  000E                     	;# 
   474  000F                     	;# 
   475  0010                     	;# 
   476  0011                     	;# 
   477  0012                     	;# 
   478  0013                     	;# 
   479  0015                     	;# 
   480  0016                     	;# 
   481  0016                     	;# 
   482  0017                     	;# 
   483  0018                     	;# 
   484  0019                     	;# 
   485  001A                     	;# 
   486  001B                     	;# 
   487  001C                     	;# 
   488  001E                     	;# 
   489  001F                     	;# 
   490  008C                     	;# 
   491  008D                     	;# 
   492  008E                     	;# 
   493  008F                     	;# 
   494  0090                     	;# 
   495  0091                     	;# 
   496  0092                     	;# 
   497  0093                     	;# 
   498  0095                     	;# 
   499  0096                     	;# 
   500  0097                     	;# 
   501  0098                     	;# 
   502  0099                     	;# 
   503  009A                     	;# 
   504  009B                     	;# 
   505  009B                     	;# 
   506  009C                     	;# 
   507  009D                     	;# 
   508  009E                     	;# 
   509  010C                     	;# 
   510  010D                     	;# 
   511  010E                     	;# 
   512  010F                     	;# 
   513  0110                     	;# 
   514  0111                     	;# 
   515  0112                     	;# 
   516  0113                     	;# 
   517  0114                     	;# 
   518  0115                     	;# 
   519  0116                     	;# 
   520  0117                     	;# 
   521  0118                     	;# 
   522  0119                     	;# 
   523  011A                     	;# 
   524  011B                     	;# 
   525  011D                     	;# 
   526  018C                     	;# 
   527  018D                     	;# 
   528  018F                     	;# 
   529  0190                     	;# 
   530  0191                     	;# 
   531  0191                     	;# 
   532  0192                     	;# 
   533  0193                     	;# 
   534  0193                     	;# 
   535  0193                     	;# 
   536  0194                     	;# 
   537  0195                     	;# 
   538  0196                     	;# 
   539  0199                     	;# 
   540  019A                     	;# 
   541  019B                     	;# 
   542  019B                     	;# 
   543  019B                     	;# 
   544  019B                     	;# 
   545  019C                     	;# 
   546  019C                     	;# 
   547  019D                     	;# 
   548  019E                     	;# 
   549  019F                     	;# 
   550  020D                     	;# 
   551  0210                     	;# 
   552  0211                     	;# 
   553  0212                     	;# 
   554  0213                     	;# 
   555  0214                     	;# 
   556  0215                     	;# 
   557  0215                     	;# 
   558  0216                     	;# 
   559  0217                     	;# 
   560  0291                     	;# 
   561  0291                     	;# 
   562  0292                     	;# 
   563  0293                     	;# 
   564  0294                     	;# 
   565  0295                     	;# 
   566  0295                     	;# 
   567  0296                     	;# 
   568  0298                     	;# 
   569  0298                     	;# 
   570  0299                     	;# 
   571  029A                     	;# 
   572  029B                     	;# 
   573  029C                     	;# 
   574  029C                     	;# 
   575  029D                     	;# 
   576  029E                     	;# 
   577  029F                     	;# 
   578  0311                     	;# 
   579  0311                     	;# 
   580  0312                     	;# 
   581  0313                     	;# 
   582  0314                     	;# 
   583  0315                     	;# 
   584  0315                     	;# 
   585  0316                     	;# 
   586  0318                     	;# 
   587  0318                     	;# 
   588  0319                     	;# 
   589  031A                     	;# 
   590  031C                     	;# 
   591  031C                     	;# 
   592  031D                     	;# 
   593  031E                     	;# 
   594  0394                     	;# 
   595  0395                     	;# 
   596  0396                     	;# 
   597  0415                     	;# 
   598  0416                     	;# 
   599  0417                     	;# 
   600  041C                     	;# 
   601  041D                     	;# 
   602  041E                     	;# 
   603  0791                     	;# 
   604  0792                     	;# 
   605  0793                     	;# 
   606  0794                     	;# 
   607  0795                     	;# 
   608  0798                     	;# 
   609  0799                     	;# 
   610  079A                     	;# 
   611  07A0                     	;# 
   612  07A1                     	;# 
   613  07A2                     	;# 
   614  07A3                     	;# 
   615  07A4                     	;# 
   616  07A5                     	;# 
   617  07A6                     	;# 
   618  07A7                     	;# 
   619  07A8                     	;# 
   620  07A9                     	;# 
   621  07AA                     	;# 
   622  07AB                     	;# 
   623  0FE4                     	;# 
   624  0FE5                     	;# 
   625  0FE6                     	;# 
   626  0FE7                     	;# 
   627  0FE8                     	;# 
   628  0FE9                     	;# 
   629  0FEA                     	;# 
   630  0FEB                     	;# 
   631  0FED                     	;# 
   632  0FEE                     	;# 
   633  0FEF                     	;# 
   634  0000                     	;# 
   635  0001                     	;# 
   636  0002                     	;# 
   637  0003                     	;# 
   638  0004                     	;# 
   639  0005                     	;# 
   640  0006                     	;# 
   641  0007                     	;# 
   642  0008                     	;# 
   643  0009                     	;# 
   644  000A                     	;# 
   645  000B                     	;# 
   646  000C                     	;# 
   647  000D                     	;# 
   648  000E                     	;# 
   649  000F                     	;# 
   650  0010                     	;# 
   651  0011                     	;# 
   652  0012                     	;# 
   653  0013                     	;# 
   654  0015                     	;# 
   655  0016                     	;# 
   656  0016                     	;# 
   657  0017                     	;# 
   658  0018                     	;# 
   659  0019                     	;# 
   660  001A                     	;# 
   661  001B                     	;# 
   662  001C                     	;# 
   663  001E                     	;# 
   664  001F                     	;# 
   665  008C                     	;# 
   666  008D                     	;# 
   667  008E                     	;# 
   668  008F                     	;# 
   669  0090                     	;# 
   670  0091                     	;# 
   671  0092                     	;# 
   672  0093                     	;# 
   673  0095                     	;# 
   674  0096                     	;# 
   675  0097                     	;# 
   676  0098                     	;# 
   677  0099                     	;# 
   678  009A                     	;# 
   679  009B                     	;# 
   680  009B                     	;# 
   681  009C                     	;# 
   682  009D                     	;# 
   683  009E                     	;# 
   684  010C                     	;# 
   685  010D                     	;# 
   686  010E                     	;# 
   687  010F                     	;# 
   688  0110                     	;# 
   689  0111                     	;# 
   690  0112                     	;# 
   691  0113                     	;# 
   692  0114                     	;# 
   693  0115                     	;# 
   694  0116                     	;# 
   695  0117                     	;# 
   696  0118                     	;# 
   697  0119                     	;# 
   698  011A                     	;# 
   699  011B                     	;# 
   700  011D                     	;# 
   701  018C                     	;# 
   702  018D                     	;# 
   703  018F                     	;# 
   704  0190                     	;# 
   705  0191                     	;# 
   706  0191                     	;# 
   707  0192                     	;# 
   708  0193                     	;# 
   709  0193                     	;# 
   710  0193                     	;# 
   711  0194                     	;# 
   712  0195                     	;# 
   713  0196                     	;# 
   714  0199                     	;# 
   715  019A                     	;# 
   716  019B                     	;# 
   717  019B                     	;# 
   718  019B                     	;# 
   719  019B                     	;# 
   720  019C                     	;# 
   721  019C                     	;# 
   722  019D                     	;# 
   723  019E                     	;# 
   724  019F                     	;# 
   725  020D                     	;# 
   726  0210                     	;# 
   727  0211                     	;# 
   728  0212                     	;# 
   729  0213                     	;# 
   730  0214                     	;# 
   731  0215                     	;# 
   732  0215                     	;# 
   733  0216                     	;# 
   734  0217                     	;# 
   735  0291                     	;# 
   736  0291                     	;# 
   737  0292                     	;# 
   738  0293                     	;# 
   739  0294                     	;# 
   740  0295                     	;# 
   741  0295                     	;# 
   742  0296                     	;# 
   743  0298                     	;# 
   744  0298                     	;# 
   745  0299                     	;# 
   746  029A                     	;# 
   747  029B                     	;# 
   748  029C                     	;# 
   749  029C                     	;# 
   750  029D                     	;# 
   751  029E                     	;# 
   752  029F                     	;# 
   753  0311                     	;# 
   754  0311                     	;# 
   755  0312                     	;# 
   756  0313                     	;# 
   757  0314                     	;# 
   758  0315                     	;# 
   759  0315                     	;# 
   760  0316                     	;# 
   761  0318                     	;# 
   762  0318                     	;# 
   763  0319                     	;# 
   764  031A                     	;# 
   765  031C                     	;# 
   766  031C                     	;# 
   767  031D                     	;# 
   768  031E                     	;# 
   769  0394                     	;# 
   770  0395                     	;# 
   771  0396                     	;# 
   772  0415                     	;# 
   773  0416                     	;# 
   774  0417                     	;# 
   775  041C                     	;# 
   776  041D                     	;# 
   777  041E                     	;# 
   778  0791                     	;# 
   779  0792                     	;# 
   780  0793                     	;# 
   781  0794                     	;# 
   782  0795                     	;# 
   783  0798                     	;# 
   784  0799                     	;# 
   785  079A                     	;# 
   786  07A0                     	;# 
   787  07A1                     	;# 
   788  07A2                     	;# 
   789  07A3                     	;# 
   790  07A4                     	;# 
   791  07A5                     	;# 
   792  07A6                     	;# 
   793  07A7                     	;# 
   794  07A8                     	;# 
   795  07A9                     	;# 
   796  07AA                     	;# 
   797  07AB                     	;# 
   798  0FE4                     	;# 
   799  0FE5                     	;# 
   800  0FE6                     	;# 
   801  0FE7                     	;# 
   802  0FE8                     	;# 
   803  0FE9                     	;# 
   804  0FEA                     	;# 
   805  0FEB                     	;# 
   806  0FED                     	;# 
   807  0FEE                     	;# 
   808  0FEF                     	;# 
   809  0000                     	;# 
   810  0001                     	;# 
   811  0002                     	;# 
   812  0003                     	;# 
   813  0004                     	;# 
   814  0005                     	;# 
   815  0006                     	;# 
   816  0007                     	;# 
   817  0008                     	;# 
   818  0009                     	;# 
   819  000A                     	;# 
   820  000B                     	;# 
   821  000C                     	;# 
   822  000D                     	;# 
   823  000E                     	;# 
   824  000F                     	;# 
   825  0010                     	;# 
   826  0011                     	;# 
   827  0012                     	;# 
   828  0013                     	;# 
   829  0015                     	;# 
   830  0016                     	;# 
   831  0016                     	;# 
   832  0017                     	;# 
   833  0018                     	;# 
   834  0019                     	;# 
   835  001A                     	;# 
   836  001B                     	;# 
   837  001C                     	;# 
   838  001E                     	;# 
   839  001F                     	;# 
   840  008C                     	;# 
   841  008D                     	;# 
   842  008E                     	;# 
   843  008F                     	;# 
   844  0090                     	;# 
   845  0091                     	;# 
   846  0092                     	;# 
   847  0093                     	;# 
   848  0095                     	;# 
   849  0096                     	;# 
   850  0097                     	;# 
   851  0098                     	;# 
   852  0099                     	;# 
   853  009A                     	;# 
   854  009B                     	;# 
   855  009B                     	;# 
   856  009C                     	;# 
   857  009D                     	;# 
   858  009E                     	;# 
   859  010C                     	;# 
   860  010D                     	;# 
   861  010E                     	;# 
   862  010F                     	;# 
   863  0110                     	;# 
   864  0111                     	;# 
   865  0112                     	;# 
   866  0113                     	;# 
   867  0114                     	;# 
   868  0115                     	;# 
   869  0116                     	;# 
   870  0117                     	;# 
   871  0118                     	;# 
   872  0119                     	;# 
   873  011A                     	;# 
   874  011B                     	;# 
   875  011D                     	;# 
   876  018C                     	;# 
   877  018D                     	;# 
   878  018F                     	;# 
   879  0190                     	;# 
   880  0191                     	;# 
   881  0191                     	;# 
   882  0192                     	;# 
   883  0193                     	;# 
   884  0193                     	;# 
   885  0193                     	;# 
   886  0194                     	;# 
   887  0195                     	;# 
   888  0196                     	;# 
   889  0199                     	;# 
   890  019A                     	;# 
   891  019B                     	;# 
   892  019B                     	;# 
   893  019B                     	;# 
   894  019B                     	;# 
   895  019C                     	;# 
   896  019C                     	;# 
   897  019D                     	;# 
   898  019E                     	;# 
   899  019F                     	;# 
   900  020D                     	;# 
   901  0210                     	;# 
   902  0211                     	;# 
   903  0212                     	;# 
   904  0213                     	;# 
   905  0214                     	;# 
   906  0215                     	;# 
   907  0215                     	;# 
   908  0216                     	;# 
   909  0217                     	;# 
   910  0291                     	;# 
   911  0291                     	;# 
   912  0292                     	;# 
   913  0293                     	;# 
   914  0294                     	;# 
   915  0295                     	;# 
   916  0295                     	;# 
   917  0296                     	;# 
   918  0298                     	;# 
   919  0298                     	;# 
   920  0299                     	;# 
   921  029A                     	;# 
   922  029B                     	;# 
   923  029C                     	;# 
   924  029C                     	;# 
   925  029D                     	;# 
   926  029E                     	;# 
   927  029F                     	;# 
   928  0311                     	;# 
   929  0311                     	;# 
   930  0312                     	;# 
   931  0313                     	;# 
   932  0314                     	;# 
   933  0315                     	;# 
   934  0315                     	;# 
   935  0316                     	;# 
   936  0318                     	;# 
   937  0318                     	;# 
   938  0319                     	;# 
   939  031A                     	;# 
   940  031C                     	;# 
   941  031C                     	;# 
   942  031D                     	;# 
   943  031E                     	;# 
   944  0394                     	;# 
   945  0395                     	;# 
   946  0396                     	;# 
   947  0415                     	;# 
   948  0416                     	;# 
   949  0417                     	;# 
   950  041C                     	;# 
   951  041D                     	;# 
   952  041E                     	;# 
   953  0791                     	;# 
   954  0792                     	;# 
   955  0793                     	;# 
   956  0794                     	;# 
   957  0795                     	;# 
   958  0798                     	;# 
   959  0799                     	;# 
   960  079A                     	;# 
   961  07A0                     	;# 
   962  07A1                     	;# 
   963  07A2                     	;# 
   964  07A3                     	;# 
   965  07A4                     	;# 
   966  07A5                     	;# 
   967  07A6                     	;# 
   968  07A7                     	;# 
   969  07A8                     	;# 
   970  07A9                     	;# 
   971  07AA                     	;# 
   972  07AB                     	;# 
   973  0FE4                     	;# 
   974  0FE5                     	;# 
   975  0FE6                     	;# 
   976  0FE7                     	;# 
   977  0FE8                     	;# 
   978  0FE9                     	;# 
   979  0FEA                     	;# 
   980  0FEB                     	;# 
   981  0FED                     	;# 
   982  0FEE                     	;# 
   983  0FEF                     	;# 
   984  0000                     	;# 
   985  0001                     	;# 
   986  0002                     	;# 
   987  0003                     	;# 
   988  0004                     	;# 
   989  0005                     	;# 
   990  0006                     	;# 
   991  0007                     	;# 
   992  0008                     	;# 
   993  0009                     	;# 
   994  000A                     	;# 
   995  000B                     	;# 
   996  000C                     	;# 
   997  000D                     	;# 
   998  000E                     	;# 
   999  000F                     	;# 
  1000  0010                     	;# 
  1001  0011                     	;# 
  1002  0012                     	;# 
  1003  0013                     	;# 
  1004  0015                     	;# 
  1005  0016                     	;# 
  1006  0016                     	;# 
  1007  0017                     	;# 
  1008  0018                     	;# 
  1009  0019                     	;# 
  1010  001A                     	;# 
  1011  001B                     	;# 
  1012  001C                     	;# 
  1013  001E                     	;# 
  1014  001F                     	;# 
  1015  008C                     	;# 
  1016  008D                     	;# 
  1017  008E                     	;# 
  1018  008F                     	;# 
  1019  0090                     	;# 
  1020  0091                     	;# 
  1021  0092                     	;# 
  1022  0093                     	;# 
  1023  0095                     	;# 
  1024  0096                     	;# 
  1025  0097                     	;# 
  1026  0098                     	;# 
  1027  0099                     	;# 
  1028  009A                     	;# 
  1029  009B                     	;# 
  1030  009B                     	;# 
  1031  009C                     	;# 
  1032  009D                     	;# 
  1033  009E                     	;# 
  1034  010C                     	;# 
  1035  010D                     	;# 
  1036  010E                     	;# 
  1037  010F                     	;# 
  1038  0110                     	;# 
  1039  0111                     	;# 
  1040  0112                     	;# 
  1041  0113                     	;# 
  1042  0114                     	;# 
  1043  0115                     	;# 
  1044  0116                     	;# 
  1045  0117                     	;# 
  1046  0118                     	;# 
  1047  0119                     	;# 
  1048  011A                     	;# 
  1049  011B                     	;# 
  1050  011D                     	;# 
  1051  018C                     	;# 
  1052  018D                     	;# 
  1053  018F                     	;# 
  1054  0190                     	;# 
  1055  0191                     	;# 
  1056  0191                     	;# 
  1057  0192                     	;# 
  1058  0193                     	;# 
  1059  0193                     	;# 
  1060  0193                     	;# 
  1061  0194                     	;# 
  1062  0195                     	;# 
  1063  0196                     	;# 
  1064  0199                     	;# 
  1065  019A                     	;# 
  1066  019B                     	;# 
  1067  019B                     	;# 
  1068  019B                     	;# 
  1069  019B                     	;# 
  1070  019C                     	;# 
  1071  019C                     	;# 
  1072  019D                     	;# 
  1073  019E                     	;# 
  1074  019F                     	;# 
  1075  020D                     	;# 
  1076  0210                     	;# 
  1077  0211                     	;# 
  1078  0212                     	;# 
  1079  0213                     	;# 
  1080  0214                     	;# 
  1081  0215                     	;# 
  1082  0215                     	;# 
  1083  0216                     	;# 
  1084  0217                     	;# 
  1085  0291                     	;# 
  1086  0291                     	;# 
  1087  0292                     	;# 
  1088  0293                     	;# 
  1089  0294                     	;# 
  1090  0295                     	;# 
  1091  0295                     	;# 
  1092  0296                     	;# 
  1093  0298                     	;# 
  1094  0298                     	;# 
  1095  0299                     	;# 
  1096  029A                     	;# 
  1097  029B                     	;# 
  1098  029C                     	;# 
  1099  029C                     	;# 
  1100  029D                     	;# 
  1101  029E                     	;# 
  1102  029F                     	;# 
  1103  0311                     	;# 
  1104  0311                     	;# 
  1105  0312                     	;# 
  1106  0313                     	;# 
  1107  0314                     	;# 
  1108  0315                     	;# 
  1109  0315                     	;# 
  1110  0316                     	;# 
  1111  0318                     	;# 
  1112  0318                     	;# 
  1113  0319                     	;# 
  1114  031A                     	;# 
  1115  031C                     	;# 
  1116  031C                     	;# 
  1117  031D                     	;# 
  1118  031E                     	;# 
  1119  0394                     	;# 
  1120  0395                     	;# 
  1121  0396                     	;# 
  1122  0415                     	;# 
  1123  0416                     	;# 
  1124  0417                     	;# 
  1125  041C                     	;# 
  1126  041D                     	;# 
  1127  041E                     	;# 
  1128  0791                     	;# 
  1129  0792                     	;# 
  1130  0793                     	;# 
  1131  0794                     	;# 
  1132  0795                     	;# 
  1133  0798                     	;# 
  1134  0799                     	;# 
  1135  079A                     	;# 
  1136  07A0                     	;# 
  1137  07A1                     	;# 
  1138  07A2                     	;# 
  1139  07A3                     	;# 
  1140  07A4                     	;# 
  1141  07A5                     	;# 
  1142  07A6                     	;# 
  1143  07A7                     	;# 
  1144  07A8                     	;# 
  1145  07A9                     	;# 
  1146  07AA                     	;# 
  1147  07AB                     	;# 
  1148  0FE4                     	;# 
  1149  0FE5                     	;# 
  1150  0FE6                     	;# 
  1151  0FE7                     	;# 
  1152  0FE8                     	;# 
  1153  0FE9                     	;# 
  1154  0FEA                     	;# 
  1155  0FEB                     	;# 
  1156  0FED                     	;# 
  1157  0FEE                     	;# 
  1158  0FEF                     	;# 
  1159                           
  1160                           	psect	idataBANK0
  1161  0453                     __pidataBANK0:
  1162                           
  1163                           ;initializer for i2c_lcd_set_cursor@local_mem
  1164  0453  3400               	retlw	0
  1165  0454  3440               	retlw	64
  1166  0455  3414               	retlw	20
  1167  0456  3454               	retlw	84
  1168                           
  1169                           ;initializer for _statusLED
  1170  0457  3408               	retlw	8
  1171                           
  1172                           	psect	stringtext1
  1173  0800                     __pstringtext1:
  1174  0800                     _i2c_fsmStateTable:
  1175  0800  3421               	retlw	low _I2C_DO_IDLE
  1176  0801  3404               	retlw	high _I2C_DO_IDLE
  1177  0802  3482               	retlw	low _I2C_DO_SEND_ADR_READ
  1178  0803  3404               	retlw	high _I2C_DO_SEND_ADR_READ
  1179  0804  3471               	retlw	low _I2C_DO_SEND_ADR_WRITE
  1180  0805  3404               	retlw	high _I2C_DO_SEND_ADR_WRITE
  1181  0806  3492               	retlw	low _I2C_DO_TX
  1182  0807  3407               	retlw	high _I2C_DO_TX
  1183  0808  34FF               	retlw	low _I2C_DO_RX
  1184  0809  3406               	retlw	high _I2C_DO_RX
  1185  080A  346A               	retlw	low _I2C_DO_RCEN
  1186  080B  3404               	retlw	high _I2C_DO_RCEN
  1187  080C  3465               	retlw	low _I2C_DO_TX_EMPTY
  1188  080D  3406               	retlw	high _I2C_DO_TX_EMPTY
  1189  080E  3426               	retlw	low _I2C_DO_SEND_RESTART_READ
  1190  080F  3404               	retlw	high _I2C_DO_SEND_RESTART_READ
  1191  0810  342B               	retlw	low _I2C_DO_SEND_RESTART_WRITE
  1192  0811  3404               	retlw	high _I2C_DO_SEND_RESTART_WRITE
  1193  0812  3430               	retlw	low _I2C_DO_SEND_RESTART
  1194  0813  3404               	retlw	high _I2C_DO_SEND_RESTART
  1195  0814  3435               	retlw	low _I2C_DO_SEND_STOP
  1196  0815  3404               	retlw	high _I2C_DO_SEND_STOP
  1197  0816  343A               	retlw	low _I2C_DO_RX_ACK
  1198  0817  3404               	retlw	high _I2C_DO_RX_ACK
  1199  0818  343F               	retlw	low _I2C_DO_RX_NACK_STOP
  1200  0819  3404               	retlw	high _I2C_DO_RX_NACK_STOP
  1201  081A  3444               	retlw	low _I2C_DO_RX_NACK_RESTART
  1202  081B  3404               	retlw	high _I2C_DO_RX_NACK_RESTART
  1203  081C  3449               	retlw	low _I2C_DO_RESET
  1204  081D  3404               	retlw	high _I2C_DO_RESET
  1205  081E  3439               	retlw	low _I2C_DO_ADDRESS_NACK
  1206  081F  3406               	retlw	high _I2C_DO_ADDRESS_NACK
  1207  0820                     __end_of_i2c_fsmStateTable:
  1208  0011                     _PIR1bits	set	17
  1209  0012                     _PIR2bits	set	18
  1210  0097                     _WDTCON	set	151
  1211  0098                     _OSCTUNE	set	152
  1212  0099                     _OSCCON	set	153
  1213  0091                     _PIE1bits	set	145
  1214  0095                     _OPTION_REGbits	set	149
  1215  008F                     _TRISD	set	143
  1216  008E                     _TRISC	set	142
  1217  008D                     _TRISB	set	141
  1218  008C                     _TRISA	set	140
  1219  0090                     _TRISE	set	144
  1220  04D6                     _PLLR	set	1238
  1221  0116                     _BORCON	set	278
  1222  011D                     _APFCON	set	285
  1223  010E                     _LATC	set	270
  1224  010D                     _LATB	set	269
  1225  010C                     _LATA	set	268
  1226  010F                     _LATD	set	271
  1227  0110                     _LATE	set	272
  1228  018C                     _ANSELA	set	396
  1229  0190                     _ANSELE	set	400
  1230  018D                     _ANSELB	set	397
  1231  018F                     _ANSELD	set	399
  1232  0214                     _SSPSTATbits	set	532
  1233  0216                     _SSPCON2bits	set	534
  1234  0211                     _SSPBUF	set	529
  1235  0215                     _SSPCON1bits	set	533
  1236  0212                     _SSPADD	set	530
  1237  0216                     _SSPCON2	set	534
  1238  0215                     _SSPCON1	set	533
  1239  0214                     _SSPSTAT	set	532
  1240  020D                     _WPUB	set	525
  1241  0210                     _WPUE	set	528
  1242                           
  1243                           	psect	cinit
  1244  07E7                     start_initialization:	
  1245                           ; #config settings
  1246                           
  1247  07E7                     __initialization:
  1248                           
  1249                           ; Initialize objects allocated to BANK0
  1250  07E7  3053               	movlw	low __pidataBANK0
  1251  07E8  0084               	movwf	4
  1252  07E9  3084               	movlw	(high __pidataBANK0)| (0+128)
  1253  07EA  0085               	movwf	5
  1254  07EB  0012               	moviw fsr0++
  1255  07EC  00CA               	movwf	__pdataBANK0& (0+127)
  1256  07ED  0012               	moviw fsr0++
  1257  07EE  00CB               	movwf	(__pdataBANK0+1)& (0+127)
  1258  07EF  0012               	moviw fsr0++
  1259  07F0  00CC               	movwf	(__pdataBANK0+2)& (0+127)
  1260  07F1  0012               	moviw fsr0++
  1261  07F2  00CD               	movwf	(__pdataBANK0+3)& (0+127)
  1262  07F3  0012               	moviw fsr0++
  1263  07F4  00CE               	movwf	(__pdataBANK0+4)& (0+127)
  1264                           
  1265                           ; Clear objects allocated to BANK0
  1266  07F5  3020               	movlw	low __pbssBANK0
  1267  07F6  0084               	movwf	4
  1268  07F7  3000               	movlw	high __pbssBANK0
  1269  07F8  0085               	movwf	5
  1270  07F9  3020               	movlw	32
  1271  07FA  3184  2464  3187   	fcall	clear_ram0
  1272  07FD                     end_of_initialization:	
  1273                           ;End of C runtime variable initialization code
  1274                           
  1275  07FD                     __end_of__initialization:
  1276  07FD  0020               	movlb	0
  1277  07FE  3184  2C8B         	ljmp	_main	;jump to C main() function
  1278                           
  1279                           	psect	bssBANK0
  1280  0020                     __pbssBANK0:
  1281  0020                     _I2C_Status:
  1282  0020                     	ds	29
  1283  003D                     _statusbtn:
  1284  003D                     	ds	2
  1285  003F                     _paramsLCD:
  1286  003F                     	ds	1
  1287                           
  1288                           	psect	dataBANK0
  1289  004A                     __pdataBANK0:
  1290  004A                     i2c_lcd_set_cursor@local_mem:
  1291  004A                     	ds	4
  1292  004E                     _statusLED:
  1293  004E                     	ds	1
  1294                           
  1295                           	psect	clrtext
  1296  0464                     clear_ram0:	
  1297                           ;	Called with FSR0 containing the base address, and
  1298                           ;	WREG with the size to clear
  1299                           
  1300  0464  0064               	clrwdt	;clear the watchdog before getting into this loop
  1301  0465                     clrloop0:
  1302  0465  0180               	clrf	0	;clear RAM location pointed to by FSR
  1303  0466  3101               	addfsr 0,1
  1304  0467  0B89               	decfsz	9,f	;Have we reached the end of clearing yet?
  1305  0468  2C65               	goto	clrloop0	;have we reached the end yet?
  1306  0469  3400               	retlw	0	;all done for this memory range, return
  1307                           
  1308                           	psect	cstackCOMMON
  1309  0070                     __pcstackCOMMON:
  1310  0070                     ?_I2C_DO_IDLE:
  1311  0070                     ??_I2C_DO_IDLE:	
  1312                           ; 1 bytes @ 0x0
  1313                           
  1314  0070                     ?_I2C_DO_SEND_ADR_READ:	
  1315                           ; 1 bytes @ 0x0
  1316                           
  1317  0070                     ??_I2C_DO_SEND_ADR_READ:	
  1318                           ; 1 bytes @ 0x0
  1319                           
  1320  0070                     ?_I2C_DO_SEND_ADR_WRITE:	
  1321                           ; 1 bytes @ 0x0
  1322                           
  1323  0070                     ?_I2C_DO_TX:	
  1324                           ; 1 bytes @ 0x0
  1325                           
  1326  0070                     ?_I2C_DO_RX:	
  1327                           ; 1 bytes @ 0x0
  1328                           
  1329  0070                     ??_I2C_DO_RX:	
  1330                           ; 1 bytes @ 0x0
  1331                           
  1332  0070                     ?_I2C_DO_RCEN:	
  1333                           ; 1 bytes @ 0x0
  1334                           
  1335  0070                     ??_I2C_DO_RCEN:	
  1336                           ; 1 bytes @ 0x0
  1337                           
  1338  0070                     ?_I2C_DO_TX_EMPTY:	
  1339                           ; 1 bytes @ 0x0
  1340                           
  1341  0070                     ??_I2C_DO_TX_EMPTY:	
  1342                           ; 1 bytes @ 0x0
  1343                           
  1344  0070                     ?_I2C_DO_SEND_RESTART_READ:	
  1345                           ; 1 bytes @ 0x0
  1346                           
  1347  0070                     ??_I2C_DO_SEND_RESTART_READ:	
  1348                           ; 1 bytes @ 0x0
  1349                           
  1350  0070                     ?_I2C_DO_SEND_RESTART_WRITE:	
  1351                           ; 1 bytes @ 0x0
  1352                           
  1353  0070                     ??_I2C_DO_SEND_RESTART_WRITE:	
  1354                           ; 1 bytes @ 0x0
  1355                           
  1356  0070                     ?_I2C_DO_SEND_RESTART:	
  1357                           ; 1 bytes @ 0x0
  1358                           
  1359  0070                     ??_I2C_DO_SEND_RESTART:	
  1360                           ; 1 bytes @ 0x0
  1361                           
  1362  0070                     ?_I2C_DO_SEND_STOP:	
  1363                           ; 1 bytes @ 0x0
  1364                           
  1365  0070                     ??_I2C_DO_SEND_STOP:	
  1366                           ; 1 bytes @ 0x0
  1367                           
  1368  0070                     ?_I2C_DO_RX_ACK:	
  1369                           ; 1 bytes @ 0x0
  1370                           
  1371  0070                     ??_I2C_DO_RX_ACK:	
  1372                           ; 1 bytes @ 0x0
  1373                           
  1374  0070                     ?_I2C_DO_RX_NACK_STOP:	
  1375                           ; 1 bytes @ 0x0
  1376                           
  1377  0070                     ??_I2C_DO_RX_NACK_STOP:	
  1378                           ; 1 bytes @ 0x0
  1379                           
  1380  0070                     ?_I2C_DO_RX_NACK_RESTART:	
  1381                           ; 1 bytes @ 0x0
  1382                           
  1383  0070                     ??_I2C_DO_RX_NACK_RESTART:	
  1384                           ; 1 bytes @ 0x0
  1385                           
  1386  0070                     ?_I2C_DO_RESET:	
  1387                           ; 1 bytes @ 0x0
  1388                           
  1389  0070                     ??_I2C_DO_RESET:	
  1390                           ; 1 bytes @ 0x0
  1391                           
  1392  0070                     ?_I2C_DO_ADDRESS_NACK:	
  1393                           ; 1 bytes @ 0x0
  1394                           
  1395  0070                     ??_I2C_DO_ADDRESS_NACK:	
  1396                           ; 1 bytes @ 0x0
  1397                           
  1398  0070                     ?_I2C_MasterClearIrq:	
  1399                           ; 1 bytes @ 0x0
  1400                           
  1401  0070                     ??_I2C_MasterClearIrq:	
  1402                           ; 1 bytes @ 0x0
  1403                           
  1404  0070                     ?_I2C_MasterOpen:	
  1405                           ; 1 bytes @ 0x0
  1406                           
  1407  0070                     ??_I2C_MasterOpen:	
  1408                           ; 1 bytes @ 0x0
  1409                           
  1410  0070                     ?_I2C_MasterDisableIrq:	
  1411                           ; 1 bytes @ 0x0
  1412                           
  1413  0070                     ??_I2C_MasterDisableIrq:	
  1414                           ; 1 bytes @ 0x0
  1415                           
  1416  0070                     ?_I2C_MasterClose:	
  1417                           ; 1 bytes @ 0x0
  1418                           
  1419  0070                     ??_I2C_MasterClose:	
  1420                           ; 1 bytes @ 0x0
  1421                           
  1422  0070                     ?_I2C_MasterStart:	
  1423                           ; 1 bytes @ 0x0
  1424                           
  1425  0070                     ??_I2C_MasterStart:	
  1426                           ; 1 bytes @ 0x0
  1427                           
  1428  0070                     ?_I2C_Poller:	
  1429                           ; 1 bytes @ 0x0
  1430                           
  1431  0070                     ?_I2C_SetCallback:	
  1432                           ; 1 bytes @ 0x0
  1433                           
  1434  0070                     ?_I2C_MasterWaitForEvent:	
  1435                           ; 1 bytes @ 0x0
  1436                           
  1437  0070                     ??_I2C_MasterWaitForEvent:	
  1438                           ; 1 bytes @ 0x0
  1439                           
  1440  0070                     ?_I2C_MasterFsm:	
  1441                           ; 1 bytes @ 0x0
  1442                           
  1443  0070                     ?_I2C_MasterIsNack:	
  1444                           ; 1 bytes @ 0x0
  1445                           
  1446  0070                     ??_I2C_MasterIsNack:	
  1447                           ; 1 bytes @ 0x0
  1448                           
  1449  0070                     ?_I2C_MasterSendTxData:	
  1450                           ; 1 bytes @ 0x0
  1451                           
  1452  0070                     ??_I2C_MasterSendTxData:	
  1453                           ; 1 bytes @ 0x0
  1454                           
  1455  0070                     ?_I2C_MasterGetRxData:	
  1456                           ; 1 bytes @ 0x0
  1457                           
  1458  0070                     ??_I2C_MasterGetRxData:	
  1459                           ; 1 bytes @ 0x0
  1460                           
  1461  0070                     ?_I2C_MasterSendAck:	
  1462                           ; 1 bytes @ 0x0
  1463                           
  1464  0070                     ??_I2C_MasterSendAck:	
  1465                           ; 1 bytes @ 0x0
  1466                           
  1467  0070                     ?_I2C_MasterStartRx:	
  1468                           ; 1 bytes @ 0x0
  1469                           
  1470  0070                     ??_I2C_MasterStartRx:	
  1471                           ; 1 bytes @ 0x0
  1472                           
  1473  0070                     ?_I2C_MasterSetIrq:	
  1474                           ; 1 bytes @ 0x0
  1475                           
  1476  0070                     ??_I2C_MasterSetIrq:	
  1477                           ; 1 bytes @ 0x0
  1478                           
  1479  0070                     ?_I2C_MasterEnableRestart:	
  1480                           ; 1 bytes @ 0x0
  1481                           
  1482  0070                     ??_I2C_MasterEnableRestart:	
  1483                           ; 1 bytes @ 0x0
  1484                           
  1485  0070                     ?_I2C_MasterStop:	
  1486                           ; 1 bytes @ 0x0
  1487                           
  1488  0070                     ??_I2C_MasterStop:	
  1489                           ; 1 bytes @ 0x0
  1490                           
  1491  0070                     ?_I2C_MasterSendNack:	
  1492                           ; 1 bytes @ 0x0
  1493                           
  1494  0070                     ??_I2C_MasterSendNack:	
  1495                           ; 1 bytes @ 0x0
  1496                           
  1497  0070                     ?_OSCILLATOR_Initialize:	
  1498                           ; 1 bytes @ 0x0
  1499                           
  1500  0070                     ??_OSCILLATOR_Initialize:	
  1501                           ; 1 bytes @ 0x0
  1502                           
  1503  0070                     ?_WDT_Initialize:	
  1504                           ; 1 bytes @ 0x0
  1505                           
  1506  0070                     ??_WDT_Initialize:	
  1507                           ; 1 bytes @ 0x0
  1508                           
  1509  0070                     ?_i2c_lcd_init:	
  1510                           ; 1 bytes @ 0x0
  1511                           
  1512  0070                     ?_PIN_MANAGER_Initialize:	
  1513                           ; 1 bytes @ 0x0
  1514                           
  1515  0070                     ??_PIN_MANAGER_Initialize:	
  1516                           ; 1 bytes @ 0x0
  1517                           
  1518  0070                     ?_I2C_Initialize:	
  1519                           ; 1 bytes @ 0x0
  1520                           
  1521  0070                     ??_I2C_Initialize:	
  1522                           ; 1 bytes @ 0x0
  1523                           
  1524  0070                     ?_I2C_Open:	
  1525                           ; 1 bytes @ 0x0
  1526                           
  1527  0070                     ??_I2C_Open:	
  1528                           ; 1 bytes @ 0x0
  1529                           
  1530  0070                     ?_I2C_Close:	
  1531                           ; 1 bytes @ 0x0
  1532                           
  1533  0070                     ??_I2C_Close:	
  1534                           ; 1 bytes @ 0x0
  1535                           
  1536  0070                     ?_I2C_MasterOperation:	
  1537                           ; 1 bytes @ 0x0
  1538                           
  1539  0070                     ?_I2C_MasterWrite:	
  1540                           ; 1 bytes @ 0x0
  1541                           
  1542  0070                     ?_I2C_SetBuffer:	
  1543                           ; 1 bytes @ 0x0
  1544                           
  1545  0070                     ?_SYSTEM_Initialize:	
  1546                           ; 1 bytes @ 0x0
  1547                           
  1548  0070                     ??_SYSTEM_Initialize:	
  1549                           ; 1 bytes @ 0x0
  1550                           
  1551  0070                     ?_main:	
  1552                           ; 1 bytes @ 0x0
  1553                           
  1554  0070                     ?_PCF_Wr:	
  1555                           ; 1 bytes @ 0x0
  1556                           
  1557  0070                     ?_sendCMD:	
  1558                           ; 1 bytes @ 0x0
  1559                           
  1560  0070                     I2C_MasterSendTxData@data:	
  1561                           ; 1 bytes @ 0x0
  1562                           
  1563  0070                     I2C_SetBuffer@bufferSize:	
  1564                           ; 1 bytes @ 0x0
  1565                           
  1566  0070                     I2C_SetCallback@cb:	
  1567                           ; 2 bytes @ 0x0
  1568                           
  1569                           
  1570                           ; 2 bytes @ 0x0
  1571  0070                     	ds	1
  1572  0071                     ??_I2C_DO_SEND_ADR_WRITE:
  1573  0071                     ??_I2C_DO_TX:	
  1574                           ; 1 bytes @ 0x1
  1575                           
  1576  0071                     I2C_Open@address:	
  1577                           ; 1 bytes @ 0x1
  1578                           
  1579  0071                     I2C_Close@returnValue:	
  1580                           ; 1 bytes @ 0x1
  1581                           
  1582                           
  1583                           ; 1 bytes @ 0x1
  1584  0071                     	ds	1
  1585  0072                     ??_I2C_SetBuffer:
  1586  0072                     I2C_Open@returnValue:	
  1587                           ; 1 bytes @ 0x2
  1588                           
  1589  0072                     I2C_SetCallback@ptr:	
  1590                           ; 1 bytes @ 0x2
  1591                           
  1592                           
  1593                           ; 1 bytes @ 0x2
  1594  0072                     	ds	1
  1595  0073                     ??_I2C_SetCallback:
  1596  0073                     I2C_SetBuffer@buffer:	
  1597                           ; 1 bytes @ 0x3
  1598                           
  1599                           
  1600                           ; 1 bytes @ 0x3
  1601  0073                     	ds	1
  1602  0074                     ??_I2C_MasterFsm:
  1603  0074                     I2C_SetCallback@idx:	
  1604                           ; 1 bytes @ 0x4
  1605                           
  1606                           
  1607                           ; 1 bytes @ 0x4
  1608  0074                     	ds	1
  1609  0075                     ?_I2C_SetDataCompleteCallback:
  1610  0075                     ?_I2C_SetAddressNackCallback:	
  1611                           ; 1 bytes @ 0x5
  1612                           
  1613  0075                     I2C_SetDataCompleteCallback@cb:	
  1614                           ; 1 bytes @ 0x5
  1615                           
  1616  0075                     I2C_SetAddressNackCallback@cb:	
  1617                           ; 2 bytes @ 0x5
  1618                           
  1619                           
  1620                           ; 2 bytes @ 0x5
  1621  0075                     	ds	2
  1622  0077                     ??_I2C_Poller:
  1623  0077                     ??_I2C_MasterOperation:	
  1624                           ; 1 bytes @ 0x7
  1625                           
  1626  0077                     I2C_SetDataCompleteCallback@ptr:	
  1627                           ; 1 bytes @ 0x7
  1628                           
  1629  0077                     I2C_SetAddressNackCallback@ptr:	
  1630                           ; 1 bytes @ 0x7
  1631                           
  1632                           
  1633                           ; 1 bytes @ 0x7
  1634  0077                     	ds	1
  1635  0078                     ??_I2C_SetDataCompleteCallback:
  1636  0078                     ??_I2C_SetAddressNackCallback:	
  1637                           ; 1 bytes @ 0x8
  1638                           
  1639  0078                     I2C_MasterOperation@read:	
  1640                           ; 1 bytes @ 0x8
  1641                           
  1642                           
  1643                           ; 1 bytes @ 0x8
  1644  0078                     	ds	1
  1645  0079                     ?_I2C_CallbackReturnStop:
  1646  0079                     ?_I2C_CallbackReturnReset:	
  1647                           ; 1 bytes @ 0x9
  1648                           
  1649  0079                     ?_rd1RegCompleteHandler:	
  1650                           ; 1 bytes @ 0x9
  1651                           
  1652  0079                     ?_wr1RegCompleteHandler:	
  1653                           ; 1 bytes @ 0x9
  1654                           
  1655  0079                     ?_wr2RegCompleteHandler:	
  1656                           ; 1 bytes @ 0x9
  1657                           
  1658  0079                     ?_rdBlkRegCompleteHandler:	
  1659                           ; 1 bytes @ 0x9
  1660                           
  1661  0079                     I2C_MasterOperation@returnValue:	
  1662                           ; 1 bytes @ 0x9
  1663                           
  1664  0079                     I2C_CallbackReturnStop@funPtr:	
  1665                           ; 1 bytes @ 0x9
  1666                           
  1667  0079                     I2C_CallbackReturnReset@funPtr:	
  1668                           ; 1 bytes @ 0x9
  1669                           
  1670  0079                     rd1RegCompleteHandler@ptr:	
  1671                           ; 1 bytes @ 0x9
  1672                           
  1673  0079                     wr1RegCompleteHandler@ptr:	
  1674                           ; 1 bytes @ 0x9
  1675                           
  1676  0079                     wr2RegCompleteHandler@ptr:	
  1677                           ; 1 bytes @ 0x9
  1678                           
  1679  0079                     rdBlkRegCompleteHandler@ptr:	
  1680                           ; 1 bytes @ 0x9
  1681                           
  1682                           
  1683                           ; 1 bytes @ 0x9
  1684  0079                     	ds	1
  1685  007A                     ??_I2C_CallbackReturnStop:
  1686  007A                     ??_I2C_CallbackReturnReset:	
  1687                           ; 1 bytes @ 0xA
  1688                           
  1689  007A                     ??_rd1RegCompleteHandler:	
  1690                           ; 1 bytes @ 0xA
  1691                           
  1692  007A                     ??_wr1RegCompleteHandler:	
  1693                           ; 1 bytes @ 0xA
  1694                           
  1695  007A                     ??_wr2RegCompleteHandler:	
  1696                           ; 1 bytes @ 0xA
  1697                           
  1698  007A                     ??_rdBlkRegCompleteHandler:	
  1699                           ; 1 bytes @ 0xA
  1700                           
  1701  007A                     ??_I2C_MasterWrite:	
  1702                           ; 1 bytes @ 0xA
  1703                           
  1704  007A                     ?_I2C_Wr:	
  1705                           ; 1 bytes @ 0xA
  1706                           
  1707  007A                     I2C_Wr@data:	
  1708                           ; 1 bytes @ 0xA
  1709                           
  1710                           
  1711                           ; 1 bytes @ 0xA
  1712  007A                     	ds	1
  1713  007B                     ??_I2C_Wr:
  1714  007B                     I2C_Wr@address:	
  1715                           ; 1 bytes @ 0xB
  1716                           
  1717                           
  1718                           ; 1 bytes @ 0xB
  1719  007B                     	ds	1
  1720  007C                     ??_PCF_Wr:
  1721                           
  1722                           ; 1 bytes @ 0xC
  1723  007C                     	ds	1
  1724  007D                     PCF_Wr@dato:
  1725                           
  1726                           ; 1 bytes @ 0xD
  1727  007D                     	ds	1
  1728  007E                     ??_main:
  1729                           
  1730                           	psect	cstackBANK0
  1731  0040                     __pcstackBANK0:	
  1732                           ; 1 bytes @ 0xE
  1733                           
  1734  0040                     ?_loadPCF:
  1735  0040                     loadPCF@mode:	
  1736                           ; 1 bytes @ 0x0
  1737                           
  1738                           
  1739                           ; 1 bytes @ 0x0
  1740  0040                     	ds	1
  1741  0041                     ??_loadPCF:
  1742                           
  1743                           ; 1 bytes @ 0x1
  1744  0041                     	ds	2
  1745  0043                     loadPCF@dato:
  1746                           
  1747                           ; 1 bytes @ 0x3
  1748  0043                     	ds	1
  1749  0044                     ??_sendCMD:
  1750                           
  1751                           ; 1 bytes @ 0x4
  1752  0044                     	ds	2
  1753  0046                     sendCMD@NibbleH:
  1754                           
  1755                           ; 1 bytes @ 0x6
  1756  0046                     	ds	1
  1757  0047                     sendCMD@NibbleL:
  1758                           
  1759                           ; 1 bytes @ 0x7
  1760  0047                     	ds	1
  1761  0048                     sendCMD@cmd:
  1762                           
  1763                           ; 1 bytes @ 0x8
  1764  0048                     	ds	1
  1765  0049                     ??_i2c_lcd_init:
  1766                           
  1767                           ; 1 bytes @ 0x9
  1768  0049                     	ds	1
  1769                           
  1770                           	psect	maintext
  1771  048B                     __pmaintext:	
  1772 ;;
  1773 ;;Main: autosize = 0, tempsize = 0, incstack = 0, save=0
  1774 ;;
  1775 ;; *************** function _main *****************
  1776 ;; Defined at:
  1777 ;;		line 8 in file "main.c"
  1778 ;; Parameters:    Size  Location     Type
  1779 ;;		None
  1780 ;; Auto vars:     Size  Location     Type
  1781 ;;		None
  1782 ;; Return value:  Size  Location     Type
  1783 ;;                  1    wreg      void 
  1784 ;; Registers used:
  1785 ;;		wreg, fsr0l, fsr0h, fsr1l, fsr1h, status,2, status,0, pclath, cstack
  1786 ;; Tracked objects:
  1787 ;;		On entry : B1F/0
  1788 ;;		On exit  : 0/0
  1789 ;;		Unchanged: 0/0
  1790 ;; Data sizes:     COMMON   BANK0   BANK1   BANK2   BANK3   BANK4   BANK5   BANK6   BANK7   BANK8   BANK9  BANK10  BANK1
      +1  BANK12
  1791 ;;      Params:         0       0       0       0       0       0       0       0       0       0       0       0       
      +0       0
  1792 ;;      Locals:         0       0       0       0       0       0       0       0       0       0       0       0       
      +0       0
  1793 ;;      Temps:          0       0       0       0       0       0       0       0       0       0       0       0       
      +0       0
  1794 ;;      Totals:         0       0       0       0       0       0       0       0       0       0       0       0       
      +0       0
  1795 ;;Total ram usage:        0 bytes
  1796 ;; Hardware stack levels required when called: 13
  1797 ;; This function calls:
  1798 ;;		_SYSTEM_Initialize
  1799 ;;		_i2c_lcd_init
  1800 ;; This function is called by:
  1801 ;;		Startup code after reset
  1802 ;; This function uses a non-reentrant model
  1803 ;;
  1804                           
  1805  048B                     _main:	
  1806                           ;psect for function _main
  1807                           
  1808  048B                     l2686:	
  1809                           ;incstack = 0
  1810                           ; Regs used in _main: [wreg-fsr1h+status,2+status,0+pclath+cstack]
  1811                           
  1812                           
  1813                           ;main.c: 10:     SYSTEM_Initialize();
  1814  048B  3184  24AC  3184   	fcall	_SYSTEM_Initialize
  1815  048E                     l2688:
  1816                           
  1817                           ;main.c: 12:     i2c_lcd_init();
  1818  048E  3187  2745  3184   	fcall	_i2c_lcd_init
  1819  0491                     l524:	
  1820                           ;main.c: 15:     while (1){
  1821                           
  1822  0491                     l525:	
  1823                           ;main.c: 17:     }
  1824                           
  1825  0491  2C91               	goto	l524
  1826  0492  3180  2802         	ljmp	start
  1827  0494                     __end_of_main:
  1828                           
  1829                           	psect	text1
  1830  0745                     __ptext1:	
  1831 ;; *************** function _i2c_lcd_init *****************
  1832 ;; Defined at:
  1833 ;;		line 47 in file "LCD_I2C.c"
  1834 ;; Parameters:    Size  Location     Type
  1835 ;;		None
  1836 ;; Auto vars:     Size  Location     Type
  1837 ;;		None
  1838 ;; Return value:  Size  Location     Type
  1839 ;;                  1    wreg      void 
  1840 ;; Registers used:
  1841 ;;		wreg, fsr0l, fsr0h, fsr1l, fsr1h, status,2, status,0, pclath, cstack
  1842 ;; Tracked objects:
  1843 ;;		On entry : 0/0
  1844 ;;		On exit  : 0/0
  1845 ;;		Unchanged: 0/0
  1846 ;; Data sizes:     COMMON   BANK0   BANK1   BANK2   BANK3   BANK4   BANK5   BANK6   BANK7   BANK8   BANK9  BANK10  BANK1
      +1  BANK12
  1847 ;;      Params:         0       0       0       0       0       0       0       0       0       0       0       0       
      +0       0
  1848 ;;      Locals:         0       0       0       0       0       0       0       0       0       0       0       0       
      +0       0
  1849 ;;      Temps:          0       1       0       0       0       0       0       0       0       0       0       0       
      +0       0
  1850 ;;      Totals:         0       1       0       0       0       0       0       0       0       0       0       0       
      +0       0
  1851 ;;Total ram usage:        1 bytes
  1852 ;; Hardware stack levels used: 1
  1853 ;; Hardware stack levels required when called: 12
  1854 ;; This function calls:
  1855 ;;		_PCF_Wr
  1856 ;;		_sendCMD
  1857 ;; This function is called by:
  1858 ;;		_main
  1859 ;; This function uses a non-reentrant model
  1860 ;;
  1861                           
  1862  0745                     _i2c_lcd_init:	
  1863                           ;psect for function _i2c_lcd_init
  1864                           
  1865  0745                     l2516:	
  1866                           ;incstack = 0
  1867                           ; Regs used in _i2c_lcd_init: [wreg-fsr1h+status,2+status,0+pclath+cstack]
  1868                           
  1869                           
  1870                           ;LCD_I2C.c: 49:     PCF_Wr(0x00);
  1871  0745  3000               	movlw	0
  1872  0746  3184  24A0  3187   	fcall	_PCF_Wr
  1873  0749                     l2518:
  1874                           
  1875                           ;LCD_I2C.c: 50:     _delay((unsigned long)((15)*(32000000/4000.0)));
  1876  0749  309C               	movlw	156
  1877  074A  0020               	movlb	0	; select bank0
  1878  074B  00C9               	movwf	??_i2c_lcd_init
  1879  074C  30D7               	movlw	215
  1880  074D                     u787:
  1881  074D  0B89               	decfsz	9,f
  1882  074E  2F4D               	goto	u787
  1883  074F  0BC9               	decfsz	??_i2c_lcd_init,f
  1884  0750  2F4D               	goto	u787
  1885  0751                     l2520:
  1886                           
  1887                           ;LCD_I2C.c: 51:     sendCMD(0x03);
  1888  0751  3003               	movlw	3
  1889  0752  3185  2582  3187   	fcall	_sendCMD
  1890                           
  1891                           ;LCD_I2C.c: 52:     _delay((unsigned long)((4100)*(32000000/4000000.0)));
  1892  0755  302B               	movlw	43
  1893  0756  0020               	movlb	0	; select bank0
  1894  0757  00C9               	movwf	??_i2c_lcd_init
  1895  0758  3097               	movlw	151
  1896  0759                     u797:
  1897  0759  0B89               	decfsz	9,f
  1898  075A  2F59               	goto	u797
  1899  075B  0BC9               	decfsz	??_i2c_lcd_init,f
  1900  075C  2F59               	goto	u797
  1901  075D  3200               	nop2
  1902  075E                     l2522:
  1903                           
  1904                           ;LCD_I2C.c: 53:     sendCMD(0x03);
  1905  075E  3003               	movlw	3
  1906  075F  3185  2582  3187   	fcall	_sendCMD
  1907  0762                     l2524:
  1908                           
  1909                           ;LCD_I2C.c: 54:     _delay((unsigned long)((100)*(32000000/4000000.0)));
  1910  0762  30A0               	movlw	160
  1911  0763                     u807:
  1912  0763  3200               	nop2
  1913  0764  0B89               	decfsz	9,f
  1914  0765  2F63               	goto	u807
  1915                           
  1916                           ;LCD_I2C.c: 55:     sendCMD(0x03);
  1917  0766  3003               	movlw	3
  1918  0767  3185  2582  3187   	fcall	_sendCMD
  1919                           
  1920                           ;LCD_I2C.c: 56:     sendCMD(0x02);
  1921  076A  3002               	movlw	2
  1922  076B  3185  2582  3187   	fcall	_sendCMD
  1923                           
  1924                           ;LCD_I2C.c: 58:     sendCMD(0x20 | 0x00 | 0x08 | 0x00);
  1925  076E  3028               	movlw	40
  1926  076F  3185  2582  3187   	fcall	_sendCMD
  1927  0772                     l2526:
  1928                           
  1929                           ;LCD_I2C.c: 59:     _delay((unsigned long)((37)*(32000000/4000000.0)));
  1930  0772  3062               	movlw	98
  1931  0773                     u817:
  1932  0773  0B89               	decfsz	9,f
  1933  0774  2F73               	goto	u817
  1934  0775  3200               	nop2
  1935  0776                     l2528:
  1936                           
  1937                           ;LCD_I2C.c: 61:     paramsLCD = 0x04 | 0x02 | 0x01;
  1938  0776  3007               	movlw	7
  1939  0777  0020               	movlb	0	; select bank0
  1940  0778  00C9               	movwf	??_i2c_lcd_init
  1941  0779  0849               	movf	??_i2c_lcd_init,w
  1942  077A  00BF               	movwf	_paramsLCD
  1943                           
  1944                           ;LCD_I2C.c: 62:     sendCMD(0x08 | paramsLCD);
  1945  077B  083F               	movf	_paramsLCD,w
  1946  077C  3808               	iorlw	8
  1947  077D  3185  2582  3187   	fcall	_sendCMD
  1948  0780                     l2530:
  1949                           
  1950                           ;LCD_I2C.c: 63:     _delay((unsigned long)((37)*(32000000/4000000.0)));
  1951  0780  3062               	movlw	98
  1952  0781                     u827:
  1953  0781  0B89               	decfsz	9,f
  1954  0782  2F81               	goto	u827
  1955  0783  3200               	nop2
  1956  0784                     l2532:
  1957                           
  1958                           ;LCD_I2C.c: 65:     sendCMD(0x01);
  1959  0784  3001               	movlw	1
  1960  0785  3185  2582  3187   	fcall	_sendCMD
  1961                           
  1962                           ;LCD_I2C.c: 66:     _delay((unsigned long)((2)*(32000000/4000.0)));
  1963  0788  3015               	movlw	21
  1964  0789  0020               	movlb	0	; select bank0
  1965  078A  00C9               	movwf	??_i2c_lcd_init
  1966  078B  30C6               	movlw	198
  1967  078C                     u837:
  1968  078C  0B89               	decfsz	9,f
  1969  078D  2F8C               	goto	u837
  1970  078E  0BC9               	decfsz	??_i2c_lcd_init,f
  1971  078F  2F8C               	goto	u837
  1972  0790  0000               	nop
  1973  0791                     l554:
  1974  0791  0008               	return
  1975  0792                     __end_of_i2c_lcd_init:
  1976                           
  1977                           	psect	text2
  1978  0582                     __ptext2:	
  1979 ;; *************** function _sendCMD *****************
  1980 ;; Defined at:
  1981 ;;		line 39 in file "LCD_I2C.c"
  1982 ;; Parameters:    Size  Location     Type
  1983 ;;  cmd             1    wreg     unsigned char 
  1984 ;; Auto vars:     Size  Location     Type
  1985 ;;  cmd             1    8[BANK0 ] unsigned char 
  1986 ;;  NibbleL         1    7[BANK0 ] unsigned char 
  1987 ;;  NibbleH         1    6[BANK0 ] unsigned char 
  1988 ;; Return value:  Size  Location     Type
  1989 ;;                  1    wreg      void 
  1990 ;; Registers used:
  1991 ;;		wreg, fsr0l, fsr0h, fsr1l, fsr1h, status,2, status,0, pclath, cstack
  1992 ;; Tracked objects:
  1993 ;;		On entry : 0/0
  1994 ;;		On exit  : 0/0
  1995 ;;		Unchanged: 0/0
  1996 ;; Data sizes:     COMMON   BANK0   BANK1   BANK2   BANK3   BANK4   BANK5   BANK6   BANK7   BANK8   BANK9  BANK10  BANK1
      +1  BANK12
  1997 ;;      Params:         0       0       0       0       0       0       0       0       0       0       0       0       
      +0       0
  1998 ;;      Locals:         0       3       0       0       0       0       0       0       0       0       0       0       
      +0       0
  1999 ;;      Temps:          0       2       0       0       0       0       0       0       0       0       0       0       
      +0       0
  2000 ;;      Totals:         0       5       0       0       0       0       0       0       0       0       0       0       
      +0       0
  2001 ;;Total ram usage:        5 bytes
  2002 ;; Hardware stack levels used: 1
  2003 ;; Hardware stack levels required when called: 11
  2004 ;; This function calls:
  2005 ;;		_loadPCF
  2006 ;; This function is called by:
  2007 ;;		_i2c_lcd_init
  2008 ;;		_i2c_lcd_command
  2009 ;;		_i2c_lcd_set_cursor
  2010 ;;		_i2c_lcd_backlight_on
  2011 ;;		_i2c_lcd_backlight_off
  2012 ;;		_i2c_lcd_clear
  2013 ;;		_i2c_lcd_return_home
  2014 ;;		_i2c_lcd_enable_blink
  2015 ;;		_i2c_lcd_disable_blink
  2016 ;;		_i2c_lcd_enable_cursor
  2017 ;;		_i2c_lcd_disable_cursor
  2018 ;;		_i2c_lcd_on
  2019 ;;		_i2c_lcd_off
  2020 ;;		_i2c_lcd_scroll_left
  2021 ;;		_i2c_lcd_scroll_right
  2022 ;;		_i2c_lcd_custom_char
  2023 ;; This function uses a non-reentrant model
  2024 ;;
  2025                           
  2026  0582                     _sendCMD:	
  2027                           ;psect for function _sendCMD
  2028                           
  2029                           
  2030                           ;incstack = 0
  2031                           ; Regs used in _sendCMD: [wreg-fsr1h+status,2+status,0+pclath+cstack]
  2032                           ;sendCMD@cmd stored from wreg
  2033  0582  0020               	movlb	0	; select bank0
  2034  0583  00C8               	movwf	sendCMD@cmd
  2035  0584                     l2504:
  2036                           
  2037                           ;LCD_I2C.c: 40:      uint8_t NibbleH, NibbleL;;LCD_I2C.c: 41:      NibbleH = cmd & 0xF0;
  2038  0584  0848               	movf	sendCMD@cmd,w
  2039  0585  39F0               	andlw	240
  2040  0586  00C4               	movwf	??_sendCMD
  2041  0587  0844               	movf	??_sendCMD,w
  2042  0588  00C6               	movwf	sendCMD@NibbleH
  2043  0589                     l2506:
  2044                           
  2045                           ;LCD_I2C.c: 42:      NibbleL = (cmd & 0x0F)<<4;
  2046  0589  0848               	movf	sendCMD@cmd,w
  2047  058A  390F               	andlw	15
  2048  058B  00C4               	movwf	??_sendCMD
  2049  058C  3003               	movlw	3
  2050  058D                     u565:
  2051  058D  35C4               	lslf	??_sendCMD,f
  2052  058E  3EFF               	addlw	-1
  2053  058F  1D03               	skipz
  2054  0590  2D8D               	goto	u565
  2055  0591  3544               	lslf	??_sendCMD,w
  2056  0592  00C5               	movwf	??_sendCMD+1
  2057  0593  0845               	movf	??_sendCMD+1,w
  2058  0594  00C7               	movwf	sendCMD@NibbleL
  2059  0595                     l2508:
  2060                           
  2061                           ;LCD_I2C.c: 43:      loadPCF(NibbleH,0);
  2062  0595  01C0               	clrf	loadPCF@mode
  2063  0596  0846               	movf	sendCMD@NibbleH,w
  2064  0597  3186  2694  3185   	fcall	_loadPCF
  2065  059A                     l2510:
  2066                           
  2067                           ;LCD_I2C.c: 44:      loadPCF(NibbleL,0);
  2068  059A  0020               	movlb	0	; select bank0
  2069  059B  01C0               	clrf	loadPCF@mode
  2070  059C  0847               	movf	sendCMD@NibbleL,w
  2071  059D  3186  2694  3185   	fcall	_loadPCF
  2072  05A0                     l551:
  2073  05A0  0008               	return
  2074  05A1                     __end_of_sendCMD:
  2075                           
  2076                           	psect	text3
  2077  0694                     __ptext3:	
  2078 ;; *************** function _loadPCF *****************
  2079 ;; Defined at:
  2080 ;;		line 15 in file "LCD_I2C.c"
  2081 ;; Parameters:    Size  Location     Type
  2082 ;;  dato            1    wreg     unsigned char 
  2083 ;;  mode            1    0[BANK0 ] unsigned char 
  2084 ;; Auto vars:     Size  Location     Type
  2085 ;;  dato            1    3[BANK0 ] unsigned char 
  2086 ;; Return value:  Size  Location     Type
  2087 ;;                  1    wreg      void 
  2088 ;; Registers used:
  2089 ;;		wreg, fsr0l, fsr0h, fsr1l, fsr1h, status,2, status,0, pclath, cstack
  2090 ;; Tracked objects:
  2091 ;;		On entry : 0/0
  2092 ;;		On exit  : 0/0
  2093 ;;		Unchanged: 0/0
  2094 ;; Data sizes:     COMMON   BANK0   BANK1   BANK2   BANK3   BANK4   BANK5   BANK6   BANK7   BANK8   BANK9  BANK10  BANK1
      +1  BANK12
  2095 ;;      Params:         0       1       0       0       0       0       0       0       0       0       0       0       
      +0       0
  2096 ;;      Locals:         0       1       0       0       0       0       0       0       0       0       0       0       
      +0       0
  2097 ;;      Temps:          0       2       0       0       0       0       0       0       0       0       0       0       
      +0       0
  2098 ;;      Totals:         0       4       0       0       0       0       0       0       0       0       0       0       
      +0       0
  2099 ;;Total ram usage:        4 bytes
  2100 ;; Hardware stack levels used: 1
  2101 ;; Hardware stack levels required when called: 10
  2102 ;; This function calls:
  2103 ;;		_PCF_Wr
  2104 ;; This function is called by:
  2105 ;;		_sendCMD
  2106 ;;		_sendDATA
  2107 ;; This function uses a non-reentrant model
  2108 ;;
  2109                           
  2110  0694                     _loadPCF:	
  2111                           ;psect for function _loadPCF
  2112                           
  2113                           
  2114                           ;incstack = 0
  2115                           ; Regs used in _loadPCF: [wreg-fsr1h+status,2+status,0+pclath+cstack]
  2116                           ;loadPCF@dato stored from wreg
  2117  0694  0020               	movlb	0	; select bank0
  2118  0695  00C3               	movwf	loadPCF@dato
  2119  0696                     l2478:
  2120                           
  2121                           ;LCD_I2C.c: 17:     switch(mode){
  2122  0696  2E9E               	goto	l2486
  2123  0697                     l2480:
  2124  0697  1443               	bsf	loadPCF@dato,0
  2125  0698  2EAE               	goto	l2488
  2126  0699                     l2482:
  2127  0699  30FE               	movlw	254
  2128  069A  00C1               	movwf	??_loadPCF
  2129  069B  0841               	movf	??_loadPCF,w
  2130  069C  05C3               	andwf	loadPCF@dato,f
  2131  069D  2EAE               	goto	l2488
  2132  069E                     l2486:
  2133  069E  0840               	movf	loadPCF@mode,w
  2134  069F  00C1               	movwf	??_loadPCF
  2135  06A0  01C2               	clrf	??_loadPCF+1
  2136                           
  2137                           ; Switch on 2 bytes has been partitioned into a top level switch of size 1, and 1 sub-sw
      +                          itches
  2138                           ; Switch size 1, requested type "simple"
  2139                           ; Number of cases is 1, Range of values is 0 to 0
  2140                           ; switch strategies available:
  2141                           ; Name         Instructions Cycles
  2142                           ; simple_byte            4     3 (average)
  2143                           ; direct_byte            8     6 (fixed)
  2144                           ; jumptable            260     6 (fixed)
  2145                           ;	Chosen strategy is simple_byte
  2146  06A1  0842               	movf	??_loadPCF+1,w
  2147  06A2  3A00               	xorlw	0	; case 0
  2148  06A3  1903               	skipnz
  2149  06A4  2EA6               	goto	l2892
  2150  06A5  2EAE               	goto	l2488
  2151  06A6                     l2892:
  2152                           
  2153                           ; Switch size 1, requested type "simple"
  2154                           ; Number of cases is 2, Range of values is 0 to 1
  2155                           ; switch strategies available:
  2156                           ; Name         Instructions Cycles
  2157                           ; simple_byte            7     4 (average)
  2158                           ; direct_byte           10     6 (fixed)
  2159                           ; jumptable            260     6 (fixed)
  2160                           ;	Chosen strategy is simple_byte
  2161  06A6  0841               	movf	??_loadPCF,w
  2162  06A7  3A00               	xorlw	0	; case 0
  2163  06A8  1903               	skipnz
  2164  06A9  2E99               	goto	l2482
  2165  06AA  3A01               	xorlw	1	; case 1
  2166  06AB  1903               	skipnz
  2167  06AC  2E97               	goto	l2480
  2168  06AD  2EAE               	goto	l2488
  2169  06AE                     l2488:
  2170                           
  2171                           ;LCD_I2C.c: 23:     PCF_Wr(dato);
  2172  06AE  0843               	movf	loadPCF@dato,w
  2173  06AF  3184  24A0  3186   	fcall	_PCF_Wr
  2174  06B2                     l2490:
  2175                           
  2176                           ;LCD_I2C.c: 24:     dato |= (1<<2);
  2177  06B2  0020               	movlb	0	; select bank0
  2178  06B3  1543               	bsf	loadPCF@dato,2
  2179                           
  2180                           ;LCD_I2C.c: 25:     PCF_Wr(dato);
  2181  06B4  0843               	movf	loadPCF@dato,w
  2182  06B5  3184  24A0  3186   	fcall	_PCF_Wr
  2183  06B8                     l2492:
  2184                           
  2185                           ;LCD_I2C.c: 26:     dato &= ~(1<<2);
  2186  06B8  30FB               	movlw	251
  2187  06B9  0020               	movlb	0	; select bank0
  2188  06BA  00C1               	movwf	??_loadPCF
  2189  06BB  0841               	movf	??_loadPCF,w
  2190  06BC  05C3               	andwf	loadPCF@dato,f
  2191  06BD                     l2494:
  2192                           
  2193                           ;LCD_I2C.c: 27:     PCF_Wr(dato);
  2194  06BD  0843               	movf	loadPCF@dato,w
  2195  06BE  3184  24A0  3186   	fcall	_PCF_Wr
  2196  06C1                     l2496:
  2197                           
  2198                           ;LCD_I2C.c: 29:     _delay((unsigned long)((30)*(32000000/4000000.0)));
  2199  06C1  3050               	movlw	80
  2200  06C2                     u847:
  2201  06C2  0B89               	decfsz	9,f
  2202  06C3  2EC2               	goto	u847
  2203  06C4                     l545:
  2204  06C4  0008               	return
  2205  06C5                     __end_of_loadPCF:
  2206                           
  2207                           	psect	text4
  2208  04A0                     __ptext4:	
  2209 ;; *************** function _PCF_Wr *****************
  2210 ;; Defined at:
  2211 ;;		line 11 in file "LCD_I2C.c"
  2212 ;; Parameters:    Size  Location     Type
  2213 ;;  dato            1    wreg     unsigned char 
  2214 ;; Auto vars:     Size  Location     Type
  2215 ;;  dato            1   13[COMMON] unsigned char 
  2216 ;; Return value:  Size  Location     Type
  2217 ;;                  1    wreg      void 
  2218 ;; Registers used:
  2219 ;;		wreg, fsr0l, fsr0h, fsr1l, fsr1h, status,2, status,0, pclath, cstack
  2220 ;; Tracked objects:
  2221 ;;		On entry : 0/0
  2222 ;;		On exit  : 0/0
  2223 ;;		Unchanged: 0/0
  2224 ;; Data sizes:     COMMON   BANK0   BANK1   BANK2   BANK3   BANK4   BANK5   BANK6   BANK7   BANK8   BANK9  BANK10  BANK1
      +1  BANK12
  2225 ;;      Params:         0       0       0       0       0       0       0       0       0       0       0       0       
      +0       0
  2226 ;;      Locals:         1       0       0       0       0       0       0       0       0       0       0       0       
      +0       0
  2227 ;;      Temps:          1       0       0       0       0       0       0       0       0       0       0       0       
      +0       0
  2228 ;;      Totals:         2       0       0       0       0       0       0       0       0       0       0       0       
      +0       0
  2229 ;;Total ram usage:        2 bytes
  2230 ;; Hardware stack levels used: 1
  2231 ;; Hardware stack levels required when called: 9
  2232 ;; This function calls:
  2233 ;;		_I2C_Wr
  2234 ;; This function is called by:
  2235 ;;		_loadPCF
  2236 ;;		_i2c_lcd_init
  2237 ;; This function uses a non-reentrant model
  2238 ;;
  2239                           
  2240  04A0                     _PCF_Wr:	
  2241                           ;psect for function _PCF_Wr
  2242                           
  2243                           
  2244                           ;incstack = 0
  2245                           ; Regs used in _PCF_Wr: [wreg-fsr1h+status,2+status,0+pclath+cstack]
  2246                           ;PCF_Wr@dato stored from wreg
  2247  04A0  00FD               	movwf	PCF_Wr@dato
  2248  04A1                     l2476:
  2249                           
  2250                           ;LCD_I2C.c: 12:     I2C_Wr (0b0100000 | 0b111, dato|statusLED );
  2251  04A1  087D               	movf	PCF_Wr@dato,w
  2252  04A2  0020               	movlb	0	; select bank0
  2253  04A3  044E               	iorwf	_statusLED,w
  2254  04A4  00FC               	movwf	??_PCF_Wr
  2255  04A5  087C               	movf	??_PCF_Wr,w
  2256  04A6  00FA               	movwf	I2C_Wr@data
  2257  04A7  3027               	movlw	39
  2258  04A8  3185  25C3  3184   	fcall	_I2C_Wr
  2259  04AB                     l538:
  2260  04AB  0008               	return
  2261  04AC                     __end_of_PCF_Wr:
  2262                           
  2263                           	psect	text5
  2264  05C3                     __ptext5:	
  2265 ;; *************** function _I2C_Wr *****************
  2266 ;; Defined at:
  2267 ;;		line 755 in file "mcc_generated_files/i2c_master.c"
  2268 ;; Parameters:    Size  Location     Type
  2269 ;;  address         1    wreg     unsigned char 
  2270 ;;  data            1   10[COMMON] unsigned char 
  2271 ;; Auto vars:     Size  Location     Type
  2272 ;;  address         1   11[COMMON] unsigned char 
  2273 ;; Return value:  Size  Location     Type
  2274 ;;                  1    wreg      unsigned char 
  2275 ;; Registers used:
  2276 ;;		wreg, fsr0l, fsr0h, fsr1l, fsr1h, status,2, status,0, pclath, cstack
  2277 ;; Tracked objects:
  2278 ;;		On entry : 0/0
  2279 ;;		On exit  : 0/0
  2280 ;;		Unchanged: 0/0
  2281 ;; Data sizes:     COMMON   BANK0   BANK1   BANK2   BANK3   BANK4   BANK5   BANK6   BANK7   BANK8   BANK9  BANK10  BANK1
      +1  BANK12
  2282 ;;      Params:         1       0       0       0       0       0       0       0       0       0       0       0       
      +0       0
  2283 ;;      Locals:         1       0       0       0       0       0       0       0       0       0       0       0       
      +0       0
  2284 ;;      Temps:          0       0       0       0       0       0       0       0       0       0       0       0       
      +0       0
  2285 ;;      Totals:         2       0       0       0       0       0       0       0       0       0       0       0       
      +0       0
  2286 ;;Total ram usage:        2 bytes
  2287 ;; Hardware stack levels used: 1
  2288 ;; Hardware stack levels required when called: 8
  2289 ;; This function calls:
  2290 ;;		_I2C_Close
  2291 ;;		_I2C_MasterWrite
  2292 ;;		_I2C_Open
  2293 ;;		_I2C_SetAddressNackCallback
  2294 ;;		_I2C_SetBuffer
  2295 ;; This function is called by:
  2296 ;;		_PCF_Wr
  2297 ;; This function uses a non-reentrant model
  2298 ;;
  2299                           
  2300  05C3                     _I2C_Wr:	
  2301                           ;psect for function _I2C_Wr
  2302                           
  2303                           
  2304                           ;incstack = 0
  2305                           ; Regs used in _I2C_Wr: [wreg-fsr1h+status,2+status,0+pclath+cstack]
  2306                           ;I2C_Wr@address stored from wreg
  2307  05C3  00FB               	movwf	I2C_Wr@address
  2308  05C4                     l2464:
  2309  05C4                     l2466:	
  2310                           ;mcc_generated_files/i2c_master.c: 756:     while(!I2C_Open(address));
  2311                           
  2312  05C4  087B               	movf	I2C_Wr@address,w
  2313  05C5  3186  26C5  3185   	fcall	_I2C_Open
  2314  05C8  3A00               	xorlw	0
  2315  05C9  1903               	skipnz
  2316  05CA  2DCC               	goto	u541
  2317  05CB  2DCD               	goto	u540
  2318  05CC                     u541:
  2319  05CC  2DC4               	goto	l2466
  2320  05CD                     u540:
  2321  05CD                     l2468:
  2322                           
  2323                           ;mcc_generated_files/i2c_master.c: 757:     I2C_SetBuffer(&data,1);
  2324  05CD  3001               	movlw	1
  2325  05CE  00F0               	movwf	I2C_SetBuffer@bufferSize
  2326  05CF  3000               	movlw	0
  2327  05D0  00F1               	movwf	I2C_SetBuffer@bufferSize+1
  2328  05D1  307A               	movlw	(low (I2C_Wr@data| 0))& (0+255)
  2329  05D2  3184  24ED  3185   	fcall	_I2C_SetBuffer
  2330  05D5                     l2470:
  2331                           
  2332                           ;mcc_generated_files/i2c_master.c: 758:     I2C_SetAddressNackCallback(((void*)0),((void
      +                          *)0));
  2333  05D5  3000               	movlw	0
  2334  05D6  00F5               	movwf	I2C_SetAddressNackCallback@cb
  2335  05D7  00F6               	movwf	I2C_SetAddressNackCallback@cb+1
  2336  05D8  01F7               	clrf	I2C_SetAddressNackCallback@ptr
  2337  05D9  3184  24E0  3185   	fcall	_I2C_SetAddressNackCallback
  2338  05DC                     l2472:
  2339                           
  2340                           ;mcc_generated_files/i2c_master.c: 759:     I2C_MasterWrite();
  2341  05DC  3184  244E  3185   	fcall	_I2C_MasterWrite
  2342  05DF                     l2474:	
  2343                           ;mcc_generated_files/i2c_master.c: 760:     while(I2C_BUSY == I2C_Close());
  2344                           
  2345  05DF  3185  2548  3185   	fcall	_I2C_Close
  2346  05E2  3A01               	xorlw	1
  2347  05E3  1903               	skipnz
  2348  05E4  2DE6               	goto	u551
  2349  05E5  2DE7               	goto	u550
  2350  05E6                     u551:
  2351  05E6  2DDF               	goto	l2474
  2352  05E7                     u550:
  2353  05E7                     l474:
  2354  05E7  0008               	return
  2355  05E8                     __end_of_I2C_Wr:
  2356                           
  2357                           	psect	text6
  2358  04E0                     __ptext6:	
  2359 ;; *************** function _I2C_SetAddressNackCallback *****************
  2360 ;; Defined at:
  2361 ;;		line 237 in file "mcc_generated_files/i2c_master.c"
  2362 ;; Parameters:    Size  Location     Type
  2363 ;;  cb              2    5[COMMON] PTR FTN(PTR void ,)enum 
  2364 ;;		 -> Absolute function(1), 
  2365 ;;  ptr             1    7[COMMON] PTR void 
  2366 ;;		 -> NULL(0), 
  2367 ;; Auto vars:     Size  Location     Type
  2368 ;;		None
  2369 ;; Return value:  Size  Location     Type
  2370 ;;                  1    wreg      void 
  2371 ;; Registers used:
  2372 ;;		wreg, fsr1l, fsr1h, status,2, status,0, pclath, cstack
  2373 ;; Tracked objects:
  2374 ;;		On entry : 0/0
  2375 ;;		On exit  : 0/0
  2376 ;;		Unchanged: 0/0
  2377 ;; Data sizes:     COMMON   BANK0   BANK1   BANK2   BANK3   BANK4   BANK5   BANK6   BANK7   BANK8   BANK9  BANK10  BANK1
      +1  BANK12
  2378 ;;      Params:         3       0       0       0       0       0       0       0       0       0       0       0       
      +0       0
  2379 ;;      Locals:         0       0       0       0       0       0       0       0       0       0       0       0       
      +0       0
  2380 ;;      Temps:          1       0       0       0       0       0       0       0       0       0       0       0       
      +0       0
  2381 ;;      Totals:         4       0       0       0       0       0       0       0       0       0       0       0       
      +0       0
  2382 ;;Total ram usage:        4 bytes
  2383 ;; Hardware stack levels used: 1
  2384 ;; Hardware stack levels required when called: 1
  2385 ;; This function calls:
  2386 ;;		_I2C_SetCallback
  2387 ;; This function is called by:
  2388 ;;		_I2C_Wr
  2389 ;;		_I2C_Read1ByteRegister
  2390 ;;		_I2C_Read2ByteRegister
  2391 ;;		_I2C_Write1ByteRegister
  2392 ;;		_I2C_Write2ByteRegister
  2393 ;;		_I2C_WriteNBytes
  2394 ;;		_I2C_ReadDataBlock
  2395 ;; This function uses a non-reentrant model
  2396 ;;
  2397                           
  2398  04E0                     _I2C_SetAddressNackCallback:	
  2399                           ;psect for function _I2C_SetAddressNackCallback
  2400                           
  2401  04E0                     l2462:	
  2402                           ;incstack = 0
  2403                           ; Regs used in _I2C_SetAddressNackCallback: [wreg+fsr1l+fsr1h+status,2+status,0+pclath+c
      +                          stack]
  2404                           
  2405                           
  2406                           ;mcc_generated_files/i2c_master.c: 237: void I2C_SetAddressNackCallback(i2c_callback_t c
      +                          b, void *ptr);mcc_generated_files/i2c_master.c: 238: {;mcc_generated_files/i2c_master.c:
      +                           239:     I2C_SetCallback(I2C_ADDR_NACK, cb, ptr);
  2407  04E0  0876               	movf	I2C_SetAddressNackCallback@cb+1,w
  2408  04E1  00F1               	movwf	I2C_SetCallback@cb+1
  2409  04E2  0875               	movf	I2C_SetAddressNackCallback@cb,w
  2410  04E3  00F0               	movwf	I2C_SetCallback@cb
  2411  04E4  0877               	movf	I2C_SetAddressNackCallback@ptr,w
  2412  04E5  00F8               	movwf	??_I2C_SetAddressNackCallback
  2413  04E6  0878               	movf	??_I2C_SetAddressNackCallback,w
  2414  04E7  00F2               	movwf	I2C_SetCallback@ptr
  2415  04E8  3002               	movlw	2
  2416  04E9  3185  25E8  3184   	fcall	_I2C_SetCallback
  2417  04EC                     l193:
  2418  04EC  0008               	return
  2419  04ED                     __end_of_I2C_SetAddressNackCallback:
  2420                           
  2421                           	psect	text7
  2422  06C5                     __ptext7:	
  2423 ;; *************** function _I2C_Open *****************
  2424 ;; Defined at:
  2425 ;;		line 130 in file "mcc_generated_files/i2c_master.c"
  2426 ;; Parameters:    Size  Location     Type
  2427 ;;  address         1    wreg     unsigned char 
  2428 ;; Auto vars:     Size  Location     Type
  2429 ;;  address         1    1[COMMON] unsigned char 
  2430 ;;  returnValue     1    2[COMMON] enum E355
  2431 ;; Return value:  Size  Location     Type
  2432 ;;                  1    wreg      enum E355
  2433 ;; Registers used:
  2434 ;;		wreg, status,2, status,0, pclath, cstack
  2435 ;; Tracked objects:
  2436 ;;		On entry : 0/0
  2437 ;;		On exit  : 0/0
  2438 ;;		Unchanged: 0/0
  2439 ;; Data sizes:     COMMON   BANK0   BANK1   BANK2   BANK3   BANK4   BANK5   BANK6   BANK7   BANK8   BANK9  BANK10  BANK1
      +1  BANK12
  2440 ;;      Params:         0       0       0       0       0       0       0       0       0       0       0       0       
      +0       0
  2441 ;;      Locals:         2       0       0       0       0       0       0       0       0       0       0       0       
      +0       0
  2442 ;;      Temps:          1       0       0       0       0       0       0       0       0       0       0       0       
      +0       0
  2443 ;;      Totals:         3       0       0       0       0       0       0       0       0       0       0       0       
      +0       0
  2444 ;;Total ram usage:        3 bytes
  2445 ;; Hardware stack levels used: 1
  2446 ;; Hardware stack levels required when called: 1
  2447 ;; This function calls:
  2448 ;;		_I2C_MasterClearIrq
  2449 ;;		_I2C_MasterOpen
  2450 ;; This function is called by:
  2451 ;;		_I2C_Wr
  2452 ;;		_I2C_Read1ByteRegister
  2453 ;;		_I2C_Read2ByteRegister
  2454 ;;		_I2C_Write1ByteRegister
  2455 ;;		_I2C_Write2ByteRegister
  2456 ;;		_I2C_WriteNBytes
  2457 ;;		_I2C_ReadNBytes
  2458 ;;		_I2C_ReadDataBlock
  2459 ;;		_I2C_Rd
  2460 ;; This function uses a non-reentrant model
  2461 ;;
  2462                           
  2463  06C5                     _I2C_Open:	
  2464                           ;psect for function _I2C_Open
  2465                           
  2466                           
  2467                           ;incstack = 0
  2468                           ; Regs used in _I2C_Open: [wreg+status,2+status,0+pclath+cstack]
  2469                           ;I2C_Open@address stored from wreg
  2470  06C5  00F1               	movwf	I2C_Open@address
  2471  06C6                     l2408:
  2472                           
  2473                           ;mcc_generated_files/i2c_master.c: 130: i2c_error_t I2C_Open(i2c_address_t address);mcc_
      +                          generated_files/i2c_master.c: 131: {;mcc_generated_files/i2c_master.c: 132:     i2c_erro
      +                          r_t returnValue = I2C_BUSY;
  2474  06C6  01F2               	clrf	I2C_Open@returnValue
  2475  06C7  0AF2               	incf	I2C_Open@returnValue,f
  2476                           
  2477                           ;mcc_generated_files/i2c_master.c: 134:     if(!I2C_Status.inUse)
  2478  06C8  0020               	movlb	0	; select bank0
  2479  06C9  193C               	btfsc	_I2C_Status+28,2
  2480  06CA  2ECC               	goto	u521
  2481  06CB  2ECD               	goto	u520
  2482  06CC                     u521:
  2483  06CC  2EFD               	goto	l160
  2484  06CD                     u520:
  2485  06CD                     l2410:
  2486                           
  2487                           ;mcc_generated_files/i2c_master.c: 135:     {;mcc_generated_files/i2c_master.c: 136:    
      +                               I2C_Status.address = address;
  2488  06CD  0871               	movf	I2C_Open@address,w
  2489  06CE  00F0               	movwf	??_I2C_Open
  2490  06CF  0870               	movf	??_I2C_Open,w
  2491  06D0  00B6               	movwf	_I2C_Status+22
  2492  06D1                     l2412:
  2493                           
  2494                           ;mcc_generated_files/i2c_master.c: 137:         I2C_Status.busy = 0;
  2495  06D1  10BC               	bcf	_I2C_Status+28,1
  2496  06D2                     l2414:
  2497                           
  2498                           ;mcc_generated_files/i2c_master.c: 138:         I2C_Status.inUse = 1;
  2499  06D2  153C               	bsf	_I2C_Status+28,2
  2500  06D3                     l2416:
  2501                           
  2502                           ;mcc_generated_files/i2c_master.c: 139:         I2C_Status.addressNackCheck = 0;
  2503  06D3  103C               	bcf	_I2C_Status+28,0
  2504                           
  2505                           ;mcc_generated_files/i2c_master.c: 140:         I2C_Status.state = I2C_RESET;
  2506  06D4  300E               	movlw	14
  2507  06D5  00F0               	movwf	??_I2C_Open
  2508  06D6  0870               	movf	??_I2C_Open,w
  2509  06D7  00BA               	movwf	_I2C_Status+26
  2510                           
  2511                           ;mcc_generated_files/i2c_master.c: 141:         I2C_Status.time_out_value = 500;
  2512  06D8  30F4               	movlw	244
  2513  06D9  00B4               	movwf	_I2C_Status+20
  2514  06DA  3001               	movlw	1
  2515  06DB  00B5               	movwf	_I2C_Status+21
  2516  06DC                     l2418:
  2517                           
  2518                           ;mcc_generated_files/i2c_master.c: 142:         I2C_Status.bufferFree = 1;
  2519  06DC  15BC               	bsf	_I2C_Status+28,3
  2520                           
  2521                           ;mcc_generated_files/i2c_master.c: 145:         I2C_Status.callbackTable[I2C_DATA_COMPLE
      +                          TE]=I2C_CallbackReturnStop;
  2522  06DD  30F1               	movlw	low _I2C_CallbackReturnStop
  2523  06DE  00A0               	movwf	_I2C_Status
  2524  06DF  3003               	movlw	high _I2C_CallbackReturnStop
  2525  06E0  00A1               	movwf	_I2C_Status+1
  2526  06E1                     l2420:
  2527                           
  2528                           ;mcc_generated_files/i2c_master.c: 146:         I2C_Status.callbackPayload[I2C_DATA_COMP
      +                          LETE] = ((void*)0);
  2529  06E1  01AC               	clrf	low ((_I2C_Status| 0+12))
  2530  06E2                     l2422:
  2531                           
  2532                           ;mcc_generated_files/i2c_master.c: 147:         I2C_Status.callbackTable[I2C_WRITE_COLLI
      +                          SION]=I2C_CallbackReturnStop;
  2533  06E2  30F1               	movlw	low _I2C_CallbackReturnStop
  2534  06E3  00A2               	movwf	low ((_I2C_Status| 0+2))
  2535  06E4  3003               	movlw	high _I2C_CallbackReturnStop
  2536  06E5  00A3               	movwf	(low ((_I2C_Status| 0+2))+1)
  2537                           
  2538                           ;mcc_generated_files/i2c_master.c: 148:         I2C_Status.callbackPayload[I2C_WRITE_COL
      +                          LISION] = ((void*)0);
  2539  06E6  01AD               	clrf	low ((_I2C_Status| 0+13))
  2540  06E7                     l2424:
  2541                           
  2542                           ;mcc_generated_files/i2c_master.c: 149:         I2C_Status.callbackTable[I2C_ADDR_NACK]=
      +                          I2C_CallbackReturnStop;
  2543  06E7  30F1               	movlw	low _I2C_CallbackReturnStop
  2544  06E8  00A4               	movwf	low ((_I2C_Status| 0+4))
  2545  06E9  3003               	movlw	high _I2C_CallbackReturnStop
  2546  06EA  00A5               	movwf	(low ((_I2C_Status| 0+4))+1)
  2547  06EB                     l2426:
  2548                           
  2549                           ;mcc_generated_files/i2c_master.c: 150:         I2C_Status.callbackPayload[I2C_ADDR_NACK
      +                          ] = ((void*)0);
  2550  06EB  01AE               	clrf	low ((_I2C_Status| 0+14))
  2551                           
  2552                           ;mcc_generated_files/i2c_master.c: 151:         I2C_Status.callbackTable[I2C_DATA_NACK]=
      +                          I2C_CallbackReturnStop;
  2553  06EC  30F1               	movlw	low _I2C_CallbackReturnStop
  2554  06ED  00A6               	movwf	low ((_I2C_Status| 0+6))
  2555  06EE  3003               	movlw	high _I2C_CallbackReturnStop
  2556  06EF  00A7               	movwf	(low ((_I2C_Status| 0+6))+1)
  2557  06F0                     l2428:
  2558                           
  2559                           ;mcc_generated_files/i2c_master.c: 152:         I2C_Status.callbackPayload[I2C_DATA_NACK
      +                          ] = ((void*)0);
  2560  06F0  01AF               	clrf	low ((_I2C_Status| 0+15))
  2561  06F1                     l2430:
  2562                           
  2563                           ;mcc_generated_files/i2c_master.c: 153:         I2C_Status.callbackTable[I2C_TIMEOUT]=I2
      +                          C_CallbackReturnReset;
  2564  06F1  30F3               	movlw	low _I2C_CallbackReturnReset
  2565  06F2  00A8               	movwf	low ((_I2C_Status| 0+8))
  2566  06F3  3003               	movlw	high _I2C_CallbackReturnReset
  2567  06F4  00A9               	movwf	(low ((_I2C_Status| 0+8))+1)
  2568                           
  2569                           ;mcc_generated_files/i2c_master.c: 154:         I2C_Status.callbackPayload[I2C_TIMEOUT] 
      +                          = ((void*)0);
  2570  06F5  01B0               	clrf	low ((_I2C_Status| 0+16))
  2571  06F6                     l2432:
  2572                           
  2573                           ;mcc_generated_files/i2c_master.c: 156:         I2C_MasterClearIrq();
  2574  06F6  3183  23F5  3186   	fcall	_I2C_MasterClearIrq
  2575  06F9                     l2434:
  2576                           
  2577                           ;mcc_generated_files/i2c_master.c: 157:         I2C_MasterOpen();
  2578  06F9  3184  24D3  3186   	fcall	_I2C_MasterOpen
  2579  06FC                     l2436:
  2580                           
  2581                           ;mcc_generated_files/i2c_master.c: 158:         returnValue = I2C_NOERR;
  2582  06FC  01F2               	clrf	I2C_Open@returnValue
  2583  06FD                     l160:	
  2584                           ;mcc_generated_files/i2c_master.c: 159:     }
  2585                           
  2586                           
  2587                           ;mcc_generated_files/i2c_master.c: 160:     return returnValue;
  2588  06FD  0872               	movf	I2C_Open@returnValue,w
  2589  06FE                     l161:
  2590  06FE  0008               	return
  2591  06FF                     __end_of_I2C_Open:
  2592                           
  2593                           	psect	text8
  2594  04D3                     __ptext8:	
  2595 ;; *************** function _I2C_MasterOpen *****************
  2596 ;; Defined at:
  2597 ;;		line 497 in file "mcc_generated_files/i2c_master.c"
  2598 ;; Parameters:    Size  Location     Type
  2599 ;;		None
  2600 ;; Auto vars:     Size  Location     Type
  2601 ;;		None
  2602 ;; Return value:  Size  Location     Type
  2603 ;;                  1    wreg      _Bool 
  2604 ;; Registers used:
  2605 ;;		wreg, status,2
  2606 ;; Tracked objects:
  2607 ;;		On entry : 0/0
  2608 ;;		On exit  : 0/0
  2609 ;;		Unchanged: 0/0
  2610 ;; Data sizes:     COMMON   BANK0   BANK1   BANK2   BANK3   BANK4   BANK5   BANK6   BANK7   BANK8   BANK9  BANK10  BANK1
      +1  BANK12
  2611 ;;      Params:         0       0       0       0       0       0       0       0       0       0       0       0       
      +0       0
  2612 ;;      Locals:         0       0       0       0       0       0       0       0       0       0       0       0       
      +0       0
  2613 ;;      Temps:          0       0       0       0       0       0       0       0       0       0       0       0       
      +0       0
  2614 ;;      Totals:         0       0       0       0       0       0       0       0       0       0       0       0       
      +0       0
  2615 ;;Total ram usage:        0 bytes
  2616 ;; Hardware stack levels used: 1
  2617 ;; This function calls:
  2618 ;;		Nothing
  2619 ;; This function is called by:
  2620 ;;		_I2C_Open
  2621 ;; This function uses a non-reentrant model
  2622 ;;
  2623                           
  2624  04D3                     _I2C_MasterOpen:	
  2625                           ;psect for function _I2C_MasterOpen
  2626                           
  2627  04D3                     l2372:	
  2628                           ;incstack = 0
  2629                           ; Regs used in _I2C_MasterOpen: [wreg+status,2]
  2630                           
  2631                           
  2632                           ;mcc_generated_files/i2c_master.c: 499:     if(!SSPCON1bits.SSPEN)
  2633  04D3  0024               	movlb	4	; select bank4
  2634  04D4  1A95               	btfsc	21,5	;volatile
  2635  04D5  2CD7               	goto	u491
  2636  04D6  2CD8               	goto	u490
  2637  04D7                     u491:
  2638  04D7  2CDF               	goto	l326
  2639  04D8                     u490:
  2640  04D8                     l2374:
  2641                           
  2642                           ;mcc_generated_files/i2c_master.c: 500:     {;mcc_generated_files/i2c_master.c: 501:    
      +                               SSPSTAT = 0x00;
  2643  04D8  0194               	clrf	20	;volatile
  2644  04D9                     l2376:
  2645                           
  2646                           ;mcc_generated_files/i2c_master.c: 502:         SSPCON1 = 0x08;
  2647  04D9  3008               	movlw	8
  2648  04DA  0095               	movwf	21	;volatile
  2649  04DB                     l2378:
  2650                           
  2651                           ;mcc_generated_files/i2c_master.c: 503:         SSPCON2 = 0x00;
  2652  04DB  0196               	clrf	22	;volatile
  2653                           
  2654                           ;mcc_generated_files/i2c_master.c: 504:         SSPADD = 0x4F;
  2655  04DC  304F               	movlw	79
  2656  04DD  0092               	movwf	18	;volatile
  2657  04DE                     l2380:
  2658                           
  2659                           ;mcc_generated_files/i2c_master.c: 505:         SSPCON1bits.SSPEN = 1;
  2660  04DE  1695               	bsf	21,5	;volatile
  2661  04DF                     l326:
  2662  04DF  0008               	return
  2663  04E0                     __end_of_I2C_MasterOpen:
  2664                           
  2665                           	psect	text9
  2666  044E                     __ptext9:	
  2667 ;; *************** function _I2C_MasterWrite *****************
  2668 ;; Defined at:
  2669 ;;		line 205 in file "mcc_generated_files/i2c_master.c"
  2670 ;; Parameters:    Size  Location     Type
  2671 ;;		None
  2672 ;; Auto vars:     Size  Location     Type
  2673 ;;		None
  2674 ;; Return value:  Size  Location     Type
  2675 ;;                  1    wreg      enum E355
  2676 ;; Registers used:
  2677 ;;		wreg, fsr0l, fsr0h, fsr1l, fsr1h, status,2, status,0, pclath, cstack
  2678 ;; Tracked objects:
  2679 ;;		On entry : 0/0
  2680 ;;		On exit  : 0/0
  2681 ;;		Unchanged: 0/0
  2682 ;; Data sizes:     COMMON   BANK0   BANK1   BANK2   BANK3   BANK4   BANK5   BANK6   BANK7   BANK8   BANK9  BANK10  BANK1
      +1  BANK12
  2683 ;;      Params:         0       0       0       0       0       0       0       0       0       0       0       0       
      +0       0
  2684 ;;      Locals:         0       0       0       0       0       0       0       0       0       0       0       0       
      +0       0
  2685 ;;      Temps:          0       0       0       0       0       0       0       0       0       0       0       0       
      +0       0
  2686 ;;      Totals:         0       0       0       0       0       0       0       0       0       0       0       0       
      +0       0
  2687 ;;Total ram usage:        0 bytes
  2688 ;; Hardware stack levels used: 1
  2689 ;; Hardware stack levels required when called: 7
  2690 ;; This function calls:
  2691 ;;		_I2C_MasterOperation
  2692 ;; This function is called by:
  2693 ;;		_I2C_Wr
  2694 ;;		_I2C_Read1ByteRegister
  2695 ;;		_I2C_Read2ByteRegister
  2696 ;;		_I2C_Write1ByteRegister
  2697 ;;		_I2C_Write2ByteRegister
  2698 ;;		_I2C_WriteNBytes
  2699 ;;		_I2C_ReadDataBlock
  2700 ;; This function uses a non-reentrant model
  2701 ;;
  2702                           
  2703  044E                     _I2C_MasterWrite:	
  2704                           ;psect for function _I2C_MasterWrite
  2705                           
  2706  044E                     l2458:	
  2707                           ;incstack = 0
  2708                           ; Regs used in _I2C_MasterWrite: [wreg-fsr1h+status,2+status,0+pclath+cstack]
  2709                           
  2710                           
  2711                           ;mcc_generated_files/i2c_master.c: 207:     return I2C_MasterOperation(0);;	Return value
      +                           of _I2C_MasterWrite is never used
  2712  044E  3000               	movlw	0
  2713  044F  3185  2564  3184   	fcall	_I2C_MasterOperation
  2714  0452                     l177:
  2715  0452  0008               	return
  2716  0453                     __end_of_I2C_MasterWrite:
  2717                           
  2718                           	psect	text10
  2719  0564                     __ptext10:	
  2720 ;; *************** function _I2C_MasterOperation *****************
  2721 ;; Defined at:
  2722 ;;		line 178 in file "mcc_generated_files/i2c_master.c"
  2723 ;; Parameters:    Size  Location     Type
  2724 ;;  read            1    wreg     _Bool 
  2725 ;; Auto vars:     Size  Location     Type
  2726 ;;  read            1    8[COMMON] _Bool 
  2727 ;;  returnValue     1    9[COMMON] enum E355
  2728 ;; Return value:  Size  Location     Type
  2729 ;;                  1    wreg      enum E355
  2730 ;; Registers used:
  2731 ;;		wreg, fsr0l, fsr0h, fsr1l, fsr1h, status,2, status,0, pclath, cstack
  2732 ;; Tracked objects:
  2733 ;;		On entry : 0/0
  2734 ;;		On exit  : 0/0
  2735 ;;		Unchanged: 0/0
  2736 ;; Data sizes:     COMMON   BANK0   BANK1   BANK2   BANK3   BANK4   BANK5   BANK6   BANK7   BANK8   BANK9  BANK10  BANK1
      +1  BANK12
  2737 ;;      Params:         0       0       0       0       0       0       0       0       0       0       0       0       
      +0       0
  2738 ;;      Locals:         2       0       0       0       0       0       0       0       0       0       0       0       
      +0       0
  2739 ;;      Temps:          1       0       0       0       0       0       0       0       0       0       0       0       
      +0       0
  2740 ;;      Totals:         3       0       0       0       0       0       0       0       0       0       0       0       
      +0       0
  2741 ;;Total ram usage:        3 bytes
  2742 ;; Hardware stack levels used: 1
  2743 ;; Hardware stack levels required when called: 6
  2744 ;; This function calls:
  2745 ;;		_I2C_MasterStart
  2746 ;;		_I2C_Poller
  2747 ;; This function is called by:
  2748 ;;		_I2C_MasterWrite
  2749 ;;		_I2C_MasterRead
  2750 ;; This function uses a non-reentrant model
  2751 ;;
  2752                           
  2753  0564                     _I2C_MasterOperation:	
  2754                           ;psect for function _I2C_MasterOperation
  2755                           
  2756                           
  2757                           ;incstack = 0
  2758                           ; Regs used in _I2C_MasterOperation: [wreg-fsr1h+status,2+status,0+pclath+cstack]
  2759                           ;I2C_MasterOperation@read stored from wreg
  2760  0564  00F8               	movwf	I2C_MasterOperation@read
  2761  0565                     l2388:
  2762                           
  2763                           ;mcc_generated_files/i2c_master.c: 178: i2c_error_t I2C_MasterOperation(_Bool read);mcc_
      +                          generated_files/i2c_master.c: 179: {;mcc_generated_files/i2c_master.c: 180:     i2c_erro
      +                          r_t returnValue = I2C_BUSY;
  2764  0565  01F9               	clrf	I2C_MasterOperation@returnValue
  2765  0566  0AF9               	incf	I2C_MasterOperation@returnValue,f
  2766                           
  2767                           ;mcc_generated_files/i2c_master.c: 181:     if(!I2C_Status.busy)
  2768  0567  0020               	movlb	0	; select bank0
  2769  0568  18BC               	btfsc	_I2C_Status+28,1
  2770  0569  2D6B               	goto	u501
  2771  056A  2D6C               	goto	u500
  2772  056B                     u501:
  2773  056B  2D80               	goto	l2404
  2774  056C                     u500:
  2775  056C                     l2390:
  2776                           
  2777                           ;mcc_generated_files/i2c_master.c: 182:     {;mcc_generated_files/i2c_master.c: 183:    
      +                               I2C_Status.busy = 1;
  2778  056C  14BC               	bsf	_I2C_Status+28,1
  2779  056D                     l2392:
  2780                           
  2781                           ;mcc_generated_files/i2c_master.c: 184:         returnValue = I2C_NOERR;
  2782  056D  01F9               	clrf	I2C_MasterOperation@returnValue
  2783  056E                     l2394:
  2784                           
  2785                           ;mcc_generated_files/i2c_master.c: 186:         if(read)
  2786  056E  0878               	movf	I2C_MasterOperation@read,w
  2787  056F  1903               	btfsc	3,2
  2788  0570  2D72               	goto	u511
  2789  0571  2D73               	goto	u510
  2790  0572                     u511:
  2791  0572  2D76               	goto	l2398
  2792  0573                     u510:
  2793  0573                     l2396:
  2794                           
  2795                           ;mcc_generated_files/i2c_master.c: 187:         {;mcc_generated_files/i2c_master.c: 188:
      +                                       I2C_Status.state = I2C_SEND_ADR_READ;
  2796  0573  01BA               	clrf	_I2C_Status+26
  2797  0574  0ABA               	incf	_I2C_Status+26,f
  2798                           
  2799                           ;mcc_generated_files/i2c_master.c: 189:         }
  2800  0575  2D7A               	goto	l2400
  2801  0576                     l2398:
  2802                           
  2803                           ;mcc_generated_files/i2c_master.c: 191:         {;mcc_generated_files/i2c_master.c: 192:
      +                                       I2C_Status.state = I2C_SEND_ADR_WRITE;
  2804  0576  3002               	movlw	2
  2805  0577  00F7               	movwf	??_I2C_MasterOperation
  2806  0578  0877               	movf	??_I2C_MasterOperation,w
  2807  0579  00BA               	movwf	_I2C_Status+26
  2808  057A                     l2400:
  2809                           
  2810                           ;mcc_generated_files/i2c_master.c: 194:         I2C_MasterStart();
  2811  057A  3183  23FE  3185   	fcall	_I2C_MasterStart
  2812  057D                     l2402:
  2813                           
  2814                           ;mcc_generated_files/i2c_master.c: 195:         I2C_Poller();
  2815  057D  3184  24C6  3185   	fcall	_I2C_Poller
  2816  0580                     l2404:
  2817                           
  2818                           ;mcc_generated_files/i2c_master.c: 197:     return returnValue;
  2819  0580  0879               	movf	I2C_MasterOperation@returnValue,w
  2820  0581                     l171:
  2821  0581  0008               	return
  2822  0582                     __end_of_I2C_MasterOperation:
  2823                           
  2824                           	psect	text11
  2825  04C6                     __ptext11:	
  2826 ;; *************** function _I2C_Poller *****************
  2827 ;; Defined at:
  2828 ;;		line 266 in file "mcc_generated_files/i2c_master.c"
  2829 ;; Parameters:    Size  Location     Type
  2830 ;;		None
  2831 ;; Auto vars:     Size  Location     Type
  2832 ;;		None
  2833 ;; Return value:  Size  Location     Type
  2834 ;;                  1    wreg      void 
  2835 ;; Registers used:
  2836 ;;		wreg, fsr0l, fsr0h, fsr1l, fsr1h, status,2, status,0, pclath, cstack
  2837 ;; Tracked objects:
  2838 ;;		On entry : 0/0
  2839 ;;		On exit  : 0/0
  2840 ;;		Unchanged: 0/0
  2841 ;; Data sizes:     COMMON   BANK0   BANK1   BANK2   BANK3   BANK4   BANK5   BANK6   BANK7   BANK8   BANK9  BANK10  BANK1
      +1  BANK12
  2842 ;;      Params:         0       0       0       0       0       0       0       0       0       0       0       0       
      +0       0
  2843 ;;      Locals:         0       0       0       0       0       0       0       0       0       0       0       0       
      +0       0
  2844 ;;      Temps:          0       0       0       0       0       0       0       0       0       0       0       0       
      +0       0
  2845 ;;      Totals:         0       0       0       0       0       0       0       0       0       0       0       0       
      +0       0
  2846 ;;Total ram usage:        0 bytes
  2847 ;; Hardware stack levels used: 1
  2848 ;; Hardware stack levels required when called: 5
  2849 ;; This function calls:
  2850 ;;		_I2C_MasterFsm
  2851 ;;		_I2C_MasterWaitForEvent
  2852 ;; This function is called by:
  2853 ;;		_I2C_MasterOperation
  2854 ;; This function uses a non-reentrant model
  2855 ;;
  2856                           
  2857  04C6                     _I2C_Poller:	
  2858                           ;psect for function _I2C_Poller
  2859                           
  2860  04C6                     l2364:	
  2861                           ;incstack = 0
  2862                           ; Regs used in _I2C_Poller: [wreg-fsr1h+status,2+status,0+pclath+cstack]
  2863                           
  2864                           
  2865                           ;mcc_generated_files/i2c_master.c: 268:     while(I2C_Status.busy)
  2866  04C6  2CCD               	goto	l2370
  2867  04C7                     l2366:
  2868                           
  2869                           ;mcc_generated_files/i2c_master.c: 269:     {;mcc_generated_files/i2c_master.c: 270:    
      +                               I2C_MasterWaitForEvent();
  2870  04C7  3184  245E  3184   	fcall	_I2C_MasterWaitForEvent
  2871  04CA                     l2368:
  2872                           
  2873                           ;mcc_generated_files/i2c_master.c: 271:         I2C_MasterFsm();
  2874  04CA  3186  260E  3184   	fcall	_I2C_MasterFsm
  2875  04CD                     l2370:
  2876                           
  2877                           ;mcc_generated_files/i2c_master.c: 268:     while(I2C_Status.busy)
  2878  04CD  0020               	movlb	0	; select bank0
  2879  04CE  18BC               	btfsc	_I2C_Status+28,1
  2880  04CF  2CD1               	goto	u481
  2881  04D0  2CD2               	goto	u480
  2882  04D1                     u481:
  2883  04D1  2CC7               	goto	l2366
  2884  04D2                     u480:
  2885  04D2                     l210:
  2886  04D2  0008               	return
  2887  04D3                     __end_of_I2C_Poller:
  2888                           
  2889                           	psect	text12
  2890  045E                     __ptext12:	
  2891 ;; *************** function _I2C_MasterWaitForEvent *****************
  2892 ;; Defined at:
  2893 ;;		line 604 in file "mcc_generated_files/i2c_master.c"
  2894 ;; Parameters:    Size  Location     Type
  2895 ;;		None
  2896 ;; Auto vars:     Size  Location     Type
  2897 ;;		None
  2898 ;; Return value:  Size  Location     Type
  2899 ;;                  1    wreg      void 
  2900 ;; Registers used:
  2901 ;;		None
  2902 ;; Tracked objects:
  2903 ;;		On entry : 0/0
  2904 ;;		On exit  : 0/0
  2905 ;;		Unchanged: 0/0
  2906 ;; Data sizes:     COMMON   BANK0   BANK1   BANK2   BANK3   BANK4   BANK5   BANK6   BANK7   BANK8   BANK9  BANK10  BANK1
      +1  BANK12
  2907 ;;      Params:         0       0       0       0       0       0       0       0       0       0       0       0       
      +0       0
  2908 ;;      Locals:         0       0       0       0       0       0       0       0       0       0       0       0       
      +0       0
  2909 ;;      Temps:          0       0       0       0       0       0       0       0       0       0       0       0       
      +0       0
  2910 ;;      Totals:         0       0       0       0       0       0       0       0       0       0       0       0       
      +0       0
  2911 ;;Total ram usage:        0 bytes
  2912 ;; Hardware stack levels used: 1
  2913 ;; This function calls:
  2914 ;;		Nothing
  2915 ;; This function is called by:
  2916 ;;		_I2C_Poller
  2917 ;; This function uses a non-reentrant model
  2918 ;;
  2919                           
  2920  045E                     _I2C_MasterWaitForEvent:	
  2921                           ;psect for function _I2C_MasterWaitForEvent
  2922                           
  2923  045E                     l383:	
  2924                           ;incstack = 0
  2925                           ; Regs used in _I2C_MasterWaitForEvent: []
  2926                           ;mcc_generated_files/i2c_master.c: 606:     while(1)
  2927                           
  2928                           
  2929                           ;mcc_generated_files/i2c_master.c: 607:     {;mcc_generated_files/i2c_master.c: 608:    
      +                               if(PIR1bits.SSPIF)
  2930  045E  0020               	movlb	0	; select bank0
  2931  045F  1D91               	btfss	17,3	;volatile
  2932  0460  2C62               	goto	u451
  2933  0461  2C63               	goto	u450
  2934  0462                     u451:
  2935  0462  2C5E               	goto	l383
  2936  0463                     u450:
  2937  0463                     l387:
  2938  0463  0008               	return
  2939  0464                     __end_of_I2C_MasterWaitForEvent:
  2940                           
  2941                           	psect	text13
  2942  060E                     __ptext13:	
  2943 ;; *************** function _I2C_MasterFsm *****************
  2944 ;; Defined at:
  2945 ;;		line 275 in file "mcc_generated_files/i2c_master.c"
  2946 ;; Parameters:    Size  Location     Type
  2947 ;;		None
  2948 ;; Auto vars:     Size  Location     Type
  2949 ;;		None
  2950 ;; Return value:  Size  Location     Type
  2951 ;;                  1    wreg      void 
  2952 ;; Registers used:
  2953 ;;		wreg, fsr0l, fsr0h, fsr1l, fsr1h, status,2, status,0, pclath, cstack
  2954 ;; Tracked objects:
  2955 ;;		On entry : 0/0
  2956 ;;		On exit  : 0/0
  2957 ;;		Unchanged: 0/0
  2958 ;; Data sizes:     COMMON   BANK0   BANK1   BANK2   BANK3   BANK4   BANK5   BANK6   BANK7   BANK8   BANK9  BANK10  BANK1
      +1  BANK12
  2959 ;;      Params:         0       0       0       0       0       0       0       0       0       0       0       0       
      +0       0
  2960 ;;      Locals:         0       0       0       0       0       0       0       0       0       0       0       0       
      +0       0
  2961 ;;      Temps:          3       0       0       0       0       0       0       0       0       0       0       0       
      +0       0
  2962 ;;      Totals:         3       0       0       0       0       0       0       0       0       0       0       0       
      +0       0
  2963 ;;Total ram usage:        3 bytes
  2964 ;; Hardware stack levels used: 1
  2965 ;; Hardware stack levels required when called: 4
  2966 ;; This function calls:
  2967 ;;		_I2C_DO_ADDRESS_NACK
  2968 ;;		_I2C_DO_IDLE
  2969 ;;		_I2C_DO_RCEN
  2970 ;;		_I2C_DO_RESET
  2971 ;;		_I2C_DO_RX
  2972 ;;		_I2C_DO_RX_ACK
  2973 ;;		_I2C_DO_RX_NACK_RESTART
  2974 ;;		_I2C_DO_RX_NACK_STOP
  2975 ;;		_I2C_DO_SEND_ADR_READ
  2976 ;;		_I2C_DO_SEND_ADR_WRITE
  2977 ;;		_I2C_DO_SEND_RESTART
  2978 ;;		_I2C_DO_SEND_RESTART_READ
  2979 ;;		_I2C_DO_SEND_RESTART_WRITE
  2980 ;;		_I2C_DO_SEND_STOP
  2981 ;;		_I2C_DO_TX
  2982 ;;		_I2C_DO_TX_EMPTY
  2983 ;;		_I2C_MasterClearIrq
  2984 ;;		_I2C_MasterIsNack
  2985 ;; This function is called by:
  2986 ;;		_I2C_Poller
  2987 ;; This function uses a non-reentrant model
  2988 ;;
  2989                           
  2990  060E                     _I2C_MasterFsm:	
  2991                           ;psect for function _I2C_MasterFsm
  2992                           
  2993  060E                     l2352:	
  2994                           ;incstack = 0
  2995                           ; Regs used in _I2C_MasterFsm: [wreg-fsr1h+status,2+status,0+pclath+cstack]
  2996                           
  2997                           
  2998                           ;mcc_generated_files/i2c_master.c: 277:     I2C_MasterClearIrq();
  2999  060E  3183  23F5  3186   	fcall	_I2C_MasterClearIrq
  3000  0611                     l2354:
  3001                           
  3002                           ;mcc_generated_files/i2c_master.c: 279:     if(I2C_Status.addressNackCheck && I2C_Master
      +                          IsNack())
  3003  0611  0020               	movlb	0	; select bank0
  3004  0612  1C3C               	btfss	_I2C_Status+28,0
  3005  0613  2E15               	goto	u461
  3006  0614  2E16               	goto	u460
  3007  0615                     u461:
  3008  0615  2E23               	goto	l2360
  3009  0616                     u460:
  3010  0616                     l2356:
  3011  0616  3184  2458  3186   	fcall	_I2C_MasterIsNack
  3012  0619  3A00               	xorlw	0
  3013  061A  1903               	skipnz
  3014  061B  2E1D               	goto	u471
  3015  061C  2E1E               	goto	u470
  3016  061D                     u471:
  3017  061D  2E23               	goto	l2360
  3018  061E                     u470:
  3019  061E                     l2358:
  3020                           
  3021                           ;mcc_generated_files/i2c_master.c: 280:     {;mcc_generated_files/i2c_master.c: 281:    
      +                               I2C_Status.state = I2C_ADDRESS_NACK;
  3022  061E  300F               	movlw	15
  3023  061F  00F4               	movwf	??_I2C_MasterFsm
  3024  0620  0874               	movf	??_I2C_MasterFsm,w
  3025  0621  0020               	movlb	0	; select bank0
  3026  0622  00BA               	movwf	_I2C_Status+26
  3027  0623                     l2360:
  3028                           
  3029                           ;mcc_generated_files/i2c_master.c: 283:     I2C_Status.state = i2c_fsmStateTable[I2C_Sta
      +                          tus.state]();
  3030  0623  0020               	movlb	0	; select bank0
  3031  0624  083A               	movf	_I2C_Status+26,w
  3032  0625  00F4               	movwf	??_I2C_MasterFsm
  3033  0626  01F5               	clrf	??_I2C_MasterFsm+1
  3034  0627  35F4               	lslf	??_I2C_MasterFsm,f
  3035  0628  0DF5               	rlf	??_I2C_MasterFsm+1,f
  3036  0629  3000               	movlw	low (_i2c_fsmStateTable| (0+32768))
  3037  062A  0774               	addwf	??_I2C_MasterFsm,w
  3038  062B  0084               	movwf	4
  3039  062C  3088               	movlw	high (_i2c_fsmStateTable| (0+32768))
  3040  062D  3D75               	addwfc	??_I2C_MasterFsm+1,w
  3041  062E  0085               	movwf	5
  3042  062F  3F01               	moviw [1]fsr0
  3043  0630  008A               	movwf	10
  3044  0631  3F00               	moviw [0]fsr0
  3045  0632  000A               	callw
  3046  0633  3186               	pagesel	$
  3047  0634  00F6               	movwf	??_I2C_MasterFsm+2
  3048  0635  0876               	movf	??_I2C_MasterFsm+2,w
  3049  0636  0020               	movlb	0	; select bank0
  3050  0637  00BA               	movwf	_I2C_Status+26
  3051  0638                     l214:
  3052  0638  0008               	return
  3053  0639                     __end_of_I2C_MasterFsm:
  3054                           
  3055                           	psect	text14
  3056  0639                     __ptext14:	
  3057 ;; *************** function _I2C_DO_ADDRESS_NACK *****************
  3058 ;; Defined at:
  3059 ;;		line 454 in file "mcc_generated_files/i2c_master.c"
  3060 ;; Parameters:    Size  Location     Type
  3061 ;;		None
  3062 ;; Auto vars:     Size  Location     Type
  3063 ;;		None
  3064 ;; Return value:  Size  Location     Type
  3065 ;;                  1    wreg      enum E3373
  3066 ;; Registers used:
  3067 ;;		wreg, fsr0l, fsr0h, fsr1l, fsr1h, status,2, status,0, pclath, cstack
  3068 ;; Tracked objects:
  3069 ;;		On entry : 0/0
  3070 ;;		On exit  : 0/0
  3071 ;;		Unchanged: 0/0
  3072 ;; Data sizes:     COMMON   BANK0   BANK1   BANK2   BANK3   BANK4   BANK5   BANK6   BANK7   BANK8   BANK9  BANK10  BANK1
      +1  BANK12
  3073 ;;      Params:         0       0       0       0       0       0       0       0       0       0       0       0       
      +0       0
  3074 ;;      Locals:         0       0       0       0       0       0       0       0       0       0       0       0       
      +0       0
  3075 ;;      Temps:          3       0       0       0       0       0       0       0       0       0       0       0       
      +0       0
  3076 ;;      Totals:         3       0       0       0       0       0       0       0       0       0       0       0       
      +0       0
  3077 ;;Total ram usage:        3 bytes
  3078 ;; Hardware stack levels used: 1
  3079 ;; Hardware stack levels required when called: 3
  3080 ;; This function calls:
  3081 ;;		Absolute function
  3082 ;;		_I2C_CallbackReturnReset
  3083 ;;		_I2C_CallbackReturnStop
  3084 ;;		_I2C_DO_SEND_RESTART
  3085 ;;		_I2C_DO_SEND_STOP
  3086 ;;		_rd1RegCompleteHandler
  3087 ;;		_rdBlkRegCompleteHandler
  3088 ;;		_wr1RegCompleteHandler
  3089 ;;		_wr2RegCompleteHandler
  3090 ;; This function is called by:
  3091 ;;		_I2C_MasterFsm
  3092 ;; This function uses a non-reentrant model
  3093 ;;
  3094                           
  3095  0639                     _I2C_DO_ADDRESS_NACK:	
  3096                           ;psect for function _I2C_DO_ADDRESS_NACK
  3097                           
  3098  0639                     l2330:	
  3099                           ;incstack = 0
  3100                           ; Regs used in _I2C_DO_ADDRESS_NACK: [wreg-fsr1h+status,2+status,0+pclath+cstack]
  3101                           
  3102                           
  3103                           ;mcc_generated_files/i2c_master.c: 456:     I2C_Status.addressNackCheck = 0;
  3104  0639  0020               	movlb	0	; select bank0
  3105  063A  103C               	bcf	_I2C_Status+28,0
  3106  063B                     l2332:
  3107                           
  3108                           ;mcc_generated_files/i2c_master.c: 457:     I2C_Status.error = I2C_FAIL;
  3109  063B  3002               	movlw	2
  3110  063C  00F0               	movwf	??_I2C_DO_ADDRESS_NACK
  3111  063D  0870               	movf	??_I2C_DO_ADDRESS_NACK,w
  3112  063E  00BB               	movwf	_I2C_Status+27
  3113                           
  3114                           ;mcc_generated_files/i2c_master.c: 458:     switch(I2C_Status.callbackTable[I2C_ADDR_NAC
      +                          K](I2C_Status.callbackPayload[I2C_ADDR_NACK]))
  3115  063F  2E48               	goto	l2344
  3116  0640                     l2334:
  3117                           
  3118                           ;mcc_generated_files/i2c_master.c: 462:             return I2C_DO_SEND_RESTART();
  3119  0640  3184  2430  3186   	fcall	_I2C_DO_SEND_RESTART
  3120  0643  2E64               	goto	l305
  3121  0644                     l2338:
  3122                           
  3123                           ;mcc_generated_files/i2c_master.c: 464:             return I2C_DO_SEND_STOP();
  3124  0644  3184  2435  3186   	fcall	_I2C_DO_SEND_STOP
  3125  0647  2E64               	goto	l305
  3126  0648                     l2344:
  3127  0648  082E               	movf	low ((_I2C_Status| 0+14)),w
  3128  0649  00F0               	movwf	??_I2C_DO_ADDRESS_NACK
  3129  064A  0870               	movf	??_I2C_DO_ADDRESS_NACK,w
  3130  064B  00F9               	movwf	rdBlkRegCompleteHandler@ptr
  3131  064C  3004               	movlw	4
  3132  064D  3E20               	addlw	(low (_I2C_Status| 0))& (0+255)
  3133  064E  0086               	movwf	6
  3134  064F  0187               	clrf	7
  3135  0650  3F41               	moviw [1]fsr1
  3136  0651  008A               	movwf	10
  3137  0652  3F40               	moviw [0]fsr1
  3138  0653  000A               	callw
  3139  0654  3186               	pagesel	$
  3140  0655  00F1               	movwf	??_I2C_DO_ADDRESS_NACK+1
  3141  0656  01F2               	clrf	??_I2C_DO_ADDRESS_NACK+2
  3142                           
  3143                           ; Switch on 2 bytes has been partitioned into a top level switch of size 1, and 1 sub-sw
      +                          itches
  3144                           ; Switch size 1, requested type "simple"
  3145                           ; Number of cases is 1, Range of values is 0 to 0
  3146                           ; switch strategies available:
  3147                           ; Name         Instructions Cycles
  3148                           ; simple_byte            4     3 (average)
  3149                           ; direct_byte            8     6 (fixed)
  3150                           ; jumptable            260     6 (fixed)
  3151                           ;	Chosen strategy is simple_byte
  3152  0657  0872               	movf	??_I2C_DO_ADDRESS_NACK+2,w
  3153  0658  3A00               	xorlw	0	; case 0
  3154  0659  1903               	skipnz
  3155  065A  2E5C               	goto	l2894
  3156  065B  2E44               	goto	l2338
  3157  065C                     l2894:
  3158                           
  3159                           ; Switch size 1, requested type "simple"
  3160                           ; Number of cases is 2, Range of values is 2 to 3
  3161                           ; switch strategies available:
  3162                           ; Name         Instructions Cycles
  3163                           ; simple_byte            7     4 (average)
  3164                           ; direct_byte           13     9 (fixed)
  3165                           ; jumptable            263     9 (fixed)
  3166                           ;	Chosen strategy is simple_byte
  3167  065C  0871               	movf	??_I2C_DO_ADDRESS_NACK+1,w
  3168  065D  3A02               	xorlw	2	; case 2
  3169  065E  1903               	skipnz
  3170  065F  2E40               	goto	l2334
  3171  0660  3A01               	xorlw	1	; case 3
  3172  0661  1903               	skipnz
  3173  0662  2E40               	goto	l2334
  3174  0663  2E44               	goto	l2338
  3175  0664                     l305:
  3176  0664  0008               	return
  3177  0665                     __end_of_I2C_DO_ADDRESS_NACK:
  3178                           
  3179                           	psect	text15
  3180  0449                     __ptext15:	
  3181 ;; *************** function _I2C_DO_RESET *****************
  3182 ;; Defined at:
  3183 ;;		line 448 in file "mcc_generated_files/i2c_master.c"
  3184 ;; Parameters:    Size  Location     Type
  3185 ;;		None
  3186 ;; Auto vars:     Size  Location     Type
  3187 ;;		None
  3188 ;; Return value:  Size  Location     Type
  3189 ;;                  1    wreg      enum E3373
  3190 ;; Registers used:
  3191 ;;		wreg, status,2
  3192 ;; Tracked objects:
  3193 ;;		On entry : 0/0
  3194 ;;		On exit  : 0/0
  3195 ;;		Unchanged: 0/0
  3196 ;; Data sizes:     COMMON   BANK0   BANK1   BANK2   BANK3   BANK4   BANK5   BANK6   BANK7   BANK8   BANK9  BANK10  BANK1
      +1  BANK12
  3197 ;;      Params:         0       0       0       0       0       0       0       0       0       0       0       0       
      +0       0
  3198 ;;      Locals:         0       0       0       0       0       0       0       0       0       0       0       0       
      +0       0
  3199 ;;      Temps:          0       0       0       0       0       0       0       0       0       0       0       0       
      +0       0
  3200 ;;      Totals:         0       0       0       0       0       0       0       0       0       0       0       0       
      +0       0
  3201 ;;Total ram usage:        0 bytes
  3202 ;; Hardware stack levels used: 1
  3203 ;; This function calls:
  3204 ;;		Nothing
  3205 ;; This function is called by:
  3206 ;;		_I2C_MasterFsm
  3207 ;; This function uses a non-reentrant model
  3208 ;;
  3209                           
  3210  0449                     _I2C_DO_RESET:	
  3211                           ;psect for function _I2C_DO_RESET
  3212                           
  3213  0449                     l2322:	
  3214                           ;incstack = 0
  3215                           ; Regs used in _I2C_DO_RESET: [wreg+status,2]
  3216                           
  3217                           
  3218                           ;mcc_generated_files/i2c_master.c: 450:     I2C_Status.busy = 0;
  3219  0449  0020               	movlb	0	; select bank0
  3220  044A  10BC               	bcf	_I2C_Status+28,1
  3221  044B                     l2324:
  3222                           
  3223                           ;mcc_generated_files/i2c_master.c: 451:     I2C_Status.error = I2C_NOERR;
  3224  044B  01BB               	clrf	_I2C_Status+27
  3225  044C                     l2326:
  3226                           
  3227                           ;mcc_generated_files/i2c_master.c: 452:     return I2C_RESET;
  3228  044C  300E               	movlw	14
  3229  044D                     l299:
  3230  044D  0008               	return
  3231  044E                     __end_of_I2C_DO_RESET:
  3232                           
  3233                           	psect	text16
  3234  0444                     __ptext16:	
  3235 ;; *************** function _I2C_DO_RX_NACK_RESTART *****************
  3236 ;; Defined at:
  3237 ;;		line 442 in file "mcc_generated_files/i2c_master.c"
  3238 ;; Parameters:    Size  Location     Type
  3239 ;;		None
  3240 ;; Auto vars:     Size  Location     Type
  3241 ;;		None
  3242 ;; Return value:  Size  Location     Type
  3243 ;;                  1    wreg      enum E3373
  3244 ;; Registers used:
  3245 ;;		wreg, status,2, status,0, pclath, cstack
  3246 ;; Tracked objects:
  3247 ;;		On entry : 0/0
  3248 ;;		On exit  : 0/0
  3249 ;;		Unchanged: 0/0
  3250 ;; Data sizes:     COMMON   BANK0   BANK1   BANK2   BANK3   BANK4   BANK5   BANK6   BANK7   BANK8   BANK9  BANK10  BANK1
      +1  BANK12
  3251 ;;      Params:         0       0       0       0       0       0       0       0       0       0       0       0       
      +0       0
  3252 ;;      Locals:         0       0       0       0       0       0       0       0       0       0       0       0       
      +0       0
  3253 ;;      Temps:          0       0       0       0       0       0       0       0       0       0       0       0       
      +0       0
  3254 ;;      Totals:         0       0       0       0       0       0       0       0       0       0       0       0       
      +0       0
  3255 ;;Total ram usage:        0 bytes
  3256 ;; Hardware stack levels used: 1
  3257 ;; Hardware stack levels required when called: 1
  3258 ;; This function calls:
  3259 ;;		_I2C_MasterSendNack
  3260 ;; This function is called by:
  3261 ;;		_I2C_DO_RX
  3262 ;;		_I2C_MasterFsm
  3263 ;; This function uses a non-reentrant model
  3264 ;;
  3265                           
  3266  0444                     _I2C_DO_RX_NACK_RESTART:	
  3267                           ;psect for function _I2C_DO_RX_NACK_RESTART
  3268                           
  3269  0444                     l2134:	
  3270                           ;incstack = 0
  3271                           ; Regs used in _I2C_DO_RX_NACK_RESTART: [wreg+status,2+status,0+pclath+cstack]
  3272                           
  3273                           
  3274                           ;mcc_generated_files/i2c_master.c: 444:     I2C_MasterSendNack();
  3275  0444  3184  2414  3184   	fcall	_I2C_MasterSendNack
  3276  0447                     l2136:
  3277                           
  3278                           ;mcc_generated_files/i2c_master.c: 445:     return I2C_SEND_RESTART;
  3279  0447  3009               	movlw	9
  3280  0448                     l296:
  3281  0448  0008               	return
  3282  0449                     __end_of_I2C_DO_RX_NACK_RESTART:
  3283                           
  3284                           	psect	text17
  3285  043F                     __ptext17:	
  3286 ;; *************** function _I2C_DO_RX_NACK_STOP *****************
  3287 ;; Defined at:
  3288 ;;		line 436 in file "mcc_generated_files/i2c_master.c"
  3289 ;; Parameters:    Size  Location     Type
  3290 ;;		None
  3291 ;; Auto vars:     Size  Location     Type
  3292 ;;		None
  3293 ;; Return value:  Size  Location     Type
  3294 ;;                  1    wreg      enum E3373
  3295 ;; Registers used:
  3296 ;;		wreg, status,2, status,0, pclath, cstack
  3297 ;; Tracked objects:
  3298 ;;		On entry : 0/0
  3299 ;;		On exit  : 0/0
  3300 ;;		Unchanged: 0/0
  3301 ;; Data sizes:     COMMON   BANK0   BANK1   BANK2   BANK3   BANK4   BANK5   BANK6   BANK7   BANK8   BANK9  BANK10  BANK1
      +1  BANK12
  3302 ;;      Params:         0       0       0       0       0       0       0       0       0       0       0       0       
      +0       0
  3303 ;;      Locals:         0       0       0       0       0       0       0       0       0       0       0       0       
      +0       0
  3304 ;;      Temps:          0       0       0       0       0       0       0       0       0       0       0       0       
      +0       0
  3305 ;;      Totals:         0       0       0       0       0       0       0       0       0       0       0       0       
      +0       0
  3306 ;;Total ram usage:        0 bytes
  3307 ;; Hardware stack levels used: 1
  3308 ;; Hardware stack levels required when called: 1
  3309 ;; This function calls:
  3310 ;;		_I2C_MasterSendNack
  3311 ;; This function is called by:
  3312 ;;		_I2C_DO_RX
  3313 ;;		_I2C_MasterFsm
  3314 ;; This function uses a non-reentrant model
  3315 ;;
  3316                           
  3317  043F                     _I2C_DO_RX_NACK_STOP:	
  3318                           ;psect for function _I2C_DO_RX_NACK_STOP
  3319                           
  3320  043F                     l2140:	
  3321                           ;incstack = 0
  3322                           ; Regs used in _I2C_DO_RX_NACK_STOP: [wreg+status,2+status,0+pclath+cstack]
  3323                           
  3324                           
  3325                           ;mcc_generated_files/i2c_master.c: 438:     I2C_MasterSendNack();
  3326  043F  3184  2414  3184   	fcall	_I2C_MasterSendNack
  3327  0442                     l2142:
  3328                           
  3329                           ;mcc_generated_files/i2c_master.c: 439:     return I2C_SEND_STOP;
  3330  0442  300A               	movlw	10
  3331  0443                     l293:
  3332  0443  0008               	return
  3333  0444                     __end_of_I2C_DO_RX_NACK_STOP:
  3334                           
  3335                           	psect	text18
  3336  043A                     __ptext18:	
  3337 ;; *************** function _I2C_DO_RX_ACK *****************
  3338 ;; Defined at:
  3339 ;;		line 429 in file "mcc_generated_files/i2c_master.c"
  3340 ;; Parameters:    Size  Location     Type
  3341 ;;		None
  3342 ;; Auto vars:     Size  Location     Type
  3343 ;;		None
  3344 ;; Return value:  Size  Location     Type
  3345 ;;                  1    wreg      enum E3373
  3346 ;; Registers used:
  3347 ;;		wreg, status,2, status,0, pclath, cstack
  3348 ;; Tracked objects:
  3349 ;;		On entry : 0/0
  3350 ;;		On exit  : 0/0
  3351 ;;		Unchanged: 0/0
  3352 ;; Data sizes:     COMMON   BANK0   BANK1   BANK2   BANK3   BANK4   BANK5   BANK6   BANK7   BANK8   BANK9  BANK10  BANK1
      +1  BANK12
  3353 ;;      Params:         0       0       0       0       0       0       0       0       0       0       0       0       
      +0       0
  3354 ;;      Locals:         0       0       0       0       0       0       0       0       0       0       0       0       
      +0       0
  3355 ;;      Temps:          0       0       0       0       0       0       0       0       0       0       0       0       
      +0       0
  3356 ;;      Totals:         0       0       0       0       0       0       0       0       0       0       0       0       
      +0       0
  3357 ;;Total ram usage:        0 bytes
  3358 ;; Hardware stack levels used: 1
  3359 ;; Hardware stack levels required when called: 1
  3360 ;; This function calls:
  3361 ;;		_I2C_MasterSendAck
  3362 ;; This function is called by:
  3363 ;;		_I2C_MasterFsm
  3364 ;; This function uses a non-reentrant model
  3365 ;;
  3366                           
  3367  043A                     _I2C_DO_RX_ACK:	
  3368                           ;psect for function _I2C_DO_RX_ACK
  3369                           
  3370  043A                     l2316:	
  3371                           ;incstack = 0
  3372                           ; Regs used in _I2C_DO_RX_ACK: [wreg+status,2+status,0+pclath+cstack]
  3373                           
  3374                           
  3375                           ;mcc_generated_files/i2c_master.c: 431:     I2C_MasterSendAck();
  3376  043A  3184  2418  3184   	fcall	_I2C_MasterSendAck
  3377  043D                     l2318:
  3378                           
  3379                           ;mcc_generated_files/i2c_master.c: 432:     return I2C_RCEN;
  3380  043D  3005               	movlw	5
  3381  043E                     l290:
  3382  043E  0008               	return
  3383  043F                     __end_of_I2C_DO_RX_ACK:
  3384                           
  3385                           	psect	text19
  3386  0435                     __ptext19:	
  3387 ;; *************** function _I2C_DO_SEND_STOP *****************
  3388 ;; Defined at:
  3389 ;;		line 423 in file "mcc_generated_files/i2c_master.c"
  3390 ;; Parameters:    Size  Location     Type
  3391 ;;		None
  3392 ;; Auto vars:     Size  Location     Type
  3393 ;;		None
  3394 ;; Return value:  Size  Location     Type
  3395 ;;                  1    wreg      enum E3373
  3396 ;; Registers used:
  3397 ;;		wreg, status,2, status,0, pclath, cstack
  3398 ;; Tracked objects:
  3399 ;;		On entry : 0/0
  3400 ;;		On exit  : 0/0
  3401 ;;		Unchanged: 0/0
  3402 ;; Data sizes:     COMMON   BANK0   BANK1   BANK2   BANK3   BANK4   BANK5   BANK6   BANK7   BANK8   BANK9  BANK10  BANK1
      +1  BANK12
  3403 ;;      Params:         0       0       0       0       0       0       0       0       0       0       0       0       
      +0       0
  3404 ;;      Locals:         0       0       0       0       0       0       0       0       0       0       0       0       
      +0       0
  3405 ;;      Temps:          0       0       0       0       0       0       0       0       0       0       0       0       
      +0       0
  3406 ;;      Totals:         0       0       0       0       0       0       0       0       0       0       0       0       
      +0       0
  3407 ;;Total ram usage:        0 bytes
  3408 ;; Hardware stack levels used: 1
  3409 ;; Hardware stack levels required when called: 1
  3410 ;; This function calls:
  3411 ;;		_I2C_MasterStop
  3412 ;; This function is called by:
  3413 ;;		_I2C_DO_TX
  3414 ;;		_I2C_DO_TX_EMPTY
  3415 ;;		_I2C_DO_ADDRESS_NACK
  3416 ;;		_I2C_MasterFsm
  3417 ;; This function uses a non-reentrant model
  3418 ;;
  3419                           
  3420  0435                     _I2C_DO_SEND_STOP:	
  3421                           ;psect for function _I2C_DO_SEND_STOP
  3422                           
  3423  0435                     l2122:	
  3424                           ;incstack = 0
  3425                           ; Regs used in _I2C_DO_SEND_STOP: [wreg+status,2+status,0+pclath+cstack]
  3426                           
  3427                           
  3428                           ;mcc_generated_files/i2c_master.c: 425:     I2C_MasterStop();
  3429  0435  3184  2404  3184   	fcall	_I2C_MasterStop
  3430  0438                     l2124:
  3431                           
  3432                           ;mcc_generated_files/i2c_master.c: 426:     return I2C_IDLE;
  3433  0438  3000               	movlw	0
  3434  0439                     l287:
  3435  0439  0008               	return
  3436  043A                     __end_of_I2C_DO_SEND_STOP:
  3437                           
  3438                           	psect	text20
  3439  0430                     __ptext20:	
  3440 ;; *************** function _I2C_DO_SEND_RESTART *****************
  3441 ;; Defined at:
  3442 ;;		line 417 in file "mcc_generated_files/i2c_master.c"
  3443 ;; Parameters:    Size  Location     Type
  3444 ;;		None
  3445 ;; Auto vars:     Size  Location     Type
  3446 ;;		None
  3447 ;; Return value:  Size  Location     Type
  3448 ;;                  1    wreg      enum E3373
  3449 ;; Registers used:
  3450 ;;		wreg, status,2, status,0, pclath, cstack
  3451 ;; Tracked objects:
  3452 ;;		On entry : 0/0
  3453 ;;		On exit  : 0/0
  3454 ;;		Unchanged: 0/0
  3455 ;; Data sizes:     COMMON   BANK0   BANK1   BANK2   BANK3   BANK4   BANK5   BANK6   BANK7   BANK8   BANK9  BANK10  BANK1
      +1  BANK12
  3456 ;;      Params:         0       0       0       0       0       0       0       0       0       0       0       0       
      +0       0
  3457 ;;      Locals:         0       0       0       0       0       0       0       0       0       0       0       0       
      +0       0
  3458 ;;      Temps:          0       0       0       0       0       0       0       0       0       0       0       0       
      +0       0
  3459 ;;      Totals:         0       0       0       0       0       0       0       0       0       0       0       0       
      +0       0
  3460 ;;Total ram usage:        0 bytes
  3461 ;; Hardware stack levels used: 1
  3462 ;; Hardware stack levels required when called: 1
  3463 ;; This function calls:
  3464 ;;		_I2C_MasterEnableRestart
  3465 ;; This function is called by:
  3466 ;;		_I2C_DO_TX_EMPTY
  3467 ;;		_I2C_DO_ADDRESS_NACK
  3468 ;;		_I2C_MasterFsm
  3469 ;; This function uses a non-reentrant model
  3470 ;;
  3471                           
  3472  0430                     _I2C_DO_SEND_RESTART:	
  3473                           ;psect for function _I2C_DO_SEND_RESTART
  3474                           
  3475  0430                     l2148:	
  3476                           ;incstack = 0
  3477                           ; Regs used in _I2C_DO_SEND_RESTART: [wreg+status,2+status,0+pclath+cstack]
  3478                           
  3479                           
  3480                           ;mcc_generated_files/i2c_master.c: 419:     I2C_MasterEnableRestart();
  3481  0430  3184  2401  3184   	fcall	_I2C_MasterEnableRestart
  3482  0433                     l2150:
  3483                           
  3484                           ;mcc_generated_files/i2c_master.c: 420:     return I2C_SEND_ADR_READ;
  3485  0433  3001               	movlw	1
  3486  0434                     l284:
  3487  0434  0008               	return
  3488  0435                     __end_of_I2C_DO_SEND_RESTART:
  3489                           
  3490                           	psect	text21
  3491  042B                     __ptext21:	
  3492 ;; *************** function _I2C_DO_SEND_RESTART_WRITE *****************
  3493 ;; Defined at:
  3494 ;;		line 410 in file "mcc_generated_files/i2c_master.c"
  3495 ;; Parameters:    Size  Location     Type
  3496 ;;		None
  3497 ;; Auto vars:     Size  Location     Type
  3498 ;;		None
  3499 ;; Return value:  Size  Location     Type
  3500 ;;                  1    wreg      enum E3373
  3501 ;; Registers used:
  3502 ;;		wreg, status,2, status,0, pclath, cstack
  3503 ;; Tracked objects:
  3504 ;;		On entry : 0/0
  3505 ;;		On exit  : 0/0
  3506 ;;		Unchanged: 0/0
  3507 ;; Data sizes:     COMMON   BANK0   BANK1   BANK2   BANK3   BANK4   BANK5   BANK6   BANK7   BANK8   BANK9  BANK10  BANK1
      +1  BANK12
  3508 ;;      Params:         0       0       0       0       0       0       0       0       0       0       0       0       
      +0       0
  3509 ;;      Locals:         0       0       0       0       0       0       0       0       0       0       0       0       
      +0       0
  3510 ;;      Temps:          0       0       0       0       0       0       0       0       0       0       0       0       
      +0       0
  3511 ;;      Totals:         0       0       0       0       0       0       0       0       0       0       0       0       
      +0       0
  3512 ;;Total ram usage:        0 bytes
  3513 ;; Hardware stack levels used: 1
  3514 ;; Hardware stack levels required when called: 1
  3515 ;; This function calls:
  3516 ;;		_I2C_MasterEnableRestart
  3517 ;; This function is called by:
  3518 ;;		_I2C_DO_TX
  3519 ;;		_I2C_MasterFsm
  3520 ;; This function uses a non-reentrant model
  3521 ;;
  3522                           
  3523  042B                     _I2C_DO_SEND_RESTART_WRITE:	
  3524                           ;psect for function _I2C_DO_SEND_RESTART_WRITE
  3525                           
  3526  042B                     l2116:	
  3527                           ;incstack = 0
  3528                           ; Regs used in _I2C_DO_SEND_RESTART_WRITE: [wreg+status,2+status,0+pclath+cstack]
  3529                           
  3530                           
  3531                           ;mcc_generated_files/i2c_master.c: 412:     I2C_MasterEnableRestart();
  3532  042B  3184  2401  3184   	fcall	_I2C_MasterEnableRestart
  3533  042E                     l2118:
  3534                           
  3535                           ;mcc_generated_files/i2c_master.c: 413:     return I2C_SEND_ADR_WRITE;
  3536  042E  3002               	movlw	2
  3537  042F                     l281:
  3538  042F  0008               	return
  3539  0430                     __end_of_I2C_DO_SEND_RESTART_WRITE:
  3540                           
  3541                           	psect	text22
  3542  0426                     __ptext22:	
  3543 ;; *************** function _I2C_DO_SEND_RESTART_READ *****************
  3544 ;; Defined at:
  3545 ;;		line 404 in file "mcc_generated_files/i2c_master.c"
  3546 ;; Parameters:    Size  Location     Type
  3547 ;;		None
  3548 ;; Auto vars:     Size  Location     Type
  3549 ;;		None
  3550 ;; Return value:  Size  Location     Type
  3551 ;;                  1    wreg      enum E3373
  3552 ;; Registers used:
  3553 ;;		wreg, status,2, status,0, pclath, cstack
  3554 ;; Tracked objects:
  3555 ;;		On entry : 0/0
  3556 ;;		On exit  : 0/0
  3557 ;;		Unchanged: 0/0
  3558 ;; Data sizes:     COMMON   BANK0   BANK1   BANK2   BANK3   BANK4   BANK5   BANK6   BANK7   BANK8   BANK9  BANK10  BANK1
      +1  BANK12
  3559 ;;      Params:         0       0       0       0       0       0       0       0       0       0       0       0       
      +0       0
  3560 ;;      Locals:         0       0       0       0       0       0       0       0       0       0       0       0       
      +0       0
  3561 ;;      Temps:          0       0       0       0       0       0       0       0       0       0       0       0       
      +0       0
  3562 ;;      Totals:         0       0       0       0       0       0       0       0       0       0       0       0       
      +0       0
  3563 ;;Total ram usage:        0 bytes
  3564 ;; Hardware stack levels used: 1
  3565 ;; Hardware stack levels required when called: 1
  3566 ;; This function calls:
  3567 ;;		_I2C_MasterEnableRestart
  3568 ;; This function is called by:
  3569 ;;		_I2C_DO_TX
  3570 ;;		_I2C_MasterFsm
  3571 ;; This function uses a non-reentrant model
  3572 ;;
  3573                           
  3574  0426                     _I2C_DO_SEND_RESTART_READ:	
  3575                           ;psect for function _I2C_DO_SEND_RESTART_READ
  3576                           
  3577  0426                     l2110:	
  3578                           ;incstack = 0
  3579                           ; Regs used in _I2C_DO_SEND_RESTART_READ: [wreg+status,2+status,0+pclath+cstack]
  3580                           
  3581                           
  3582                           ;mcc_generated_files/i2c_master.c: 406:     I2C_MasterEnableRestart();
  3583  0426  3184  2401  3184   	fcall	_I2C_MasterEnableRestart
  3584  0429                     l2112:
  3585                           
  3586                           ;mcc_generated_files/i2c_master.c: 407:     return I2C_SEND_ADR_READ;
  3587  0429  3001               	movlw	1
  3588  042A                     l278:
  3589  042A  0008               	return
  3590  042B                     __end_of_I2C_DO_SEND_RESTART_READ:
  3591                           
  3592                           	psect	text23
  3593  046A                     __ptext23:	
  3594 ;; *************** function _I2C_DO_RCEN *****************
  3595 ;; Defined at:
  3596 ;;		line 356 in file "mcc_generated_files/i2c_master.c"
  3597 ;; Parameters:    Size  Location     Type
  3598 ;;		None
  3599 ;; Auto vars:     Size  Location     Type
  3600 ;;		None
  3601 ;; Return value:  Size  Location     Type
  3602 ;;                  1    wreg      enum E3373
  3603 ;; Registers used:
  3604 ;;		wreg, status,2, status,0, pclath, cstack
  3605 ;; Tracked objects:
  3606 ;;		On entry : 0/0
  3607 ;;		On exit  : 0/0
  3608 ;;		Unchanged: 0/0
  3609 ;; Data sizes:     COMMON   BANK0   BANK1   BANK2   BANK3   BANK4   BANK5   BANK6   BANK7   BANK8   BANK9  BANK10  BANK1
      +1  BANK12
  3610 ;;      Params:         0       0       0       0       0       0       0       0       0       0       0       0       
      +0       0
  3611 ;;      Locals:         0       0       0       0       0       0       0       0       0       0       0       0       
      +0       0
  3612 ;;      Temps:          0       0       0       0       0       0       0       0       0       0       0       0       
      +0       0
  3613 ;;      Totals:         0       0       0       0       0       0       0       0       0       0       0       0       
      +0       0
  3614 ;;Total ram usage:        0 bytes
  3615 ;; Hardware stack levels used: 1
  3616 ;; Hardware stack levels required when called: 1
  3617 ;; This function calls:
  3618 ;;		_I2C_MasterStartRx
  3619 ;; This function is called by:
  3620 ;;		_I2C_MasterFsm
  3621 ;; This function uses a non-reentrant model
  3622 ;;
  3623                           
  3624  046A                     _I2C_DO_RCEN:	
  3625                           ;psect for function _I2C_DO_RCEN
  3626                           
  3627  046A                     l2284:	
  3628                           ;incstack = 0
  3629                           ; Regs used in _I2C_DO_RCEN: [wreg+status,2+status,0+pclath+cstack]
  3630                           
  3631                           
  3632                           ;mcc_generated_files/i2c_master.c: 358:     I2C_Status.addressNackCheck = 0;
  3633  046A  0020               	movlb	0	; select bank0
  3634  046B  103C               	bcf	_I2C_Status+28,0
  3635  046C                     l2286:
  3636                           
  3637                           ;mcc_generated_files/i2c_master.c: 359:     I2C_MasterStartRx();
  3638  046C  3184  2407  3184   	fcall	_I2C_MasterStartRx
  3639  046F                     l2288:
  3640                           
  3641                           ;mcc_generated_files/i2c_master.c: 360:     return I2C_RX;
  3642  046F  3004               	movlw	4
  3643  0470                     l254:
  3644  0470  0008               	return
  3645  0471                     __end_of_I2C_DO_RCEN:
  3646                           
  3647                           	psect	text24
  3648  06FF                     __ptext24:	
  3649 ;; *************** function _I2C_DO_RX *****************
  3650 ;; Defined at:
  3651 ;;		line 332 in file "mcc_generated_files/i2c_master.c"
  3652 ;; Parameters:    Size  Location     Type
  3653 ;;		None
  3654 ;; Auto vars:     Size  Location     Type
  3655 ;;		None
  3656 ;; Return value:  Size  Location     Type
  3657 ;;                  1    wreg      enum E3373
  3658 ;; Registers used:
  3659 ;;		wreg, fsr0l, fsr0h, fsr1l, fsr1h, status,2, status,0, pclath, cstack
  3660 ;; Tracked objects:
  3661 ;;		On entry : 0/0
  3662 ;;		On exit  : 0/0
  3663 ;;		Unchanged: 0/0
  3664 ;; Data sizes:     COMMON   BANK0   BANK1   BANK2   BANK3   BANK4   BANK5   BANK6   BANK7   BANK8   BANK9  BANK10  BANK1
      +1  BANK12
  3665 ;;      Params:         0       0       0       0       0       0       0       0       0       0       0       0       
      +0       0
  3666 ;;      Locals:         0       0       0       0       0       0       0       0       0       0       0       0       
      +0       0
  3667 ;;      Temps:          3       0       0       0       0       0       0       0       0       0       0       0       
      +0       0
  3668 ;;      Totals:         3       0       0       0       0       0       0       0       0       0       0       0       
      +0       0
  3669 ;;Total ram usage:        3 bytes
  3670 ;; Hardware stack levels used: 1
  3671 ;; Hardware stack levels required when called: 3
  3672 ;; This function calls:
  3673 ;;		Absolute function
  3674 ;;		_I2C_CallbackReturnReset
  3675 ;;		_I2C_CallbackReturnStop
  3676 ;;		_I2C_DO_RX_NACK_RESTART
  3677 ;;		_I2C_DO_RX_NACK_STOP
  3678 ;;		_I2C_MasterGetRxData
  3679 ;;		_I2C_MasterSendAck
  3680 ;;		_rd1RegCompleteHandler
  3681 ;;		_rdBlkRegCompleteHandler
  3682 ;;		_wr1RegCompleteHandler
  3683 ;;		_wr2RegCompleteHandler
  3684 ;; This function is called by:
  3685 ;;		_I2C_MasterFsm
  3686 ;; This function uses a non-reentrant model
  3687 ;;
  3688                           
  3689  06FF                     _I2C_DO_RX:	
  3690                           ;psect for function _I2C_DO_RX
  3691                           
  3692  06FF                     l2254:	
  3693                           ;incstack = 0
  3694                           ; Regs used in _I2C_DO_RX: [wreg-fsr1h+status,2+status,0+pclath+cstack]
  3695                           
  3696                           
  3697                           ;mcc_generated_files/i2c_master.c: 334:     *I2C_Status.data_ptr++ = I2C_MasterGetRxData
      +                          ();
  3698  06FF  3184  240A  3186   	fcall	_I2C_MasterGetRxData
  3699  0702  00F0               	movwf	??_I2C_DO_RX
  3700  0703  0020               	movlb	0	; select bank0
  3701  0704  0837               	movf	low ((_I2C_Status| 0+23)),w
  3702  0705  0086               	movwf	6
  3703  0706  0187               	clrf	7
  3704  0707  0870               	movf	??_I2C_DO_RX,w
  3705  0708  0081               	movwf	1
  3706  0709                     l2256:
  3707  0709  3001               	movlw	1
  3708  070A  00F0               	movwf	??_I2C_DO_RX
  3709  070B  0870               	movf	??_I2C_DO_RX,w
  3710  070C  07B7               	addwf	low ((_I2C_Status| 0+23)),f
  3711  070D                     l2258:
  3712                           
  3713                           ;mcc_generated_files/i2c_master.c: 335:     if(--I2C_Status.data_length)
  3714  070D  3001               	movlw	1
  3715  070E  02B8               	subwf	_I2C_Status+24,f
  3716  070F  3000               	movlw	0
  3717  0710  3BB9               	subwfb	_I2C_Status+25,f
  3718  0711  0838               	movf	_I2C_Status+24,w
  3719  0712  0439               	iorwf	_I2C_Status+25,w
  3720  0713  1903               	btfsc	3,2
  3721  0714  2F16               	goto	u441
  3722  0715  2F17               	goto	u440
  3723  0716                     u441:
  3724  0716  2F1C               	goto	l242
  3725  0717                     u440:
  3726  0717                     l2260:
  3727                           
  3728                           ;mcc_generated_files/i2c_master.c: 336:     {;mcc_generated_files/i2c_master.c: 337:    
      +                               I2C_MasterSendAck();
  3729  0717  3184  2418  3186   	fcall	_I2C_MasterSendAck
  3730  071A                     l2262:
  3731                           
  3732                           ;mcc_generated_files/i2c_master.c: 338:         return I2C_RCEN;
  3733  071A  3005               	movlw	5
  3734  071B  2F44               	goto	l243
  3735  071C                     l242:	
  3736                           ;mcc_generated_files/i2c_master.c: 340:     else
  3737                           
  3738                           
  3739                           ;mcc_generated_files/i2c_master.c: 341:     {;mcc_generated_files/i2c_master.c: 342:    
      +                               I2C_Status.bufferFree = 1;
  3740  071C  15BC               	bsf	_I2C_Status+28,3
  3741                           
  3742                           ;mcc_generated_files/i2c_master.c: 343:         switch(I2C_Status.callbackTable[I2C_DATA
      +                          _COMPLETE](I2C_Status.callbackPayload[I2C_DATA_COMPLETE]))
  3743  071D  2F26               	goto	l2278
  3744  071E                     l2268:
  3745                           
  3746                           ;mcc_generated_files/i2c_master.c: 347:                 return I2C_DO_RX_NACK_RESTART();
  3747  071E  3184  2444  3186   	fcall	_I2C_DO_RX_NACK_RESTART
  3748  0721  2F44               	goto	l243
  3749  0722                     l2272:
  3750                           
  3751                           ;mcc_generated_files/i2c_master.c: 351:                 return I2C_DO_RX_NACK_STOP();
  3752  0722  3184  243F  3186   	fcall	_I2C_DO_RX_NACK_STOP
  3753  0725  2F44               	goto	l243
  3754  0726                     l2278:
  3755  0726  082C               	movf	low ((_I2C_Status| 0+12)),w
  3756  0727  00F0               	movwf	??_I2C_DO_RX
  3757  0728  0870               	movf	??_I2C_DO_RX,w
  3758  0729  00F9               	movwf	rdBlkRegCompleteHandler@ptr
  3759  072A  0821               	movf	_I2C_Status+1,w
  3760  072B  008A               	movwf	10
  3761  072C  0820               	movf	_I2C_Status,w
  3762  072D  000A               	callw
  3763  072E  3186               	pagesel	$
  3764  072F  00F1               	movwf	??_I2C_DO_RX+1
  3765  0730  01F2               	clrf	??_I2C_DO_RX+2
  3766                           
  3767                           ; Switch on 2 bytes has been partitioned into a top level switch of size 1, and 1 sub-sw
      +                          itches
  3768                           ; Switch size 1, requested type "simple"
  3769                           ; Number of cases is 1, Range of values is 0 to 0
  3770                           ; switch strategies available:
  3771                           ; Name         Instructions Cycles
  3772                           ; simple_byte            4     3 (average)
  3773                           ; direct_byte            8     6 (fixed)
  3774                           ; jumptable            260     6 (fixed)
  3775                           ;	Chosen strategy is simple_byte
  3776  0731  0872               	movf	??_I2C_DO_RX+2,w
  3777  0732  3A00               	xorlw	0	; case 0
  3778  0733  1903               	skipnz
  3779  0734  2F36               	goto	l2896
  3780  0735  2F22               	goto	l2272
  3781  0736                     l2896:
  3782                           
  3783                           ; Switch size 1, requested type "simple"
  3784                           ; Number of cases is 4, Range of values is 1 to 4
  3785                           ; switch strategies available:
  3786                           ; Name         Instructions Cycles
  3787                           ; simple_byte           13     7 (average)
  3788                           ; direct_byte           17     9 (fixed)
  3789                           ; jumptable            263     9 (fixed)
  3790                           ;	Chosen strategy is simple_byte
  3791  0736  0871               	movf	??_I2C_DO_RX+1,w
  3792  0737  3A01               	xorlw	1	; case 1
  3793  0738  1903               	skipnz
  3794  0739  2F22               	goto	l2272
  3795  073A  3A03               	xorlw	3	; case 2
  3796  073B  1903               	skipnz
  3797  073C  2F1E               	goto	l2268
  3798  073D  3A01               	xorlw	1	; case 3
  3799  073E  1903               	skipnz
  3800  073F  2F1E               	goto	l2268
  3801  0740  3A07               	xorlw	7	; case 4
  3802  0741  1903               	skipnz
  3803  0742  2F22               	goto	l2272
  3804  0743  2F22               	goto	l2272
  3805  0744                     l243:
  3806  0744  0008               	return
  3807  0745                     __end_of_I2C_DO_RX:
  3808                           
  3809                           	psect	text25
  3810  0792                     __ptext25:	
  3811 ;; *************** function _I2C_DO_TX *****************
  3812 ;; Defined at:
  3813 ;;		line 308 in file "mcc_generated_files/i2c_master.c"
  3814 ;; Parameters:    Size  Location     Type
  3815 ;;		None
  3816 ;; Auto vars:     Size  Location     Type
  3817 ;;		None
  3818 ;; Return value:  Size  Location     Type
  3819 ;;                  1    wreg      enum E3373
  3820 ;; Registers used:
  3821 ;;		wreg, fsr0l, fsr0h, fsr1l, fsr1h, status,2, status,0, pclath, cstack
  3822 ;; Tracked objects:
  3823 ;;		On entry : 0/0
  3824 ;;		On exit  : 0/0
  3825 ;;		Unchanged: 0/0
  3826 ;; Data sizes:     COMMON   BANK0   BANK1   BANK2   BANK3   BANK4   BANK5   BANK6   BANK7   BANK8   BANK9  BANK10  BANK1
      +1  BANK12
  3827 ;;      Params:         0       0       0       0       0       0       0       0       0       0       0       0       
      +0       0
  3828 ;;      Locals:         0       0       0       0       0       0       0       0       0       0       0       0       
      +0       0
  3829 ;;      Temps:          3       0       0       0       0       0       0       0       0       0       0       0       
      +0       0
  3830 ;;      Totals:         3       0       0       0       0       0       0       0       0       0       0       0       
      +0       0
  3831 ;;Total ram usage:        3 bytes
  3832 ;; Hardware stack levels used: 1
  3833 ;; Hardware stack levels required when called: 3
  3834 ;; This function calls:
  3835 ;;		Absolute function
  3836 ;;		_I2C_CallbackReturnReset
  3837 ;;		_I2C_CallbackReturnStop
  3838 ;;		_I2C_DO_SEND_RESTART_READ
  3839 ;;		_I2C_DO_SEND_RESTART_WRITE
  3840 ;;		_I2C_DO_SEND_STOP
  3841 ;;		_I2C_MasterIsNack
  3842 ;;		_I2C_MasterSendTxData
  3843 ;;		_rd1RegCompleteHandler
  3844 ;;		_rdBlkRegCompleteHandler
  3845 ;;		_wr1RegCompleteHandler
  3846 ;;		_wr2RegCompleteHandler
  3847 ;; This function is called by:
  3848 ;;		_I2C_MasterFsm
  3849 ;; This function uses a non-reentrant model
  3850 ;;
  3851                           
  3852  0792                     _I2C_DO_TX:	
  3853                           ;psect for function _I2C_DO_TX
  3854                           
  3855  0792                     l2220:	
  3856                           ;incstack = 0
  3857                           ; Regs used in _I2C_DO_TX: [wreg-fsr1h+status,2+status,0+pclath+cstack]
  3858                           
  3859                           
  3860                           ;mcc_generated_files/i2c_master.c: 310:     if(I2C_MasterIsNack())
  3861  0792  3184  2458  3187   	fcall	_I2C_MasterIsNack
  3862  0795  3A00               	xorlw	0
  3863  0796  1903               	skipnz
  3864  0797  2F99               	goto	u421
  3865  0798  2F9A               	goto	u420
  3866  0799                     u421:
  3867  0799  2FCA               	goto	l226
  3868  079A                     u420:
  3869  079A  2FA7               	goto	l2238
  3870  079B                     l2224:
  3871                           
  3872                           ;mcc_generated_files/i2c_master.c: 315:                 return I2C_DO_SEND_RESTART_READ(
      +                          );
  3873  079B  3184  2426  3187   	fcall	_I2C_DO_SEND_RESTART_READ
  3874  079E  2FE6               	goto	l229
  3875  079F                     l2228:
  3876                           
  3877                           ;mcc_generated_files/i2c_master.c: 317:                   return I2C_DO_SEND_RESTART_WRI
      +                          TE();
  3878  079F  3184  242B  3187   	fcall	_I2C_DO_SEND_RESTART_WRITE
  3879  07A2  2FE6               	goto	l229
  3880  07A3                     l2232:
  3881                           
  3882                           ;mcc_generated_files/i2c_master.c: 321:                 return I2C_DO_SEND_STOP();
  3883  07A3  3184  2435  3187   	fcall	_I2C_DO_SEND_STOP
  3884  07A6  2FE6               	goto	l229
  3885  07A7                     l2238:
  3886  07A7  0020               	movlb	0	; select bank0
  3887  07A8  082F               	movf	low ((_I2C_Status| 0+15)),w
  3888  07A9  00F1               	movwf	??_I2C_DO_TX
  3889  07AA  0871               	movf	??_I2C_DO_TX,w
  3890  07AB  00F9               	movwf	rdBlkRegCompleteHandler@ptr
  3891  07AC  3006               	movlw	6
  3892  07AD  3E20               	addlw	(low (_I2C_Status| 0))& (0+255)
  3893  07AE  0086               	movwf	6
  3894  07AF  0187               	clrf	7
  3895  07B0  3F41               	moviw [1]fsr1
  3896  07B1  008A               	movwf	10
  3897  07B2  3F40               	moviw [0]fsr1
  3898  07B3  000A               	callw
  3899  07B4  3187               	pagesel	$
  3900  07B5  00F2               	movwf	??_I2C_DO_TX+1
  3901  07B6  01F3               	clrf	??_I2C_DO_TX+2
  3902                           
  3903                           ; Switch on 2 bytes has been partitioned into a top level switch of size 1, and 1 sub-sw
      +                          itches
  3904                           ; Switch size 1, requested type "simple"
  3905                           ; Number of cases is 1, Range of values is 0 to 0
  3906                           ; switch strategies available:
  3907                           ; Name         Instructions Cycles
  3908                           ; simple_byte            4     3 (average)
  3909                           ; direct_byte            8     6 (fixed)
  3910                           ; jumptable            260     6 (fixed)
  3911                           ;	Chosen strategy is simple_byte
  3912  07B7  0873               	movf	??_I2C_DO_TX+2,w
  3913  07B8  3A00               	xorlw	0	; case 0
  3914  07B9  1903               	skipnz
  3915  07BA  2FBC               	goto	l2898
  3916  07BB  2FA3               	goto	l2232
  3917  07BC                     l2898:
  3918                           
  3919                           ; Switch size 1, requested type "simple"
  3920                           ; Number of cases is 4, Range of values is 1 to 4
  3921                           ; switch strategies available:
  3922                           ; Name         Instructions Cycles
  3923                           ; simple_byte           13     7 (average)
  3924                           ; direct_byte           17     9 (fixed)
  3925                           ; jumptable            263     9 (fixed)
  3926                           ;	Chosen strategy is simple_byte
  3927  07BC  0872               	movf	??_I2C_DO_TX+1,w
  3928  07BD  3A01               	xorlw	1	; case 1
  3929  07BE  1903               	skipnz
  3930  07BF  2FA3               	goto	l2232
  3931  07C0  3A03               	xorlw	3	; case 2
  3932  07C1  1903               	skipnz
  3933  07C2  2F9B               	goto	l2224
  3934  07C3  3A01               	xorlw	1	; case 3
  3935  07C4  1903               	skipnz
  3936  07C5  2F9F               	goto	l2228
  3937  07C6  3A07               	xorlw	7	; case 4
  3938  07C7  1903               	skipnz
  3939  07C8  2FA3               	goto	l2232
  3940  07C9  2FA3               	goto	l2232
  3941  07CA                     l226:	
  3942                           ;mcc_generated_files/i2c_master.c: 324:     else
  3943                           
  3944                           
  3945                           ;mcc_generated_files/i2c_master.c: 325:     {;mcc_generated_files/i2c_master.c: 326:    
      +                               I2C_Status.addressNackCheck = 0;
  3946  07CA  0020               	movlb	0	; select bank0
  3947  07CB  103C               	bcf	_I2C_Status+28,0
  3948  07CC                     l2240:
  3949                           
  3950                           ;mcc_generated_files/i2c_master.c: 327:         I2C_MasterSendTxData(*I2C_Status.data_pt
      +                          r++);
  3951  07CC  3017               	movlw	23
  3952  07CD  3E20               	addlw	(low (_I2C_Status| 0))& (0+255)
  3953  07CE  0086               	movwf	6
  3954  07CF  0187               	clrf	7
  3955  07D0  3F40               	moviw [0]fsr1
  3956  07D1  0084               	movwf	4
  3957  07D2  0185               	clrf	5
  3958  07D3  0A81               	incf	1,f
  3959  07D4  0800               	movf	0,w
  3960  07D5  3184  241C  3187   	fcall	_I2C_MasterSendTxData
  3961  07D8                     l2242:
  3962                           
  3963                           ;mcc_generated_files/i2c_master.c: 328:         return (--I2C_Status.data_length)?I2C_TX
      +                          :I2C_TX_EMPTY;
  3964  07D8  3001               	movlw	1
  3965  07D9  0020               	movlb	0	; select bank0
  3966  07DA  02B8               	subwf	_I2C_Status+24,f
  3967  07DB  3000               	movlw	0
  3968  07DC  3BB9               	subwfb	_I2C_Status+25,f
  3969  07DD  0838               	movf	_I2C_Status+24,w
  3970  07DE  0439               	iorwf	_I2C_Status+25,w
  3971  07DF  1D03               	btfss	3,2
  3972  07E0  2FE2               	goto	u431
  3973  07E1  2FE3               	goto	u430
  3974  07E2                     u431:
  3975  07E2  2FE5               	goto	l2246
  3976  07E3                     u430:
  3977  07E3                     l2244:
  3978  07E3  3006               	movlw	6
  3979  07E4  2FE6               	goto	l229
  3980  07E5                     l2246:
  3981  07E5  3003               	movlw	3
  3982  07E6                     l229:
  3983  07E6  0008               	return
  3984  07E7                     __end_of_I2C_DO_TX:
  3985                           
  3986                           	psect	text26
  3987  0471                     __ptext26:	
  3988 ;; *************** function _I2C_DO_SEND_ADR_WRITE *****************
  3989 ;; Defined at:
  3990 ;;		line 301 in file "mcc_generated_files/i2c_master.c"
  3991 ;; Parameters:    Size  Location     Type
  3992 ;;		None
  3993 ;; Auto vars:     Size  Location     Type
  3994 ;;		None
  3995 ;; Return value:  Size  Location     Type
  3996 ;;                  1    wreg      enum E3373
  3997 ;; Registers used:
  3998 ;;		wreg, status,2, status,0, pclath, cstack
  3999 ;; Tracked objects:
  4000 ;;		On entry : 0/0
  4001 ;;		On exit  : 0/0
  4002 ;;		Unchanged: 0/0
  4003 ;; Data sizes:     COMMON   BANK0   BANK1   BANK2   BANK3   BANK4   BANK5   BANK6   BANK7   BANK8   BANK9  BANK10  BANK1
      +1  BANK12
  4004 ;;      Params:         0       0       0       0       0       0       0       0       0       0       0       0       
      +0       0
  4005 ;;      Locals:         0       0       0       0       0       0       0       0       0       0       0       0       
      +0       0
  4006 ;;      Temps:          0       0       0       0       0       0       0       0       0       0       0       0       
      +0       0
  4007 ;;      Totals:         0       0       0       0       0       0       0       0       0       0       0       0       
      +0       0
  4008 ;;Total ram usage:        0 bytes
  4009 ;; Hardware stack levels used: 1
  4010 ;; Hardware stack levels required when called: 1
  4011 ;; This function calls:
  4012 ;;		_I2C_MasterSendTxData
  4013 ;; This function is called by:
  4014 ;;		_I2C_MasterFsm
  4015 ;; This function uses a non-reentrant model
  4016 ;;
  4017                           
  4018  0471                     _I2C_DO_SEND_ADR_WRITE:	
  4019                           ;psect for function _I2C_DO_SEND_ADR_WRITE
  4020                           
  4021  0471                     l2212:	
  4022                           ;incstack = 0
  4023                           ; Regs used in _I2C_DO_SEND_ADR_WRITE: [wreg+status,2+status,0+pclath+cstack]
  4024                           
  4025                           
  4026                           ;mcc_generated_files/i2c_master.c: 303:     I2C_Status.addressNackCheck = 1;
  4027  0471  0020               	movlb	0	; select bank0
  4028  0472  143C               	bsf	_I2C_Status+28,0
  4029  0473                     l2214:
  4030                           
  4031                           ;mcc_generated_files/i2c_master.c: 304:     I2C_MasterSendTxData((uint8_t) (I2C_Status.a
      +                          ddress << 1));
  4032  0473  3536               	lslf	_I2C_Status+22,w
  4033  0474  3184  241C  3184   	fcall	_I2C_MasterSendTxData
  4034  0477                     l2216:
  4035                           
  4036                           ;mcc_generated_files/i2c_master.c: 305:     return I2C_TX;
  4037  0477  3003               	movlw	3
  4038  0478                     l223:
  4039  0478  0008               	return
  4040  0479                     __end_of_I2C_DO_SEND_ADR_WRITE:
  4041                           
  4042                           	psect	text27
  4043  0482                     __ptext27:	
  4044 ;; *************** function _I2C_DO_SEND_ADR_READ *****************
  4045 ;; Defined at:
  4046 ;;		line 294 in file "mcc_generated_files/i2c_master.c"
  4047 ;; Parameters:    Size  Location     Type
  4048 ;;		None
  4049 ;; Auto vars:     Size  Location     Type
  4050 ;;		None
  4051 ;; Return value:  Size  Location     Type
  4052 ;;                  1    wreg      enum E3373
  4053 ;; Registers used:
  4054 ;;		wreg, status,2, status,0, pclath, cstack
  4055 ;; Tracked objects:
  4056 ;;		On entry : 0/0
  4057 ;;		On exit  : 0/0
  4058 ;;		Unchanged: 0/0
  4059 ;; Data sizes:     COMMON   BANK0   BANK1   BANK2   BANK3   BANK4   BANK5   BANK6   BANK7   BANK8   BANK9  BANK10  BANK1
      +1  BANK12
  4060 ;;      Params:         0       0       0       0       0       0       0       0       0       0       0       0       
      +0       0
  4061 ;;      Locals:         0       0       0       0       0       0       0       0       0       0       0       0       
      +0       0
  4062 ;;      Temps:          0       0       0       0       0       0       0       0       0       0       0       0       
      +0       0
  4063 ;;      Totals:         0       0       0       0       0       0       0       0       0       0       0       0       
      +0       0
  4064 ;;Total ram usage:        0 bytes
  4065 ;; Hardware stack levels used: 1
  4066 ;; Hardware stack levels required when called: 1
  4067 ;; This function calls:
  4068 ;;		_I2C_MasterSendTxData
  4069 ;; This function is called by:
  4070 ;;		_I2C_MasterFsm
  4071 ;; This function uses a non-reentrant model
  4072 ;;
  4073                           
  4074  0482                     _I2C_DO_SEND_ADR_READ:	
  4075                           ;psect for function _I2C_DO_SEND_ADR_READ
  4076                           
  4077  0482                     l2204:	
  4078                           ;incstack = 0
  4079                           ; Regs used in _I2C_DO_SEND_ADR_READ: [wreg+status,2+status,0+pclath+cstack]
  4080                           
  4081                           
  4082                           ;mcc_generated_files/i2c_master.c: 296:     I2C_Status.addressNackCheck = 1;
  4083  0482  0020               	movlb	0	; select bank0
  4084  0483  143C               	bsf	_I2C_Status+28,0
  4085  0484                     l2206:
  4086                           
  4087                           ;mcc_generated_files/i2c_master.c: 297:     I2C_MasterSendTxData((uint8_t) (I2C_Status.a
      +                          ddress << 1 | 1));
  4088  0484  1403               	setc
  4089  0485  0D36               	rlf	_I2C_Status+22,w
  4090  0486  3184  241C  3184   	fcall	_I2C_MasterSendTxData
  4091  0489                     l2208:
  4092                           
  4093                           ;mcc_generated_files/i2c_master.c: 298:     return I2C_RCEN;
  4094  0489  3005               	movlw	5
  4095  048A                     l220:
  4096  048A  0008               	return
  4097  048B                     __end_of_I2C_DO_SEND_ADR_READ:
  4098                           
  4099                           	psect	text28
  4100  0421                     __ptext28:	
  4101 ;; *************** function _I2C_DO_IDLE *****************
  4102 ;; Defined at:
  4103 ;;		line 287 in file "mcc_generated_files/i2c_master.c"
  4104 ;; Parameters:    Size  Location     Type
  4105 ;;		None
  4106 ;; Auto vars:     Size  Location     Type
  4107 ;;		None
  4108 ;; Return value:  Size  Location     Type
  4109 ;;                  1    wreg      enum E3373
  4110 ;; Registers used:
  4111 ;;		wreg, status,2
  4112 ;; Tracked objects:
  4113 ;;		On entry : 0/0
  4114 ;;		On exit  : 0/0
  4115 ;;		Unchanged: 0/0
  4116 ;; Data sizes:     COMMON   BANK0   BANK1   BANK2   BANK3   BANK4   BANK5   BANK6   BANK7   BANK8   BANK9  BANK10  BANK1
      +1  BANK12
  4117 ;;      Params:         0       0       0       0       0       0       0       0       0       0       0       0       
      +0       0
  4118 ;;      Locals:         0       0       0       0       0       0       0       0       0       0       0       0       
      +0       0
  4119 ;;      Temps:          0       0       0       0       0       0       0       0       0       0       0       0       
      +0       0
  4120 ;;      Totals:         0       0       0       0       0       0       0       0       0       0       0       0       
      +0       0
  4121 ;;Total ram usage:        0 bytes
  4122 ;; Hardware stack levels used: 1
  4123 ;; This function calls:
  4124 ;;		Nothing
  4125 ;; This function is called by:
  4126 ;;		_I2C_MasterFsm
  4127 ;; This function uses a non-reentrant model
  4128 ;;
  4129                           
  4130  0421                     _I2C_DO_IDLE:	
  4131                           ;psect for function _I2C_DO_IDLE
  4132                           
  4133  0421                     l2196:	
  4134                           ;incstack = 0
  4135                           ; Regs used in _I2C_DO_IDLE: [wreg+status,2]
  4136                           
  4137                           
  4138                           ;mcc_generated_files/i2c_master.c: 289:     I2C_Status.busy = 0;
  4139  0421  0020               	movlb	0	; select bank0
  4140  0422  10BC               	bcf	_I2C_Status+28,1
  4141  0423                     l2198:
  4142                           
  4143                           ;mcc_generated_files/i2c_master.c: 290:     I2C_Status.error = I2C_NOERR;
  4144  0423  01BB               	clrf	_I2C_Status+27
  4145  0424                     l2200:
  4146                           
  4147                           ;mcc_generated_files/i2c_master.c: 291:     return I2C_RESET;
  4148  0424  300E               	movlw	14
  4149  0425                     l217:
  4150  0425  0008               	return
  4151  0426                     __end_of_I2C_DO_IDLE:
  4152                           
  4153                           	psect	text29
  4154  0665                     __ptext29:	
  4155 ;; *************** function _I2C_DO_TX_EMPTY *****************
  4156 ;; Defined at:
  4157 ;;		line 363 in file "mcc_generated_files/i2c_master.c"
  4158 ;; Parameters:    Size  Location     Type
  4159 ;;		None
  4160 ;; Auto vars:     Size  Location     Type
  4161 ;;		None
  4162 ;; Return value:  Size  Location     Type
  4163 ;;                  1    wreg      enum E3373
  4164 ;; Registers used:
  4165 ;;		wreg, fsr0l, fsr0h, fsr1l, fsr1h, status,2, status,0, pclath, cstack
  4166 ;; Tracked objects:
  4167 ;;		On entry : 0/0
  4168 ;;		On exit  : 0/0
  4169 ;;		Unchanged: 0/0
  4170 ;; Data sizes:     COMMON   BANK0   BANK1   BANK2   BANK3   BANK4   BANK5   BANK6   BANK7   BANK8   BANK9  BANK10  BANK1
      +1  BANK12
  4171 ;;      Params:         0       0       0       0       0       0       0       0       0       0       0       0       
      +0       0
  4172 ;;      Locals:         0       0       0       0       0       0       0       0       0       0       0       0       
      +0       0
  4173 ;;      Temps:          3       0       0       0       0       0       0       0       0       0       0       0       
      +0       0
  4174 ;;      Totals:         3       0       0       0       0       0       0       0       0       0       0       0       
      +0       0
  4175 ;;Total ram usage:        3 bytes
  4176 ;; Hardware stack levels used: 1
  4177 ;; Hardware stack levels required when called: 3
  4178 ;; This function calls:
  4179 ;;		Absolute function
  4180 ;;		_I2C_CallbackReturnReset
  4181 ;;		_I2C_CallbackReturnStop
  4182 ;;		_I2C_DO_SEND_RESTART
  4183 ;;		_I2C_DO_SEND_STOP
  4184 ;;		_I2C_MasterSetIrq
  4185 ;;		_rd1RegCompleteHandler
  4186 ;;		_rdBlkRegCompleteHandler
  4187 ;;		_wr1RegCompleteHandler
  4188 ;;		_wr2RegCompleteHandler
  4189 ;; This function is called by:
  4190 ;;		_I2C_MasterFsm
  4191 ;; This function uses a non-reentrant model
  4192 ;;
  4193                           
  4194  0665                     _I2C_DO_TX_EMPTY:	
  4195                           ;psect for function _I2C_DO_TX_EMPTY
  4196                           
  4197  0665                     l2292:	
  4198                           ;incstack = 0
  4199                           ; Regs used in _I2C_DO_TX_EMPTY: [wreg-fsr1h+status,2+status,0+pclath+cstack]
  4200                           
  4201                           
  4202                           ;mcc_generated_files/i2c_master.c: 365:     I2C_Status.bufferFree = 1;
  4203  0665  0020               	movlb	0	; select bank0
  4204  0666  15BC               	bsf	_I2C_Status+28,3
  4205                           
  4206                           ;mcc_generated_files/i2c_master.c: 366:     switch(I2C_Status.callbackTable[I2C_DATA_COM
      +                          PLETE](I2C_Status.callbackPayload[I2C_DATA_COMPLETE]))
  4207  0667  2E75               	goto	l2310
  4208  0668                     l2294:
  4209                           
  4210                           ;mcc_generated_files/i2c_master.c: 370:             return I2C_DO_SEND_RESTART();
  4211  0668  3184  2430  3186   	fcall	_I2C_DO_SEND_RESTART
  4212  066B  2E93               	goto	l260
  4213  066C                     l2298:
  4214                           
  4215                           ;mcc_generated_files/i2c_master.c: 372:             I2C_MasterSetIrq();
  4216  066C  3184  240D  3186   	fcall	_I2C_MasterSetIrq
  4217  066F                     l2300:
  4218                           
  4219                           ;mcc_generated_files/i2c_master.c: 373:             return I2C_TX;
  4220  066F  3003               	movlw	3
  4221  0670  2E93               	goto	l260
  4222  0671                     l2304:
  4223                           
  4224                           ;mcc_generated_files/i2c_master.c: 376:             return I2C_DO_SEND_STOP();
  4225  0671  3184  2435  3186   	fcall	_I2C_DO_SEND_STOP
  4226  0674  2E93               	goto	l260
  4227  0675                     l2310:
  4228  0675  082C               	movf	low ((_I2C_Status| 0+12)),w
  4229  0676  00F0               	movwf	??_I2C_DO_TX_EMPTY
  4230  0677  0870               	movf	??_I2C_DO_TX_EMPTY,w
  4231  0678  00F9               	movwf	rdBlkRegCompleteHandler@ptr
  4232  0679  0821               	movf	_I2C_Status+1,w
  4233  067A  008A               	movwf	10
  4234  067B  0820               	movf	_I2C_Status,w
  4235  067C  000A               	callw
  4236  067D  3186               	pagesel	$
  4237  067E  00F1               	movwf	??_I2C_DO_TX_EMPTY+1
  4238  067F  01F2               	clrf	??_I2C_DO_TX_EMPTY+2
  4239                           
  4240                           ; Switch on 2 bytes has been partitioned into a top level switch of size 1, and 1 sub-sw
      +                          itches
  4241                           ; Switch size 1, requested type "simple"
  4242                           ; Number of cases is 1, Range of values is 0 to 0
  4243                           ; switch strategies available:
  4244                           ; Name         Instructions Cycles
  4245                           ; simple_byte            4     3 (average)
  4246                           ; direct_byte            8     6 (fixed)
  4247                           ; jumptable            260     6 (fixed)
  4248                           ;	Chosen strategy is simple_byte
  4249  0680  0872               	movf	??_I2C_DO_TX_EMPTY+2,w
  4250  0681  3A00               	xorlw	0	; case 0
  4251  0682  1903               	skipnz
  4252  0683  2E85               	goto	l2900
  4253  0684  2E71               	goto	l2304
  4254  0685                     l2900:
  4255                           
  4256                           ; Switch size 1, requested type "simple"
  4257                           ; Number of cases is 4, Range of values is 1 to 4
  4258                           ; switch strategies available:
  4259                           ; Name         Instructions Cycles
  4260                           ; simple_byte           13     7 (average)
  4261                           ; direct_byte           17     9 (fixed)
  4262                           ; jumptable            263     9 (fixed)
  4263                           ;	Chosen strategy is simple_byte
  4264  0685  0871               	movf	??_I2C_DO_TX_EMPTY+1,w
  4265  0686  3A01               	xorlw	1	; case 1
  4266  0687  1903               	skipnz
  4267  0688  2E71               	goto	l2304
  4268  0689  3A03               	xorlw	3	; case 2
  4269  068A  1903               	skipnz
  4270  068B  2E68               	goto	l2294
  4271  068C  3A01               	xorlw	1	; case 3
  4272  068D  1903               	skipnz
  4273  068E  2E68               	goto	l2294
  4274  068F  3A07               	xorlw	7	; case 4
  4275  0690  1903               	skipnz
  4276  0691  2E6C               	goto	l2298
  4277  0692  2E71               	goto	l2304
  4278  0693                     l260:
  4279  0693  0008               	return
  4280  0694                     __end_of_I2C_DO_TX_EMPTY:
  4281                           
  4282                           	psect	text30
  4283  040D                     __ptext30:	
  4284 ;; *************** function _I2C_MasterSetIrq *****************
  4285 ;; Defined at:
  4286 ;;		line 599 in file "mcc_generated_files/i2c_master.c"
  4287 ;; Parameters:    Size  Location     Type
  4288 ;;		None
  4289 ;; Auto vars:     Size  Location     Type
  4290 ;;		None
  4291 ;; Return value:  Size  Location     Type
  4292 ;;                  1    wreg      void 
  4293 ;; Registers used:
  4294 ;;		None
  4295 ;; Tracked objects:
  4296 ;;		On entry : 0/0
  4297 ;;		On exit  : 0/0
  4298 ;;		Unchanged: 0/0
  4299 ;; Data sizes:     COMMON   BANK0   BANK1   BANK2   BANK3   BANK4   BANK5   BANK6   BANK7   BANK8   BANK9  BANK10  BANK1
      +1  BANK12
  4300 ;;      Params:         0       0       0       0       0       0       0       0       0       0       0       0       
      +0       0
  4301 ;;      Locals:         0       0       0       0       0       0       0       0       0       0       0       0       
      +0       0
  4302 ;;      Temps:          0       0       0       0       0       0       0       0       0       0       0       0       
      +0       0
  4303 ;;      Totals:         0       0       0       0       0       0       0       0       0       0       0       0       
      +0       0
  4304 ;;Total ram usage:        0 bytes
  4305 ;; Hardware stack levels used: 1
  4306 ;; This function calls:
  4307 ;;		Nothing
  4308 ;; This function is called by:
  4309 ;;		_I2C_DO_TX_EMPTY
  4310 ;; This function uses a non-reentrant model
  4311 ;;
  4312                           
  4313  040D                     _I2C_MasterSetIrq:	
  4314                           ;psect for function _I2C_MasterSetIrq
  4315                           
  4316  040D                     l2154:	
  4317                           ;incstack = 0
  4318                           ; Regs used in _I2C_MasterSetIrq: []
  4319                           
  4320                           
  4321                           ;mcc_generated_files/i2c_master.c: 601:     PIR1bits.SSPIF = 1;
  4322  040D  0020               	movlb	0	; select bank0
  4323  040E  1591               	bsf	17,3	;volatile
  4324  040F                     l380:
  4325  040F  0008               	return
  4326  0410                     __end_of_I2C_MasterSetIrq:
  4327                           
  4328                           	psect	text31
  4329  0458                     __ptext31:	
  4330 ;; *************** function _I2C_MasterIsNack *****************
  4331 ;; Defined at:
  4332 ;;		line 552 in file "mcc_generated_files/i2c_master.c"
  4333 ;; Parameters:    Size  Location     Type
  4334 ;;		None
  4335 ;; Auto vars:     Size  Location     Type
  4336 ;;		None
  4337 ;; Return value:  Size  Location     Type
  4338 ;;                  1    wreg      _Bool 
  4339 ;; Registers used:
  4340 ;;		wreg, status,2, status,0
  4341 ;; Tracked objects:
  4342 ;;		On entry : 0/0
  4343 ;;		On exit  : 0/0
  4344 ;;		Unchanged: 0/0
  4345 ;; Data sizes:     COMMON   BANK0   BANK1   BANK2   BANK3   BANK4   BANK5   BANK6   BANK7   BANK8   BANK9  BANK10  BANK1
      +1  BANK12
  4346 ;;      Params:         0       0       0       0       0       0       0       0       0       0       0       0       
      +0       0
  4347 ;;      Locals:         0       0       0       0       0       0       0       0       0       0       0       0       
      +0       0
  4348 ;;      Temps:          0       0       0       0       0       0       0       0       0       0       0       0       
      +0       0
  4349 ;;      Totals:         0       0       0       0       0       0       0       0       0       0       0       0       
      +0       0
  4350 ;;Total ram usage:        0 bytes
  4351 ;; Hardware stack levels used: 1
  4352 ;; This function calls:
  4353 ;;		Nothing
  4354 ;; This function is called by:
  4355 ;;		_I2C_MasterFsm
  4356 ;;		_I2C_DO_TX
  4357 ;; This function uses a non-reentrant model
  4358 ;;
  4359                           
  4360  0458                     _I2C_MasterIsNack:	
  4361                           ;psect for function _I2C_MasterIsNack
  4362                           
  4363  0458                     l2104:	
  4364                           ;incstack = 0
  4365                           ; Regs used in _I2C_MasterIsNack: [wreg+status,2+status,0]
  4366                           
  4367                           
  4368                           ;mcc_generated_files/i2c_master.c: 554:     return SSPCON2bits.ACKSTAT;
  4369  0458  0024               	movlb	4	; select bank4
  4370  0459  0E16               	swapf	22,w	;volatile
  4371  045A  0C89               	rrf	9,f
  4372  045B  0C89               	rrf	9,f
  4373  045C  3901               	andlw	1
  4374  045D                     l353:
  4375  045D  0008               	return
  4376  045E                     __end_of_I2C_MasterIsNack:
  4377                           
  4378                           	psect	text32
  4379  041C                     __ptext32:	
  4380 ;; *************** function _I2C_MasterSendTxData *****************
  4381 ;; Defined at:
  4382 ;;		line 522 in file "mcc_generated_files/i2c_master.c"
  4383 ;; Parameters:    Size  Location     Type
  4384 ;;  data            1    wreg     unsigned char 
  4385 ;; Auto vars:     Size  Location     Type
  4386 ;;  data            1    0[COMMON] unsigned char 
  4387 ;; Return value:  Size  Location     Type
  4388 ;;                  1    wreg      void 
  4389 ;; Registers used:
  4390 ;;		wreg
  4391 ;; Tracked objects:
  4392 ;;		On entry : 0/0
  4393 ;;		On exit  : 0/0
  4394 ;;		Unchanged: 0/0
  4395 ;; Data sizes:     COMMON   BANK0   BANK1   BANK2   BANK3   BANK4   BANK5   BANK6   BANK7   BANK8   BANK9  BANK10  BANK1
      +1  BANK12
  4396 ;;      Params:         0       0       0       0       0       0       0       0       0       0       0       0       
      +0       0
  4397 ;;      Locals:         1       0       0       0       0       0       0       0       0       0       0       0       
      +0       0
  4398 ;;      Temps:          0       0       0       0       0       0       0       0       0       0       0       0       
      +0       0
  4399 ;;      Totals:         1       0       0       0       0       0       0       0       0       0       0       0       
      +0       0
  4400 ;;Total ram usage:        1 bytes
  4401 ;; Hardware stack levels used: 1
  4402 ;; This function calls:
  4403 ;;		Nothing
  4404 ;; This function is called by:
  4405 ;;		_I2C_DO_SEND_ADR_READ
  4406 ;;		_I2C_DO_SEND_ADR_WRITE
  4407 ;;		_I2C_DO_TX
  4408 ;; This function uses a non-reentrant model
  4409 ;;
  4410                           
  4411  041C                     _I2C_MasterSendTxData:	
  4412                           ;psect for function _I2C_MasterSendTxData
  4413                           
  4414                           
  4415                           ;incstack = 0
  4416                           ; Regs used in _I2C_MasterSendTxData: [wreg]
  4417                           ;I2C_MasterSendTxData@data stored from wreg
  4418  041C  00F0               	movwf	I2C_MasterSendTxData@data
  4419  041D                     l2108:
  4420                           
  4421                           ;mcc_generated_files/i2c_master.c: 522: static __attribute__((inline)) void I2C_MasterSe
      +                          ndTxData(uint8_t data);mcc_generated_files/i2c_master.c: 523: {;mcc_generated_files/i2c_
      +                          master.c: 524:     SSPBUF = data;
  4422  041D  0870               	movf	I2C_MasterSendTxData@data,w
  4423  041E  0024               	movlb	4	; select bank4
  4424  041F  0091               	movwf	17	;volatile
  4425  0420                     l335:
  4426  0420  0008               	return
  4427  0421                     __end_of_I2C_MasterSendTxData:
  4428                           
  4429                           	psect	text33
  4430  0418                     __ptext33:	
  4431 ;; *************** function _I2C_MasterSendAck *****************
  4432 ;; Defined at:
  4433 ;;		line 557 in file "mcc_generated_files/i2c_master.c"
  4434 ;; Parameters:    Size  Location     Type
  4435 ;;		None
  4436 ;; Auto vars:     Size  Location     Type
  4437 ;;		None
  4438 ;; Return value:  Size  Location     Type
  4439 ;;                  1    wreg      void 
  4440 ;; Registers used:
  4441 ;;		None
  4442 ;; Tracked objects:
  4443 ;;		On entry : 0/0
  4444 ;;		On exit  : 0/0
  4445 ;;		Unchanged: 0/0
  4446 ;; Data sizes:     COMMON   BANK0   BANK1   BANK2   BANK3   BANK4   BANK5   BANK6   BANK7   BANK8   BANK9  BANK10  BANK1
      +1  BANK12
  4447 ;;      Params:         0       0       0       0       0       0       0       0       0       0       0       0       
      +0       0
  4448 ;;      Locals:         0       0       0       0       0       0       0       0       0       0       0       0       
      +0       0
  4449 ;;      Temps:          0       0       0       0       0       0       0       0       0       0       0       0       
      +0       0
  4450 ;;      Totals:         0       0       0       0       0       0       0       0       0       0       0       0       
      +0       0
  4451 ;;Total ram usage:        0 bytes
  4452 ;; Hardware stack levels used: 1
  4453 ;; This function calls:
  4454 ;;		Nothing
  4455 ;; This function is called by:
  4456 ;;		_I2C_DO_RX
  4457 ;;		_I2C_DO_RX_ACK
  4458 ;; This function uses a non-reentrant model
  4459 ;;
  4460                           
  4461  0418                     _I2C_MasterSendAck:	
  4462                           ;psect for function _I2C_MasterSendAck
  4463                           
  4464  0418                     l2132:	
  4465                           ;incstack = 0
  4466                           ; Regs used in _I2C_MasterSendAck: []
  4467                           
  4468                           
  4469                           ;mcc_generated_files/i2c_master.c: 559:     SSPCON2bits.ACKDT = 0;
  4470  0418  0024               	movlb	4	; select bank4
  4471  0419  1296               	bcf	22,5	;volatile
  4472                           
  4473                           ;mcc_generated_files/i2c_master.c: 560:     SSPCON2bits.ACKEN = 1;
  4474  041A  1616               	bsf	22,4	;volatile
  4475  041B                     l356:
  4476  041B  0008               	return
  4477  041C                     __end_of_I2C_MasterSendAck:
  4478                           
  4479                           	psect	text34
  4480  040A                     __ptext34:	
  4481 ;; *************** function _I2C_MasterGetRxData *****************
  4482 ;; Defined at:
  4483 ;;		line 517 in file "mcc_generated_files/i2c_master.c"
  4484 ;; Parameters:    Size  Location     Type
  4485 ;;		None
  4486 ;; Auto vars:     Size  Location     Type
  4487 ;;		None
  4488 ;; Return value:  Size  Location     Type
  4489 ;;                  1    wreg      unsigned char 
  4490 ;; Registers used:
  4491 ;;		wreg
  4492 ;; Tracked objects:
  4493 ;;		On entry : 0/0
  4494 ;;		On exit  : 0/0
  4495 ;;		Unchanged: 0/0
  4496 ;; Data sizes:     COMMON   BANK0   BANK1   BANK2   BANK3   BANK4   BANK5   BANK6   BANK7   BANK8   BANK9  BANK10  BANK1
      +1  BANK12
  4497 ;;      Params:         0       0       0       0       0       0       0       0       0       0       0       0       
      +0       0
  4498 ;;      Locals:         0       0       0       0       0       0       0       0       0       0       0       0       
      +0       0
  4499 ;;      Temps:          0       0       0       0       0       0       0       0       0       0       0       0       
      +0       0
  4500 ;;      Totals:         0       0       0       0       0       0       0       0       0       0       0       0       
      +0       0
  4501 ;;Total ram usage:        0 bytes
  4502 ;; Hardware stack levels used: 1
  4503 ;; This function calls:
  4504 ;;		Nothing
  4505 ;; This function is called by:
  4506 ;;		_I2C_DO_RX
  4507 ;; This function uses a non-reentrant model
  4508 ;;
  4509                           
  4510  040A                     _I2C_MasterGetRxData:	
  4511                           ;psect for function _I2C_MasterGetRxData
  4512                           
  4513  040A                     l2128:	
  4514                           ;incstack = 0
  4515                           ; Regs used in _I2C_MasterGetRxData: [wreg]
  4516                           
  4517                           
  4518                           ;mcc_generated_files/i2c_master.c: 519:     return SSPBUF;
  4519  040A  0024               	movlb	4	; select bank4
  4520  040B  0811               	movf	17,w	;volatile
  4521  040C                     l332:
  4522  040C  0008               	return
  4523  040D                     __end_of_I2C_MasterGetRxData:
  4524                           
  4525                           	psect	text35
  4526  0414                     __ptext35:	
  4527 ;; *************** function _I2C_MasterSendNack *****************
  4528 ;; Defined at:
  4529 ;;		line 563 in file "mcc_generated_files/i2c_master.c"
  4530 ;; Parameters:    Size  Location     Type
  4531 ;;		None
  4532 ;; Auto vars:     Size  Location     Type
  4533 ;;		None
  4534 ;; Return value:  Size  Location     Type
  4535 ;;                  1    wreg      void 
  4536 ;; Registers used:
  4537 ;;		None
  4538 ;; Tracked objects:
  4539 ;;		On entry : 0/0
  4540 ;;		On exit  : 0/0
  4541 ;;		Unchanged: 0/0
  4542 ;; Data sizes:     COMMON   BANK0   BANK1   BANK2   BANK3   BANK4   BANK5   BANK6   BANK7   BANK8   BANK9  BANK10  BANK1
      +1  BANK12
  4543 ;;      Params:         0       0       0       0       0       0       0       0       0       0       0       0       
      +0       0
  4544 ;;      Locals:         0       0       0       0       0       0       0       0       0       0       0       0       
      +0       0
  4545 ;;      Temps:          0       0       0       0       0       0       0       0       0       0       0       0       
      +0       0
  4546 ;;      Totals:         0       0       0       0       0       0       0       0       0       0       0       0       
      +0       0
  4547 ;;Total ram usage:        0 bytes
  4548 ;; Hardware stack levels used: 1
  4549 ;; This function calls:
  4550 ;;		Nothing
  4551 ;; This function is called by:
  4552 ;;		_I2C_DO_RX_NACK_STOP
  4553 ;;		_I2C_DO_RX_NACK_RESTART
  4554 ;; This function uses a non-reentrant model
  4555 ;;
  4556                           
  4557  0414                     _I2C_MasterSendNack:	
  4558                           ;psect for function _I2C_MasterSendNack
  4559                           
  4560  0414                     l2102:	
  4561                           ;incstack = 0
  4562                           ; Regs used in _I2C_MasterSendNack: []
  4563                           
  4564                           
  4565                           ;mcc_generated_files/i2c_master.c: 565:     SSPCON2bits.ACKDT = 1;
  4566  0414  0024               	movlb	4	; select bank4
  4567  0415  1696               	bsf	22,5	;volatile
  4568                           
  4569                           ;mcc_generated_files/i2c_master.c: 566:     SSPCON2bits.ACKEN = 1;
  4570  0416  1616               	bsf	22,4	;volatile
  4571  0417                     l359:
  4572  0417  0008               	return
  4573  0418                     __end_of_I2C_MasterSendNack:
  4574                           
  4575                           	psect	text36
  4576  0407                     __ptext36:	
  4577 ;; *************** function _I2C_MasterStartRx *****************
  4578 ;; Defined at:
  4579 ;;		line 537 in file "mcc_generated_files/i2c_master.c"
  4580 ;; Parameters:    Size  Location     Type
  4581 ;;		None
  4582 ;; Auto vars:     Size  Location     Type
  4583 ;;		None
  4584 ;; Return value:  Size  Location     Type
  4585 ;;                  1    wreg      void 
  4586 ;; Registers used:
  4587 ;;		None
  4588 ;; Tracked objects:
  4589 ;;		On entry : 0/0
  4590 ;;		On exit  : 0/0
  4591 ;;		Unchanged: 0/0
  4592 ;; Data sizes:     COMMON   BANK0   BANK1   BANK2   BANK3   BANK4   BANK5   BANK6   BANK7   BANK8   BANK9  BANK10  BANK1
      +1  BANK12
  4593 ;;      Params:         0       0       0       0       0       0       0       0       0       0       0       0       
      +0       0
  4594 ;;      Locals:         0       0       0       0       0       0       0       0       0       0       0       0       
      +0       0
  4595 ;;      Temps:          0       0       0       0       0       0       0       0       0       0       0       0       
      +0       0
  4596 ;;      Totals:         0       0       0       0       0       0       0       0       0       0       0       0       
      +0       0
  4597 ;;Total ram usage:        0 bytes
  4598 ;; Hardware stack levels used: 1
  4599 ;; This function calls:
  4600 ;;		Nothing
  4601 ;; This function is called by:
  4602 ;;		_I2C_DO_RCEN
  4603 ;; This function uses a non-reentrant model
  4604 ;;
  4605                           
  4606  0407                     _I2C_MasterStartRx:	
  4607                           ;psect for function _I2C_MasterStartRx
  4608                           
  4609  0407                     l2146:	
  4610                           ;incstack = 0
  4611                           ; Regs used in _I2C_MasterStartRx: []
  4612                           
  4613                           
  4614                           ;mcc_generated_files/i2c_master.c: 539:     SSPCON2bits.RCEN = 1;
  4615  0407  0024               	movlb	4	; select bank4
  4616  0408  1596               	bsf	22,3	;volatile
  4617  0409                     l344:
  4618  0409  0008               	return
  4619  040A                     __end_of_I2C_MasterStartRx:
  4620                           
  4621                           	psect	text37
  4622  0530                     __ptext37:	
  4623 ;; *************** function _rdBlkRegCompleteHandler *****************
  4624 ;; Defined at:
  4625 ;;		line 743 in file "mcc_generated_files/i2c_master.c"
  4626 ;; Parameters:    Size  Location     Type
  4627 ;;  ptr             1    9[COMMON] PTR void 
  4628 ;;		 -> I2C_ReadDataBlock@bufferBlock(3), I2C_Write2ByteRegister@data(2), I2C_Write1ByteRegister@data(1), I2C_Read2ByteR
      +egister@returnValue(1), 
  4629 ;;		 -> I2C_Read1ByteRegister@returnValue(1), NULL(0), 
  4630 ;; Auto vars:     Size  Location     Type
  4631 ;;		None
  4632 ;; Return value:  Size  Location     Type
  4633 ;;                  1    wreg      enum E360
  4634 ;; Registers used:
  4635 ;;		wreg, fsr1l, fsr1h, status,2, status,0, pclath, cstack
  4636 ;; Tracked objects:
  4637 ;;		On entry : 0/0
  4638 ;;		On exit  : 0/0
  4639 ;;		Unchanged: 0/0
  4640 ;; Data sizes:     COMMON   BANK0   BANK1   BANK2   BANK3   BANK4   BANK5   BANK6   BANK7   BANK8   BANK9  BANK10  BANK1
      +1  BANK12
  4641 ;;      Params:         1       0       0       0       0       0       0       0       0       0       0       0       
      +0       0
  4642 ;;      Locals:         0       0       0       0       0       0       0       0       0       0       0       0       
      +0       0
  4643 ;;      Temps:          0       0       0       0       0       0       0       0       0       0       0       0       
      +0       0
  4644 ;;      Totals:         1       0       0       0       0       0       0       0       0       0       0       0       
      +0       0
  4645 ;;Total ram usage:        1 bytes
  4646 ;; Hardware stack levels used: 1
  4647 ;; Hardware stack levels required when called: 2
  4648 ;; This function calls:
  4649 ;;		_I2C_SetBuffer
  4650 ;;		_I2C_SetDataCompleteCallback
  4651 ;; This function is called by:
  4652 ;;		_I2C_ReadDataBlock
  4653 ;;		_I2C_DO_TX
  4654 ;;		_I2C_DO_RX
  4655 ;;		_I2C_DO_TX_EMPTY
  4656 ;;		_I2C_DO_ADDRESS_NACK
  4657 ;;		_I2C_DO_RX_EMPTY
  4658 ;; This function uses a non-reentrant model
  4659 ;;
  4660                           
  4661  0530                     _rdBlkRegCompleteHandler:	
  4662                           ;psect for function _rdBlkRegCompleteHandler
  4663                           
  4664  0530                     l2188:	
  4665                           ;incstack = 0
  4666                           ; Regs used in _rdBlkRegCompleteHandler: [wreg+fsr1l+fsr1h+status,2+status,0+pclath+csta
      +                          ck]
  4667                           
  4668                           
  4669                           ;mcc_generated_files/i2c_master.c: 743: static i2c_operations_t rdBlkRegCompleteHandler(
      +                          void *ptr);mcc_generated_files/i2c_master.c: 744: {;mcc_generated_files/i2c_master.c: 74
      +                          5:     I2C_SetBuffer(((i2c_buffer_t *)ptr)->data,((i2c_buffer_t*)ptr)->len);
  4670  0530  0879               	movf	rdBlkRegCompleteHandler@ptr,w
  4671  0531  0086               	movwf	6
  4672  0532  0187               	clrf	7
  4673  0533  3F40               	moviw [0]fsr1
  4674  0534  00F0               	movwf	I2C_SetBuffer@bufferSize
  4675  0535  3F41               	moviw [1]fsr1
  4676  0536  00F1               	movwf	I2C_SetBuffer@bufferSize+1
  4677  0537  0879               	movf	rdBlkRegCompleteHandler@ptr,w
  4678  0538  3E02               	addlw	2
  4679  0539  0086               	movwf	6
  4680  053A  0187               	clrf	7
  4681  053B  0801               	movf	1,w
  4682  053C  3184  24ED  3185   	fcall	_I2C_SetBuffer
  4683                           
  4684                           ;mcc_generated_files/i2c_master.c: 746:     I2C_SetDataCompleteCallback(((void*)0),((voi
      +                          d*)0));
  4685  053F  3000               	movlw	0
  4686  0540  00F5               	movwf	I2C_SetDataCompleteCallback@cb
  4687  0541  00F6               	movwf	I2C_SetDataCompleteCallback@cb+1
  4688  0542  01F7               	clrf	I2C_SetDataCompleteCallback@ptr
  4689  0543  3184  24B9  3185   	fcall	_I2C_SetDataCompleteCallback
  4690  0546                     l2190:
  4691                           
  4692                           ;mcc_generated_files/i2c_master.c: 747:     return I2C_RESTART_READ;
  4693  0546  3002               	movlw	2
  4694  0547                     l465:
  4695  0547  0008               	return
  4696  0548                     __end_of_rdBlkRegCompleteHandler:
  4697                           
  4698                           	psect	text38
  4699  051F                     __ptext38:	
  4700 ;; *************** function _wr1RegCompleteHandler *****************
  4701 ;; Defined at:
  4702 ;;		line 729 in file "mcc_generated_files/i2c_master.c"
  4703 ;; Parameters:    Size  Location     Type
  4704 ;;  ptr             1    9[COMMON] PTR void 
  4705 ;;		 -> I2C_ReadDataBlock@bufferBlock(3), I2C_Write2ByteRegister@data(2), I2C_Write1ByteRegister@data(1), I2C_Read2ByteR
      +egister@returnValue(1), 
  4706 ;;		 -> I2C_Read1ByteRegister@returnValue(1), NULL(0), 
  4707 ;; Auto vars:     Size  Location     Type
  4708 ;;		None
  4709 ;; Return value:  Size  Location     Type
  4710 ;;                  1    wreg      enum E360
  4711 ;; Registers used:
  4712 ;;		wreg, fsr1l, fsr1h, status,2, status,0, pclath, cstack
  4713 ;; Tracked objects:
  4714 ;;		On entry : 0/0
  4715 ;;		On exit  : 0/0
  4716 ;;		Unchanged: 0/0
  4717 ;; Data sizes:     COMMON   BANK0   BANK1   BANK2   BANK3   BANK4   BANK5   BANK6   BANK7   BANK8   BANK9  BANK10  BANK1
      +1  BANK12
  4718 ;;      Params:         1       0       0       0       0       0       0       0       0       0       0       0       
      +0       0
  4719 ;;      Locals:         0       0       0       0       0       0       0       0       0       0       0       0       
      +0       0
  4720 ;;      Temps:          0       0       0       0       0       0       0       0       0       0       0       0       
      +0       0
  4721 ;;      Totals:         1       0       0       0       0       0       0       0       0       0       0       0       
      +0       0
  4722 ;;Total ram usage:        1 bytes
  4723 ;; Hardware stack levels used: 1
  4724 ;; Hardware stack levels required when called: 2
  4725 ;; This function calls:
  4726 ;;		_I2C_SetBuffer
  4727 ;;		_I2C_SetDataCompleteCallback
  4728 ;; This function is called by:
  4729 ;;		_I2C_Write1ByteRegister
  4730 ;;		_I2C_DO_TX
  4731 ;;		_I2C_DO_RX
  4732 ;;		_I2C_DO_TX_EMPTY
  4733 ;;		_I2C_DO_ADDRESS_NACK
  4734 ;;		_I2C_DO_RX_EMPTY
  4735 ;; This function uses a non-reentrant model
  4736 ;;
  4737                           
  4738  051F                     _wr1RegCompleteHandler:	
  4739                           ;psect for function _wr1RegCompleteHandler
  4740                           
  4741  051F                     l2172:	
  4742                           ;incstack = 0
  4743                           ; Regs used in _wr1RegCompleteHandler: [wreg+fsr1l+fsr1h+status,2+status,0+pclath+cstack
      +                          ]
  4744                           
  4745                           
  4746                           ;mcc_generated_files/i2c_master.c: 729: static i2c_operations_t wr1RegCompleteHandler(vo
      +                          id *ptr);mcc_generated_files/i2c_master.c: 730: {;mcc_generated_files/i2c_master.c: 731:
      +                               I2C_SetBuffer(ptr,1);
  4747  051F  3001               	movlw	1
  4748  0520  00F0               	movwf	I2C_SetBuffer@bufferSize
  4749  0521  3000               	movlw	0
  4750  0522  00F1               	movwf	I2C_SetBuffer@bufferSize+1
  4751  0523  0879               	movf	wr1RegCompleteHandler@ptr,w
  4752  0524  3184  24ED  3185   	fcall	_I2C_SetBuffer
  4753  0527                     l2174:
  4754                           
  4755                           ;mcc_generated_files/i2c_master.c: 732:     I2C_SetDataCompleteCallback(((void*)0),((voi
      +                          d*)0));
  4756  0527  3000               	movlw	0
  4757  0528  00F5               	movwf	I2C_SetDataCompleteCallback@cb
  4758  0529  00F6               	movwf	I2C_SetDataCompleteCallback@cb+1
  4759  052A  01F7               	clrf	I2C_SetDataCompleteCallback@ptr
  4760  052B  3184  24B9  3185   	fcall	_I2C_SetDataCompleteCallback
  4761  052E                     l2176:
  4762                           
  4763                           ;mcc_generated_files/i2c_master.c: 733:     return I2C_CONTINUE;
  4764  052E  3004               	movlw	4
  4765  052F                     l459:
  4766  052F  0008               	return
  4767  0530                     __end_of_wr1RegCompleteHandler:
  4768                           
  4769                           	psect	text39
  4770  050E                     __ptext39:	
  4771 ;; *************** function _rd1RegCompleteHandler *****************
  4772 ;; Defined at:
  4773 ;;		line 715 in file "mcc_generated_files/i2c_master.c"
  4774 ;; Parameters:    Size  Location     Type
  4775 ;;  ptr             1    9[COMMON] PTR void 
  4776 ;;		 -> I2C_ReadDataBlock@bufferBlock(3), I2C_Write2ByteRegister@data(2), I2C_Write1ByteRegister@data(1), I2C_Read2ByteR
      +egister@returnValue(1), 
  4777 ;;		 -> I2C_Read1ByteRegister@returnValue(1), NULL(0), 
  4778 ;; Auto vars:     Size  Location     Type
  4779 ;;		None
  4780 ;; Return value:  Size  Location     Type
  4781 ;;                  1    wreg      enum E360
  4782 ;; Registers used:
  4783 ;;		wreg, fsr1l, fsr1h, status,2, status,0, pclath, cstack
  4784 ;; Tracked objects:
  4785 ;;		On entry : 0/0
  4786 ;;		On exit  : 0/0
  4787 ;;		Unchanged: 0/0
  4788 ;; Data sizes:     COMMON   BANK0   BANK1   BANK2   BANK3   BANK4   BANK5   BANK6   BANK7   BANK8   BANK9  BANK10  BANK1
      +1  BANK12
  4789 ;;      Params:         1       0       0       0       0       0       0       0       0       0       0       0       
      +0       0
  4790 ;;      Locals:         0       0       0       0       0       0       0       0       0       0       0       0       
      +0       0
  4791 ;;      Temps:          0       0       0       0       0       0       0       0       0       0       0       0       
      +0       0
  4792 ;;      Totals:         1       0       0       0       0       0       0       0       0       0       0       0       
      +0       0
  4793 ;;Total ram usage:        1 bytes
  4794 ;; Hardware stack levels used: 1
  4795 ;; Hardware stack levels required when called: 2
  4796 ;; This function calls:
  4797 ;;		_I2C_SetBuffer
  4798 ;;		_I2C_SetDataCompleteCallback
  4799 ;; This function is called by:
  4800 ;;		_I2C_Read1ByteRegister
  4801 ;;		_I2C_Read2ByteRegister
  4802 ;;		_I2C_DO_TX
  4803 ;;		_I2C_DO_RX
  4804 ;;		_I2C_DO_TX_EMPTY
  4805 ;;		_I2C_DO_ADDRESS_NACK
  4806 ;;		_I2C_DO_RX_EMPTY
  4807 ;; This function uses a non-reentrant model
  4808 ;;
  4809                           
  4810  050E                     _rd1RegCompleteHandler:	
  4811                           ;psect for function _rd1RegCompleteHandler
  4812                           
  4813  050E                     l2164:	
  4814                           ;incstack = 0
  4815                           ; Regs used in _rd1RegCompleteHandler: [wreg+fsr1l+fsr1h+status,2+status,0+pclath+cstack
      +                          ]
  4816                           
  4817                           
  4818                           ;mcc_generated_files/i2c_master.c: 715: static i2c_operations_t rd1RegCompleteHandler(vo
      +                          id *ptr);mcc_generated_files/i2c_master.c: 716: {;mcc_generated_files/i2c_master.c: 717:
      +                               I2C_SetBuffer(ptr,1);
  4819  050E  3001               	movlw	1
  4820  050F  00F0               	movwf	I2C_SetBuffer@bufferSize
  4821  0510  3000               	movlw	0
  4822  0511  00F1               	movwf	I2C_SetBuffer@bufferSize+1
  4823  0512  0879               	movf	rd1RegCompleteHandler@ptr,w
  4824  0513  3184  24ED  3185   	fcall	_I2C_SetBuffer
  4825  0516                     l2166:
  4826                           
  4827                           ;mcc_generated_files/i2c_master.c: 718:     I2C_SetDataCompleteCallback(((void*)0),((voi
      +                          d*)0));
  4828  0516  3000               	movlw	0
  4829  0517  00F5               	movwf	I2C_SetDataCompleteCallback@cb
  4830  0518  00F6               	movwf	I2C_SetDataCompleteCallback@cb+1
  4831  0519  01F7               	clrf	I2C_SetDataCompleteCallback@ptr
  4832  051A  3184  24B9  3185   	fcall	_I2C_SetDataCompleteCallback
  4833  051D                     l2168:
  4834                           
  4835                           ;mcc_generated_files/i2c_master.c: 719:     return I2C_RESTART_READ;
  4836  051D  3002               	movlw	2
  4837  051E                     l453:
  4838  051E  0008               	return
  4839  051F                     __end_of_rd1RegCompleteHandler:
  4840                           
  4841                           	psect	text40
  4842  03F3                     __ptext40:	
  4843 ;; *************** function _I2C_CallbackReturnReset *****************
  4844 ;; Defined at:
  4845 ;;		line 479 in file "mcc_generated_files/i2c_master.c"
  4846 ;; Parameters:    Size  Location     Type
  4847 ;;  funPtr          1    9[COMMON] PTR void 
  4848 ;;		 -> I2C_ReadDataBlock@bufferBlock(3), I2C_Write2ByteRegister@data(2), I2C_Write1ByteRegister@data(1), I2C_Read2ByteR
      +egister@returnValue(1), 
  4849 ;;		 -> I2C_Read1ByteRegister@returnValue(1), NULL(0), 
  4850 ;; Auto vars:     Size  Location     Type
  4851 ;;		None
  4852 ;; Return value:  Size  Location     Type
  4853 ;;                  1    wreg      enum E360
  4854 ;; Registers used:
  4855 ;;		wreg
  4856 ;; Tracked objects:
  4857 ;;		On entry : 0/0
  4858 ;;		On exit  : 0/0
  4859 ;;		Unchanged: 0/0
  4860 ;; Data sizes:     COMMON   BANK0   BANK1   BANK2   BANK3   BANK4   BANK5   BANK6   BANK7   BANK8   BANK9  BANK10  BANK1
      +1  BANK12
  4861 ;;      Params:         1       0       0       0       0       0       0       0       0       0       0       0       
      +0       0
  4862 ;;      Locals:         0       0       0       0       0       0       0       0       0       0       0       0       
      +0       0
  4863 ;;      Temps:          0       0       0       0       0       0       0       0       0       0       0       0       
      +0       0
  4864 ;;      Totals:         1       0       0       0       0       0       0       0       0       0       0       0       
      +0       0
  4865 ;;Total ram usage:        1 bytes
  4866 ;; Hardware stack levels used: 1
  4867 ;; This function calls:
  4868 ;;		Nothing
  4869 ;; This function is called by:
  4870 ;;		_I2C_Open
  4871 ;;		_I2C_DO_TX
  4872 ;;		_I2C_DO_RX
  4873 ;;		_I2C_DO_TX_EMPTY
  4874 ;;		_I2C_DO_ADDRESS_NACK
  4875 ;;		_I2C_DO_RX_EMPTY
  4876 ;; This function uses a non-reentrant model
  4877 ;;
  4878                           
  4879  03F3                     _I2C_CallbackReturnReset:	
  4880                           ;psect for function _I2C_CallbackReturnReset
  4881                           
  4882  03F3                     l2160:	
  4883                           ;incstack = 0
  4884                           ; Regs used in _I2C_CallbackReturnReset: [wreg]
  4885                           
  4886                           
  4887                           ;mcc_generated_files/i2c_master.c: 479: i2c_operations_t I2C_CallbackReturnReset(void *f
      +                          unPtr);mcc_generated_files/i2c_master.c: 480: {;mcc_generated_files/i2c_master.c: 481:  
      +                             return I2C_RESET_LINK;
  4888  03F3  3005               	movlw	5
  4889  03F4                     l316:
  4890  03F4  0008               	return
  4891  03F5                     __end_of_I2C_CallbackReturnReset:
  4892                           
  4893                           	psect	text41
  4894  03F1                     __ptext41:	
  4895 ;; *************** function _I2C_CallbackReturnStop *****************
  4896 ;; Defined at:
  4897 ;;		line 474 in file "mcc_generated_files/i2c_master.c"
  4898 ;; Parameters:    Size  Location     Type
  4899 ;;  funPtr          1    9[COMMON] PTR void 
  4900 ;;		 -> I2C_ReadDataBlock@bufferBlock(3), I2C_Write2ByteRegister@data(2), I2C_Write1ByteRegister@data(1), I2C_Read2ByteR
      +egister@returnValue(1), 
  4901 ;;		 -> I2C_Read1ByteRegister@returnValue(1), NULL(0), 
  4902 ;; Auto vars:     Size  Location     Type
  4903 ;;		None
  4904 ;; Return value:  Size  Location     Type
  4905 ;;                  1    wreg      enum E360
  4906 ;; Registers used:
  4907 ;;		wreg
  4908 ;; Tracked objects:
  4909 ;;		On entry : 0/0
  4910 ;;		On exit  : 0/0
  4911 ;;		Unchanged: 0/0
  4912 ;; Data sizes:     COMMON   BANK0   BANK1   BANK2   BANK3   BANK4   BANK5   BANK6   BANK7   BANK8   BANK9  BANK10  BANK1
      +1  BANK12
  4913 ;;      Params:         1       0       0       0       0       0       0       0       0       0       0       0       
      +0       0
  4914 ;;      Locals:         0       0       0       0       0       0       0       0       0       0       0       0       
      +0       0
  4915 ;;      Temps:          0       0       0       0       0       0       0       0       0       0       0       0       
      +0       0
  4916 ;;      Totals:         1       0       0       0       0       0       0       0       0       0       0       0       
      +0       0
  4917 ;;Total ram usage:        1 bytes
  4918 ;; Hardware stack levels used: 1
  4919 ;; This function calls:
  4920 ;;		Nothing
  4921 ;; This function is called by:
  4922 ;;		_I2C_Open
  4923 ;;		_I2C_SetCallback
  4924 ;;		_I2C_DO_TX
  4925 ;;		_I2C_DO_RX
  4926 ;;		_I2C_DO_TX_EMPTY
  4927 ;;		_I2C_DO_ADDRESS_NACK
  4928 ;;		_I2C_DO_RX_EMPTY
  4929 ;; This function uses a non-reentrant model
  4930 ;;
  4931                           
  4932  03F1                     _I2C_CallbackReturnStop:	
  4933                           ;psect for function _I2C_CallbackReturnStop
  4934                           
  4935  03F1                     l2156:	
  4936                           ;incstack = 0
  4937                           ; Regs used in _I2C_CallbackReturnStop: [wreg]
  4938                           
  4939                           
  4940                           ;mcc_generated_files/i2c_master.c: 474: i2c_operations_t I2C_CallbackReturnStop(void *fu
      +                          nPtr);mcc_generated_files/i2c_master.c: 475: {;mcc_generated_files/i2c_master.c: 476:   
      +                            return I2C_STOP;
  4941  03F1  3001               	movlw	1
  4942  03F2                     l313:
  4943  03F2  0008               	return
  4944  03F3                     __end_of_I2C_CallbackReturnStop:
  4945                           
  4946                           	psect	text42
  4947  04FD                     __ptext42:	
  4948 ;; *************** function _wr2RegCompleteHandler *****************
  4949 ;; Defined at:
  4950 ;;		line 736 in file "mcc_generated_files/i2c_master.c"
  4951 ;; Parameters:    Size  Location     Type
  4952 ;;  ptr             1    9[COMMON] PTR void 
  4953 ;;		 -> I2C_ReadDataBlock@bufferBlock(3), I2C_Write2ByteRegister@data(2), I2C_Write1ByteRegister@data(1), I2C_Read2ByteR
      +egister@returnValue(1), 
  4954 ;;		 -> I2C_Read1ByteRegister@returnValue(1), NULL(0), 
  4955 ;; Auto vars:     Size  Location     Type
  4956 ;;		None
  4957 ;; Return value:  Size  Location     Type
  4958 ;;                  1    wreg      enum E360
  4959 ;; Registers used:
  4960 ;;		wreg, fsr1l, fsr1h, status,2, status,0, pclath, cstack
  4961 ;; Tracked objects:
  4962 ;;		On entry : 0/0
  4963 ;;		On exit  : 0/0
  4964 ;;		Unchanged: 0/0
  4965 ;; Data sizes:     COMMON   BANK0   BANK1   BANK2   BANK3   BANK4   BANK5   BANK6   BANK7   BANK8   BANK9  BANK10  BANK1
      +1  BANK12
  4966 ;;      Params:         1       0       0       0       0       0       0       0       0       0       0       0       
      +0       0
  4967 ;;      Locals:         0       0       0       0       0       0       0       0       0       0       0       0       
      +0       0
  4968 ;;      Temps:          0       0       0       0       0       0       0       0       0       0       0       0       
      +0       0
  4969 ;;      Totals:         1       0       0       0       0       0       0       0       0       0       0       0       
      +0       0
  4970 ;;Total ram usage:        1 bytes
  4971 ;; Hardware stack levels used: 1
  4972 ;; Hardware stack levels required when called: 2
  4973 ;; This function calls:
  4974 ;;		_I2C_SetBuffer
  4975 ;;		_I2C_SetDataCompleteCallback
  4976 ;; This function is called by:
  4977 ;;		_I2C_Write2ByteRegister
  4978 ;;		_I2C_DO_TX
  4979 ;;		_I2C_DO_RX
  4980 ;;		_I2C_DO_TX_EMPTY
  4981 ;;		_I2C_DO_ADDRESS_NACK
  4982 ;;		_I2C_DO_RX_EMPTY
  4983 ;; This function uses a non-reentrant model
  4984 ;;
  4985                           
  4986  04FD                     _wr2RegCompleteHandler:	
  4987                           ;psect for function _wr2RegCompleteHandler
  4988                           
  4989  04FD                     l2180:	
  4990                           ;incstack = 0
  4991                           ; Regs used in _wr2RegCompleteHandler: [wreg+fsr1l+fsr1h+status,2+status,0+pclath+cstack
      +                          ]
  4992                           
  4993                           
  4994                           ;mcc_generated_files/i2c_master.c: 736: static i2c_operations_t wr2RegCompleteHandler(vo
      +                          id *ptr);mcc_generated_files/i2c_master.c: 737: {;mcc_generated_files/i2c_master.c: 738:
      +                               I2C_SetBuffer(ptr,2);
  4995  04FD  3002               	movlw	2
  4996  04FE  00F0               	movwf	I2C_SetBuffer@bufferSize
  4997  04FF  3000               	movlw	0
  4998  0500  00F1               	movwf	I2C_SetBuffer@bufferSize+1
  4999  0501  0879               	movf	wr2RegCompleteHandler@ptr,w
  5000  0502  3184  24ED  3184   	fcall	_I2C_SetBuffer
  5001  0505                     l2182:
  5002                           
  5003                           ;mcc_generated_files/i2c_master.c: 739:     I2C_SetDataCompleteCallback(((void*)0),((voi
      +                          d*)0));
  5004  0505  3000               	movlw	0
  5005  0506  00F5               	movwf	I2C_SetDataCompleteCallback@cb
  5006  0507  00F6               	movwf	I2C_SetDataCompleteCallback@cb+1
  5007  0508  01F7               	clrf	I2C_SetDataCompleteCallback@ptr
  5008  0509  3184  24B9  3184   	fcall	_I2C_SetDataCompleteCallback
  5009  050C                     l2184:
  5010                           
  5011                           ;mcc_generated_files/i2c_master.c: 740:     return I2C_CONTINUE;
  5012  050C  3004               	movlw	4
  5013  050D                     l462:
  5014  050D  0008               	return
  5015  050E                     __end_of_wr2RegCompleteHandler:
  5016                           
  5017                           	psect	text43
  5018  04B9                     __ptext43:	
  5019 ;; *************** function _I2C_SetDataCompleteCallback *****************
  5020 ;; Defined at:
  5021 ;;		line 227 in file "mcc_generated_files/i2c_master.c"
  5022 ;; Parameters:    Size  Location     Type
  5023 ;;  cb              2    5[COMMON] PTR FTN(PTR void ,)enum 
  5024 ;;		 -> rdBlkRegCompleteHandler(1), wr2RegCompleteHandler(1), wr1RegCompleteHandler(1), rd1RegCompleteHandler(1), 
  5025 ;;		 -> Absolute function(1), 
  5026 ;;  ptr             1    7[COMMON] PTR void 
  5027 ;;		 -> I2C_ReadDataBlock@bufferBlock(3), I2C_Write2ByteRegister@data(2), I2C_Write1ByteRegister@data(1), I2C_Read2ByteR
      +egister@returnValue(1), 
  5028 ;;		 -> I2C_Read1ByteRegister@returnValue(1), NULL(0), 
  5029 ;; Auto vars:     Size  Location     Type
  5030 ;;		None
  5031 ;; Return value:  Size  Location     Type
  5032 ;;                  1    wreg      void 
  5033 ;; Registers used:
  5034 ;;		wreg, fsr1l, fsr1h, status,2, status,0, pclath, cstack
  5035 ;; Tracked objects:
  5036 ;;		On entry : 0/0
  5037 ;;		On exit  : 0/0
  5038 ;;		Unchanged: 0/0
  5039 ;; Data sizes:     COMMON   BANK0   BANK1   BANK2   BANK3   BANK4   BANK5   BANK6   BANK7   BANK8   BANK9  BANK10  BANK1
      +1  BANK12
  5040 ;;      Params:         3       0       0       0       0       0       0       0       0       0       0       0       
      +0       0
  5041 ;;      Locals:         0       0       0       0       0       0       0       0       0       0       0       0       
      +0       0
  5042 ;;      Temps:          1       0       0       0       0       0       0       0       0       0       0       0       
      +0       0
  5043 ;;      Totals:         4       0       0       0       0       0       0       0       0       0       0       0       
      +0       0
  5044 ;;Total ram usage:        4 bytes
  5045 ;; Hardware stack levels used: 1
  5046 ;; Hardware stack levels required when called: 1
  5047 ;; This function calls:
  5048 ;;		_I2C_SetCallback
  5049 ;; This function is called by:
  5050 ;;		_rd1RegCompleteHandler
  5051 ;;		_wr1RegCompleteHandler
  5052 ;;		_wr2RegCompleteHandler
  5053 ;;		_rdBlkRegCompleteHandler
  5054 ;;		_I2C_Read1ByteRegister
  5055 ;;		_I2C_Read2ByteRegister
  5056 ;;		_I2C_Write1ByteRegister
  5057 ;;		_I2C_Write2ByteRegister
  5058 ;;		_I2C_ReadDataBlock
  5059 ;;		_rd2RegCompleteHandler
  5060 ;; This function uses a non-reentrant model
  5061 ;;
  5062                           
  5063  04B9                     _I2C_SetDataCompleteCallback:	
  5064                           ;psect for function _I2C_SetDataCompleteCallback
  5065                           
  5066  04B9                     l2096:	
  5067                           ;incstack = 0
  5068                           ; Regs used in _I2C_SetDataCompleteCallback: [wreg+fsr1l+fsr1h+status,2+status,0+pclath+
      +                          cstack]
  5069                           
  5070                           
  5071                           ;mcc_generated_files/i2c_master.c: 227: void I2C_SetDataCompleteCallback(i2c_callback_t 
      +                          cb, void *ptr);mcc_generated_files/i2c_master.c: 228: {;mcc_generated_files/i2c_master.c
      +                          : 229:     I2C_SetCallback(I2C_DATA_COMPLETE, cb, ptr);
  5072  04B9  0876               	movf	I2C_SetDataCompleteCallback@cb+1,w
  5073  04BA  00F1               	movwf	I2C_SetCallback@cb+1
  5074  04BB  0875               	movf	I2C_SetDataCompleteCallback@cb,w
  5075  04BC  00F0               	movwf	I2C_SetCallback@cb
  5076  04BD  0877               	movf	I2C_SetDataCompleteCallback@ptr,w
  5077  04BE  00F8               	movwf	??_I2C_SetDataCompleteCallback
  5078  04BF  0878               	movf	??_I2C_SetDataCompleteCallback,w
  5079  04C0  00F2               	movwf	I2C_SetCallback@ptr
  5080  04C1  3000               	movlw	0
  5081  04C2  3185  25E8  3184   	fcall	_I2C_SetCallback
  5082  04C5                     l187:
  5083  04C5  0008               	return
  5084  04C6                     __end_of_I2C_SetDataCompleteCallback:
  5085                           
  5086                           	psect	text44
  5087  05E8                     __ptext44:	
  5088 ;; *************** function _I2C_SetCallback *****************
  5089 ;; Defined at:
  5090 ;;		line 252 in file "mcc_generated_files/i2c_master.c"
  5091 ;; Parameters:    Size  Location     Type
  5092 ;;  idx             1    wreg     enum E3391
  5093 ;;  cb              2    0[COMMON] PTR FTN(PTR void ,)enum 
  5094 ;;		 -> rdBlkRegCompleteHandler(1), wr2RegCompleteHandler(1), wr1RegCompleteHandler(1), rd1RegCompleteHandler(1), 
  5095 ;;		 -> Absolute function(1), 
  5096 ;;  ptr             1    2[COMMON] PTR void 
  5097 ;;		 -> I2C_ReadDataBlock@bufferBlock(3), I2C_Write2ByteRegister@data(2), I2C_Write1ByteRegister@data(1), I2C_Read2ByteR
      +egister@returnValue(1), 
  5098 ;;		 -> I2C_Read1ByteRegister@returnValue(1), NULL(0), 
  5099 ;; Auto vars:     Size  Location     Type
  5100 ;;  idx             1    4[COMMON] enum E3391
  5101 ;; Return value:  Size  Location     Type
  5102 ;;                  1    wreg      void 
  5103 ;; Registers used:
  5104 ;;		wreg, fsr1l, fsr1h, status,2, status,0
  5105 ;; Tracked objects:
  5106 ;;		On entry : 0/0
  5107 ;;		On exit  : 0/0
  5108 ;;		Unchanged: 0/0
  5109 ;; Data sizes:     COMMON   BANK0   BANK1   BANK2   BANK3   BANK4   BANK5   BANK6   BANK7   BANK8   BANK9  BANK10  BANK1
      +1  BANK12
  5110 ;;      Params:         3       0       0       0       0       0       0       0       0       0       0       0       
      +0       0
  5111 ;;      Locals:         1       0       0       0       0       0       0       0       0       0       0       0       
      +0       0
  5112 ;;      Temps:          1       0       0       0       0       0       0       0       0       0       0       0       
      +0       0
  5113 ;;      Totals:         5       0       0       0       0       0       0       0       0       0       0       0       
      +0       0
  5114 ;;Total ram usage:        5 bytes
  5115 ;; Hardware stack levels used: 1
  5116 ;; This function calls:
  5117 ;;		Nothing
  5118 ;; This function is called by:
  5119 ;;		_I2C_SetDataCompleteCallback
  5120 ;;		_I2C_SetAddressNackCallback
  5121 ;;		_I2C_SetWriteCollisionCallback
  5122 ;;		_I2C_SetDataNackCallback
  5123 ;;		_I2C_SetTimeoutCallback
  5124 ;; This function uses a non-reentrant model
  5125 ;;
  5126                           
  5127  05E8                     _I2C_SetCallback:	
  5128                           ;psect for function _I2C_SetCallback
  5129                           
  5130                           
  5131                           ;incstack = 0
  5132                           ; Regs used in _I2C_SetCallback: [wreg+fsr1l+fsr1h+status,2+status,0]
  5133                           ;I2C_SetCallback@idx stored from wreg
  5134  05E8  00F4               	movwf	I2C_SetCallback@idx
  5135  05E9                     l2084:
  5136                           
  5137                           ;mcc_generated_files/i2c_master.c: 252: static void I2C_SetCallback(i2c_callbackIndex_t 
      +                          idx, i2c_callback_t cb, void *ptr);mcc_generated_files/i2c_master.c: 253: {;mcc_generate
      +                          d_files/i2c_master.c: 254:     if(cb)
  5138  05E9  0870               	movf	I2C_SetCallback@cb,w
  5139  05EA  0471               	iorwf	I2C_SetCallback@cb+1,w
  5140  05EB  1903               	btfsc	3,2
  5141  05EC  2DEE               	goto	u401
  5142  05ED  2DEF               	goto	u400
  5143  05EE                     u401:
  5144  05EE  2E00               	goto	l2088
  5145  05EF                     u400:
  5146  05EF                     l2086:
  5147                           
  5148                           ;mcc_generated_files/i2c_master.c: 255:     {;mcc_generated_files/i2c_master.c: 256:    
      +                               I2C_Status.callbackTable[idx] = cb;
  5149  05EF  3574               	lslf	I2C_SetCallback@idx,w
  5150  05F0  3E20               	addlw	(low (_I2C_Status| 0))& (0+255)
  5151  05F1  0086               	movwf	6
  5152  05F2  0187               	clrf	7
  5153  05F3  0870               	movf	I2C_SetCallback@cb,w
  5154  05F4  3FC0               	movwi [0]fsr1
  5155  05F5  0871               	movf	I2C_SetCallback@cb+1,w
  5156  05F6  3FC1               	movwi [1]fsr1
  5157                           
  5158                           ;mcc_generated_files/i2c_master.c: 257:         I2C_Status.callbackPayload[idx] = ptr;
  5159  05F7  0872               	movf	I2C_SetCallback@ptr,w
  5160  05F8  00F3               	movwf	??_I2C_SetCallback
  5161  05F9  0874               	movf	I2C_SetCallback@idx,w
  5162  05FA  3E2C               	addlw	(low ((_I2C_Status| 0+12)))& (0+255)
  5163  05FB  0086               	movwf	6
  5164  05FC  0187               	clrf	7
  5165  05FD  0873               	movf	??_I2C_SetCallback,w
  5166  05FE  0081               	movwf	1
  5167                           
  5168                           ;mcc_generated_files/i2c_master.c: 258:     }
  5169  05FF  2E0D               	goto	l204
  5170  0600                     l2088:
  5171                           
  5172                           ;mcc_generated_files/i2c_master.c: 260:     {;mcc_generated_files/i2c_master.c: 261:    
      +                               I2C_Status.callbackTable[idx] = I2C_CallbackReturnStop;
  5173  0600  3574               	lslf	I2C_SetCallback@idx,w
  5174  0601  3E20               	addlw	(low (_I2C_Status| 0))& (0+255)
  5175  0602  0086               	movwf	6
  5176  0603  0187               	clrf	7
  5177  0604  30F1               	movlw	low _I2C_CallbackReturnStop
  5178  0605  3FC0               	movwi [0]fsr1
  5179  0606  3003               	movlw	high _I2C_CallbackReturnStop
  5180  0607  3FC1               	movwi [1]fsr1
  5181                           
  5182                           ;mcc_generated_files/i2c_master.c: 262:         I2C_Status.callbackPayload[idx] = ((void
      +                          *)0);
  5183  0608  0874               	movf	I2C_SetCallback@idx,w
  5184  0609  3E2C               	addlw	(low ((_I2C_Status| 0+12)))& (0+255)
  5185  060A  0086               	movwf	6
  5186  060B  0187               	clrf	7
  5187  060C  0181               	clrf	1
  5188  060D                     l204:
  5189  060D  0008               	return
  5190  060E                     __end_of_I2C_SetCallback:
  5191                           
  5192                           	psect	text45
  5193  04ED                     __ptext45:	
  5194 ;; *************** function _I2C_SetBuffer *****************
  5195 ;; Defined at:
  5196 ;;		line 217 in file "mcc_generated_files/i2c_master.c"
  5197 ;; Parameters:    Size  Location     Type
  5198 ;;  buffer          1    wreg     PTR void 
  5199 ;;		 -> I2C_Read1ByteRegister@returnValue.data(2), I2C_Read2ByteRegister@returnValue.data(2), I2C_Write1ByteRegister@dat
      +a.data(2), I2C_Write2ByteRegister@data.data(2), 
  5200 ;;		 -> I2C_Rd@returnValue(1), I2C_Wr@data(1), I2C_ReadDataBlock@reg(1), I2C_ReadDataBlock@bufferBlock(3), 
  5201 ;;		 -> bufferBlock.data(2), I2C_Write2ByteRegister@reg(1), I2C_Write2ByteRegister@data(2), I2C_Write1ByteRegister@reg(1
      +), 
  5202 ;;		 -> I2C_Write1ByteRegister@data(1), I2C_Read2ByteRegister@reg(1), I2C_Read2ByteRegister@returnValue(1), I2C_Read1Byt
      +eRegister@reg(1), 
  5203 ;;		 -> I2C_Read1ByteRegister@returnValue(1), NULL(0), 
  5204 ;;  bufferSize      2    0[COMMON] unsigned int 
  5205 ;; Auto vars:     Size  Location     Type
  5206 ;;  buffer          1    3[COMMON] PTR void 
  5207 ;;		 -> I2C_Read1ByteRegister@returnValue.data(2), I2C_Read2ByteRegister@returnValue.data(2), I2C_Write1ByteRegister@dat
      +a.data(2), I2C_Write2ByteRegister@data.data(2), 
  5208 ;;		 -> I2C_Rd@returnValue(1), I2C_Wr@data(1), I2C_ReadDataBlock@reg(1), I2C_ReadDataBlock@bufferBlock(3), 
  5209 ;;		 -> bufferBlock.data(2), I2C_Write2ByteRegister@reg(1), I2C_Write2ByteRegister@data(2), I2C_Write1ByteRegister@reg(1
      +), 
  5210 ;;		 -> I2C_Write1ByteRegister@data(1), I2C_Read2ByteRegister@reg(1), I2C_Read2ByteRegister@returnValue(1), I2C_Read1Byt
      +eRegister@reg(1), 
  5211 ;;		 -> I2C_Read1ByteRegister@returnValue(1), NULL(0), 
  5212 ;; Return value:  Size  Location     Type
  5213 ;;                  1    wreg      void 
  5214 ;; Registers used:
  5215 ;;		wreg
  5216 ;; Tracked objects:
  5217 ;;		On entry : 0/0
  5218 ;;		On exit  : 0/0
  5219 ;;		Unchanged: 0/0
  5220 ;; Data sizes:     COMMON   BANK0   BANK1   BANK2   BANK3   BANK4   BANK5   BANK6   BANK7   BANK8   BANK9  BANK10  BANK1
      +1  BANK12
  5221 ;;      Params:         2       0       0       0       0       0       0       0       0       0       0       0       
      +0       0
  5222 ;;      Locals:         1       0       0       0       0       0       0       0       0       0       0       0       
      +0       0
  5223 ;;      Temps:          1       0       0       0       0       0       0       0       0       0       0       0       
      +0       0
  5224 ;;      Totals:         4       0       0       0       0       0       0       0       0       0       0       0       
      +0       0
  5225 ;;Total ram usage:        4 bytes
  5226 ;; Hardware stack levels used: 1
  5227 ;; This function calls:
  5228 ;;		Nothing
  5229 ;; This function is called by:
  5230 ;;		_rd1RegCompleteHandler
  5231 ;;		_wr1RegCompleteHandler
  5232 ;;		_wr2RegCompleteHandler
  5233 ;;		_rdBlkRegCompleteHandler
  5234 ;;		_I2C_Wr
  5235 ;;		_I2C_Read1ByteRegister
  5236 ;;		_I2C_Read2ByteRegister
  5237 ;;		_I2C_Write1ByteRegister
  5238 ;;		_I2C_Write2ByteRegister
  5239 ;;		_I2C_WriteNBytes
  5240 ;;		_I2C_ReadNBytes
  5241 ;;		_I2C_ReadDataBlock
  5242 ;;		_rd2RegCompleteHandler
  5243 ;;		_I2C_Rd
  5244 ;; This function uses a non-reentrant model
  5245 ;;
  5246                           
  5247  04ED                     _I2C_SetBuffer:	
  5248                           ;psect for function _I2C_SetBuffer
  5249                           
  5250                           
  5251                           ;incstack = 0
  5252                           ; Regs used in _I2C_SetBuffer: [wreg]
  5253                           ;I2C_SetBuffer@buffer stored from wreg
  5254  04ED  00F3               	movwf	I2C_SetBuffer@buffer
  5255  04EE                     l2090:
  5256                           
  5257                           ;mcc_generated_files/i2c_master.c: 217: void I2C_SetBuffer(void *buffer, size_t bufferSi
      +                          ze);mcc_generated_files/i2c_master.c: 218: {;mcc_generated_files/i2c_master.c: 219:     
      +                          if(I2C_Status.bufferFree)
  5258  04EE  0020               	movlb	0	; select bank0
  5259  04EF  1DBC               	btfss	_I2C_Status+28,3
  5260  04F0  2CF2               	goto	u411
  5261  04F1  2CF3               	goto	u410
  5262  04F2                     u411:
  5263  04F2  2CFC               	goto	l184
  5264  04F3                     u410:
  5265  04F3                     l2092:
  5266                           
  5267                           ;mcc_generated_files/i2c_master.c: 220:     {;mcc_generated_files/i2c_master.c: 221:    
      +                               I2C_Status.data_ptr = buffer;
  5268  04F3  0873               	movf	I2C_SetBuffer@buffer,w
  5269  04F4  00F2               	movwf	??_I2C_SetBuffer
  5270  04F5  0872               	movf	??_I2C_SetBuffer,w
  5271  04F6  00B7               	movwf	low ((_I2C_Status| 0+23))
  5272                           
  5273                           ;mcc_generated_files/i2c_master.c: 222:         I2C_Status.data_length = bufferSize;
  5274  04F7  0871               	movf	I2C_SetBuffer@bufferSize+1,w
  5275  04F8  00B9               	movwf	_I2C_Status+25
  5276  04F9  0870               	movf	I2C_SetBuffer@bufferSize,w
  5277  04FA  00B8               	movwf	_I2C_Status+24
  5278  04FB                     l2094:
  5279                           
  5280                           ;mcc_generated_files/i2c_master.c: 223:         I2C_Status.bufferFree = 0;
  5281  04FB  11BC               	bcf	_I2C_Status+28,3
  5282  04FC                     l184:
  5283  04FC  0008               	return
  5284  04FD                     __end_of_I2C_SetBuffer:
  5285                           
  5286                           	psect	text46
  5287  0404                     __ptext46:	
  5288 ;; *************** function _I2C_MasterStop *****************
  5289 ;; Defined at:
  5290 ;;		line 547 in file "mcc_generated_files/i2c_master.c"
  5291 ;; Parameters:    Size  Location     Type
  5292 ;;		None
  5293 ;; Auto vars:     Size  Location     Type
  5294 ;;		None
  5295 ;; Return value:  Size  Location     Type
  5296 ;;                  1    wreg      void 
  5297 ;; Registers used:
  5298 ;;		None
  5299 ;; Tracked objects:
  5300 ;;		On entry : 0/0
  5301 ;;		On exit  : 0/0
  5302 ;;		Unchanged: 0/0
  5303 ;; Data sizes:     COMMON   BANK0   BANK1   BANK2   BANK3   BANK4   BANK5   BANK6   BANK7   BANK8   BANK9  BANK10  BANK1
      +1  BANK12
  5304 ;;      Params:         0       0       0       0       0       0       0       0       0       0       0       0       
      +0       0
  5305 ;;      Locals:         0       0       0       0       0       0       0       0       0       0       0       0       
      +0       0
  5306 ;;      Temps:          0       0       0       0       0       0       0       0       0       0       0       0       
      +0       0
  5307 ;;      Totals:         0       0       0       0       0       0       0       0       0       0       0       0       
      +0       0
  5308 ;;Total ram usage:        0 bytes
  5309 ;; Hardware stack levels used: 1
  5310 ;; This function calls:
  5311 ;;		Nothing
  5312 ;; This function is called by:
  5313 ;;		_I2C_DO_SEND_STOP
  5314 ;; This function uses a non-reentrant model
  5315 ;;
  5316                           
  5317  0404                     _I2C_MasterStop:	
  5318                           ;psect for function _I2C_MasterStop
  5319                           
  5320  0404                     l2100:	
  5321                           ;incstack = 0
  5322                           ; Regs used in _I2C_MasterStop: []
  5323                           
  5324                           
  5325                           ;mcc_generated_files/i2c_master.c: 549:     SSPCON2bits.PEN = 1;
  5326  0404  0024               	movlb	4	; select bank4
  5327  0405  1516               	bsf	22,2	;volatile
  5328  0406                     l350:
  5329  0406  0008               	return
  5330  0407                     __end_of_I2C_MasterStop:
  5331                           
  5332                           	psect	text47
  5333  0401                     __ptext47:	
  5334 ;; *************** function _I2C_MasterEnableRestart *****************
  5335 ;; Defined at:
  5336 ;;		line 527 in file "mcc_generated_files/i2c_master.c"
  5337 ;; Parameters:    Size  Location     Type
  5338 ;;		None
  5339 ;; Auto vars:     Size  Location     Type
  5340 ;;		None
  5341 ;; Return value:  Size  Location     Type
  5342 ;;                  1    wreg      void 
  5343 ;; Registers used:
  5344 ;;		None
  5345 ;; Tracked objects:
  5346 ;;		On entry : 0/0
  5347 ;;		On exit  : 0/0
  5348 ;;		Unchanged: 0/0
  5349 ;; Data sizes:     COMMON   BANK0   BANK1   BANK2   BANK3   BANK4   BANK5   BANK6   BANK7   BANK8   BANK9  BANK10  BANK1
      +1  BANK12
  5350 ;;      Params:         0       0       0       0       0       0       0       0       0       0       0       0       
      +0       0
  5351 ;;      Locals:         0       0       0       0       0       0       0       0       0       0       0       0       
      +0       0
  5352 ;;      Temps:          0       0       0       0       0       0       0       0       0       0       0       0       
      +0       0
  5353 ;;      Totals:         0       0       0       0       0       0       0       0       0       0       0       0       
      +0       0
  5354 ;;Total ram usage:        0 bytes
  5355 ;; Hardware stack levels used: 1
  5356 ;; This function calls:
  5357 ;;		Nothing
  5358 ;; This function is called by:
  5359 ;;		_I2C_DO_SEND_RESTART_READ
  5360 ;;		_I2C_DO_SEND_RESTART_WRITE
  5361 ;;		_I2C_DO_SEND_RESTART
  5362 ;;		_I2C_DO_RX_EMPTY
  5363 ;; This function uses a non-reentrant model
  5364 ;;
  5365                           
  5366  0401                     _I2C_MasterEnableRestart:	
  5367                           ;psect for function _I2C_MasterEnableRestart
  5368                           
  5369  0401                     l2098:	
  5370                           ;incstack = 0
  5371                           ; Regs used in _I2C_MasterEnableRestart: []
  5372                           
  5373                           
  5374                           ;mcc_generated_files/i2c_master.c: 529:     SSPCON2bits.RSEN = 1;
  5375  0401  0024               	movlb	4	; select bank4
  5376  0402  1496               	bsf	22,1	;volatile
  5377  0403                     l338:
  5378  0403  0008               	return
  5379  0404                     __end_of_I2C_MasterEnableRestart:
  5380                           
  5381                           	psect	text48
  5382  03FE                     __ptext48:	
  5383 ;; *************** function _I2C_MasterStart *****************
  5384 ;; Defined at:
  5385 ;;		line 542 in file "mcc_generated_files/i2c_master.c"
  5386 ;; Parameters:    Size  Location     Type
  5387 ;;		None
  5388 ;; Auto vars:     Size  Location     Type
  5389 ;;		None
  5390 ;; Return value:  Size  Location     Type
  5391 ;;                  1    wreg      void 
  5392 ;; Registers used:
  5393 ;;		None
  5394 ;; Tracked objects:
  5395 ;;		On entry : 0/0
  5396 ;;		On exit  : 0/0
  5397 ;;		Unchanged: 0/0
  5398 ;; Data sizes:     COMMON   BANK0   BANK1   BANK2   BANK3   BANK4   BANK5   BANK6   BANK7   BANK8   BANK9  BANK10  BANK1
      +1  BANK12
  5399 ;;      Params:         0       0       0       0       0       0       0       0       0       0       0       0       
      +0       0
  5400 ;;      Locals:         0       0       0       0       0       0       0       0       0       0       0       0       
      +0       0
  5401 ;;      Temps:          0       0       0       0       0       0       0       0       0       0       0       0       
      +0       0
  5402 ;;      Totals:         0       0       0       0       0       0       0       0       0       0       0       0       
      +0       0
  5403 ;;Total ram usage:        0 bytes
  5404 ;; Hardware stack levels used: 1
  5405 ;; This function calls:
  5406 ;;		Nothing
  5407 ;; This function is called by:
  5408 ;;		_I2C_MasterOperation
  5409 ;; This function uses a non-reentrant model
  5410 ;;
  5411                           
  5412  03FE                     _I2C_MasterStart:	
  5413                           ;psect for function _I2C_MasterStart
  5414                           
  5415  03FE                     l2362:	
  5416                           ;incstack = 0
  5417                           ; Regs used in _I2C_MasterStart: []
  5418                           
  5419                           
  5420                           ;mcc_generated_files/i2c_master.c: 544:     SSPCON2bits.SEN = 1;
  5421  03FE  0024               	movlb	4	; select bank4
  5422  03FF  1416               	bsf	22,0	;volatile
  5423  0400                     l347:
  5424  0400  0008               	return
  5425  0401                     __end_of_I2C_MasterStart:
  5426                           
  5427                           	psect	text49
  5428  0548                     __ptext49:	
  5429 ;; *************** function _I2C_Close *****************
  5430 ;; Defined at:
  5431 ;;		line 163 in file "mcc_generated_files/i2c_master.c"
  5432 ;; Parameters:    Size  Location     Type
  5433 ;;		None
  5434 ;; Auto vars:     Size  Location     Type
  5435 ;;  returnValue     1    1[COMMON] enum E355
  5436 ;; Return value:  Size  Location     Type
  5437 ;;                  1    wreg      enum E355
  5438 ;; Registers used:
  5439 ;;		wreg, status,2, status,0, pclath, cstack
  5440 ;; Tracked objects:
  5441 ;;		On entry : 0/0
  5442 ;;		On exit  : 0/0
  5443 ;;		Unchanged: 0/0
  5444 ;; Data sizes:     COMMON   BANK0   BANK1   BANK2   BANK3   BANK4   BANK5   BANK6   BANK7   BANK8   BANK9  BANK10  BANK1
      +1  BANK12
  5445 ;;      Params:         0       0       0       0       0       0       0       0       0       0       0       0       
      +0       0
  5446 ;;      Locals:         1       0       0       0       0       0       0       0       0       0       0       0       
      +0       0
  5447 ;;      Temps:          1       0       0       0       0       0       0       0       0       0       0       0       
      +0       0
  5448 ;;      Totals:         2       0       0       0       0       0       0       0       0       0       0       0       
      +0       0
  5449 ;;Total ram usage:        2 bytes
  5450 ;; Hardware stack levels used: 1
  5451 ;; Hardware stack levels required when called: 1
  5452 ;; This function calls:
  5453 ;;		_I2C_MasterClearIrq
  5454 ;;		_I2C_MasterClose
  5455 ;;		_I2C_MasterDisableIrq
  5456 ;; This function is called by:
  5457 ;;		_I2C_Wr
  5458 ;;		_I2C_Read1ByteRegister
  5459 ;;		_I2C_Read2ByteRegister
  5460 ;;		_I2C_Write1ByteRegister
  5461 ;;		_I2C_Write2ByteRegister
  5462 ;;		_I2C_WriteNBytes
  5463 ;;		_I2C_ReadNBytes
  5464 ;;		_I2C_ReadDataBlock
  5465 ;;		_I2C_Rd
  5466 ;; This function uses a non-reentrant model
  5467 ;;
  5468                           
  5469  0548                     _I2C_Close:	
  5470                           ;psect for function _I2C_Close
  5471                           
  5472  0548                     l2440:	
  5473                           ;incstack = 0
  5474                           ; Regs used in _I2C_Close: [wreg+status,2+status,0+pclath+cstack]
  5475                           
  5476                           
  5477                           ;mcc_generated_files/i2c_master.c: 165:     i2c_error_t returnValue = I2C_BUSY;
  5478  0548  01F1               	clrf	I2C_Close@returnValue
  5479  0549  0AF1               	incf	I2C_Close@returnValue,f
  5480                           
  5481                           ;mcc_generated_files/i2c_master.c: 166:     if(!I2C_Status.busy)
  5482  054A  0020               	movlb	0	; select bank0
  5483  054B  18BC               	btfsc	_I2C_Status+28,1
  5484  054C  2D4E               	goto	u531
  5485  054D  2D4F               	goto	u530
  5486  054E                     u531:
  5487  054E  2D62               	goto	l2454
  5488  054F                     u530:
  5489  054F                     l2442:
  5490                           
  5491                           ;mcc_generated_files/i2c_master.c: 167:     {;mcc_generated_files/i2c_master.c: 168:    
      +                               I2C_Status.inUse = 0;
  5492  054F  113C               	bcf	_I2C_Status+28,2
  5493  0550                     l2444:
  5494                           
  5495                           ;mcc_generated_files/i2c_master.c: 169:         I2C_Status.address = 0xff;
  5496  0550  30FF               	movlw	255
  5497  0551  00F0               	movwf	??_I2C_Close
  5498  0552  0870               	movf	??_I2C_Close,w
  5499  0553  00B6               	movwf	_I2C_Status+22
  5500  0554                     l2446:
  5501                           
  5502                           ;mcc_generated_files/i2c_master.c: 170:         I2C_MasterClearIrq();
  5503  0554  3183  23F5  3185   	fcall	_I2C_MasterClearIrq
  5504  0557                     l2448:
  5505                           
  5506                           ;mcc_generated_files/i2c_master.c: 171:         I2C_MasterDisableIrq();
  5507  0557  3183  23FB  3185   	fcall	_I2C_MasterDisableIrq
  5508  055A                     l2450:
  5509                           
  5510                           ;mcc_generated_files/i2c_master.c: 172:         I2C_MasterClose();
  5511  055A  3183  23F8  3185   	fcall	_I2C_MasterClose
  5512  055D                     l2452:
  5513                           
  5514                           ;mcc_generated_files/i2c_master.c: 173:         returnValue = I2C_Status.error;
  5515  055D  0020               	movlb	0	; select bank0
  5516  055E  083B               	movf	_I2C_Status+27,w
  5517  055F  00F0               	movwf	??_I2C_Close
  5518  0560  0870               	movf	??_I2C_Close,w
  5519  0561  00F1               	movwf	I2C_Close@returnValue
  5520  0562                     l2454:
  5521                           
  5522                           ;mcc_generated_files/i2c_master.c: 175:     return returnValue;
  5523  0562  0871               	movf	I2C_Close@returnValue,w
  5524  0563                     l165:
  5525  0563  0008               	return
  5526  0564                     __end_of_I2C_Close:
  5527                           
  5528                           	psect	text50
  5529  03FB                     __ptext50:	
  5530 ;; *************** function _I2C_MasterDisableIrq *****************
  5531 ;; Defined at:
  5532 ;;		line 589 in file "mcc_generated_files/i2c_master.c"
  5533 ;; Parameters:    Size  Location     Type
  5534 ;;		None
  5535 ;; Auto vars:     Size  Location     Type
  5536 ;;		None
  5537 ;; Return value:  Size  Location     Type
  5538 ;;                  1    wreg      void 
  5539 ;; Registers used:
  5540 ;;		None
  5541 ;; Tracked objects:
  5542 ;;		On entry : 0/0
  5543 ;;		On exit  : 0/0
  5544 ;;		Unchanged: 0/0
  5545 ;; Data sizes:     COMMON   BANK0   BANK1   BANK2   BANK3   BANK4   BANK5   BANK6   BANK7   BANK8   BANK9  BANK10  BANK1
      +1  BANK12
  5546 ;;      Params:         0       0       0       0       0       0       0       0       0       0       0       0       
      +0       0
  5547 ;;      Locals:         0       0       0       0       0       0       0       0       0       0       0       0       
      +0       0
  5548 ;;      Temps:          0       0       0       0       0       0       0       0       0       0       0       0       
      +0       0
  5549 ;;      Totals:         0       0       0       0       0       0       0       0       0       0       0       0       
      +0       0
  5550 ;;Total ram usage:        0 bytes
  5551 ;; Hardware stack levels used: 1
  5552 ;; This function calls:
  5553 ;;		Nothing
  5554 ;; This function is called by:
  5555 ;;		_I2C_Close
  5556 ;;		_I2C_SetTimeOut
  5557 ;; This function uses a non-reentrant model
  5558 ;;
  5559                           
  5560  03FB                     _I2C_MasterDisableIrq:	
  5561                           ;psect for function _I2C_MasterDisableIrq
  5562                           
  5563  03FB                     l2384:	
  5564                           ;incstack = 0
  5565                           ; Regs used in _I2C_MasterDisableIrq: []
  5566                           
  5567                           
  5568                           ;mcc_generated_files/i2c_master.c: 591:     PIE1bits.SSPIE = 0;
  5569  03FB  0021               	movlb	1	; select bank1
  5570  03FC  1191               	bcf	17,3	;volatile
  5571  03FD                     l374:
  5572  03FD  0008               	return
  5573  03FE                     __end_of_I2C_MasterDisableIrq:
  5574                           
  5575                           	psect	text51
  5576  03F8                     __ptext51:	
  5577 ;; *************** function _I2C_MasterClose *****************
  5578 ;; Defined at:
  5579 ;;		line 511 in file "mcc_generated_files/i2c_master.c"
  5580 ;; Parameters:    Size  Location     Type
  5581 ;;		None
  5582 ;; Auto vars:     Size  Location     Type
  5583 ;;		None
  5584 ;; Return value:  Size  Location     Type
  5585 ;;                  1    wreg      void 
  5586 ;; Registers used:
  5587 ;;		None
  5588 ;; Tracked objects:
  5589 ;;		On entry : 0/0
  5590 ;;		On exit  : 0/0
  5591 ;;		Unchanged: 0/0
  5592 ;; Data sizes:     COMMON   BANK0   BANK1   BANK2   BANK3   BANK4   BANK5   BANK6   BANK7   BANK8   BANK9  BANK10  BANK1
      +1  BANK12
  5593 ;;      Params:         0       0       0       0       0       0       0       0       0       0       0       0       
      +0       0
  5594 ;;      Locals:         0       0       0       0       0       0       0       0       0       0       0       0       
      +0       0
  5595 ;;      Temps:          0       0       0       0       0       0       0       0       0       0       0       0       
      +0       0
  5596 ;;      Totals:         0       0       0       0       0       0       0       0       0       0       0       0       
      +0       0
  5597 ;;Total ram usage:        0 bytes
  5598 ;; Hardware stack levels used: 1
  5599 ;; This function calls:
  5600 ;;		Nothing
  5601 ;; This function is called by:
  5602 ;;		_I2C_Close
  5603 ;; This function uses a non-reentrant model
  5604 ;;
  5605                           
  5606  03F8                     _I2C_MasterClose:	
  5607                           ;psect for function _I2C_MasterClose
  5608                           
  5609  03F8                     l2386:	
  5610                           ;incstack = 0
  5611                           ; Regs used in _I2C_MasterClose: []
  5612                           
  5613                           
  5614                           ;mcc_generated_files/i2c_master.c: 514:     SSPCON1bits.SSPEN = 0;
  5615  03F8  0024               	movlb	4	; select bank4
  5616  03F9  1295               	bcf	21,5	;volatile
  5617  03FA                     l329:
  5618  03FA  0008               	return
  5619  03FB                     __end_of_I2C_MasterClose:
  5620                           
  5621                           	psect	text52
  5622  03F5                     __ptext52:	
  5623 ;; *************** function _I2C_MasterClearIrq *****************
  5624 ;; Defined at:
  5625 ;;		line 594 in file "mcc_generated_files/i2c_master.c"
  5626 ;; Parameters:    Size  Location     Type
  5627 ;;		None
  5628 ;; Auto vars:     Size  Location     Type
  5629 ;;		None
  5630 ;; Return value:  Size  Location     Type
  5631 ;;                  1    wreg      void 
  5632 ;; Registers used:
  5633 ;;		None
  5634 ;; Tracked objects:
  5635 ;;		On entry : 0/0
  5636 ;;		On exit  : 0/0
  5637 ;;		Unchanged: 0/0
  5638 ;; Data sizes:     COMMON   BANK0   BANK1   BANK2   BANK3   BANK4   BANK5   BANK6   BANK7   BANK8   BANK9  BANK10  BANK1
      +1  BANK12
  5639 ;;      Params:         0       0       0       0       0       0       0       0       0       0       0       0       
      +0       0
  5640 ;;      Locals:         0       0       0       0       0       0       0       0       0       0       0       0       
      +0       0
  5641 ;;      Temps:          0       0       0       0       0       0       0       0       0       0       0       0       
      +0       0
  5642 ;;      Totals:         0       0       0       0       0       0       0       0       0       0       0       0       
      +0       0
  5643 ;;Total ram usage:        0 bytes
  5644 ;; Hardware stack levels used: 1
  5645 ;; This function calls:
  5646 ;;		Nothing
  5647 ;; This function is called by:
  5648 ;;		_I2C_Open
  5649 ;;		_I2C_Close
  5650 ;;		_I2C_MasterFsm
  5651 ;; This function uses a non-reentrant model
  5652 ;;
  5653                           
  5654  03F5                     _I2C_MasterClearIrq:	
  5655                           ;psect for function _I2C_MasterClearIrq
  5656                           
  5657  03F5                     l2194:	
  5658                           ;incstack = 0
  5659                           ; Regs used in _I2C_MasterClearIrq: []
  5660                           
  5661                           
  5662                           ;mcc_generated_files/i2c_master.c: 596:     PIR1bits.SSPIF = 0;
  5663  03F5  0020               	movlb	0	; select bank0
  5664  03F6  1191               	bcf	17,3	;volatile
  5665  03F7                     l377:
  5666  03F7  0008               	return
  5667  03F8                     __end_of_I2C_MasterClearIrq:
  5668                           
  5669                           	psect	text53
  5670  04AC                     __ptext53:	
  5671 ;; *************** function _SYSTEM_Initialize *****************
  5672 ;; Defined at:
  5673 ;;		line 4 in file "mcc_generated_files/mcc.c"
  5674 ;; Parameters:    Size  Location     Type
  5675 ;;		None
  5676 ;; Auto vars:     Size  Location     Type
  5677 ;;		None
  5678 ;; Return value:  Size  Location     Type
  5679 ;;                  1    wreg      void 
  5680 ;; Registers used:
  5681 ;;		wreg, status,2, status,0, pclath, cstack
  5682 ;; Tracked objects:
  5683 ;;		On entry : 0/0
  5684 ;;		On exit  : 0/0
  5685 ;;		Unchanged: 0/0
  5686 ;; Data sizes:     COMMON   BANK0   BANK1   BANK2   BANK3   BANK4   BANK5   BANK6   BANK7   BANK8   BANK9  BANK10  BANK1
      +1  BANK12
  5687 ;;      Params:         0       0       0       0       0       0       0       0       0       0       0       0       
      +0       0
  5688 ;;      Locals:         0       0       0       0       0       0       0       0       0       0       0       0       
      +0       0
  5689 ;;      Temps:          0       0       0       0       0       0       0       0       0       0       0       0       
      +0       0
  5690 ;;      Totals:         0       0       0       0       0       0       0       0       0       0       0       0       
      +0       0
  5691 ;;Total ram usage:        0 bytes
  5692 ;; Hardware stack levels used: 1
  5693 ;; Hardware stack levels required when called: 1
  5694 ;; This function calls:
  5695 ;;		_I2C_Initialize
  5696 ;;		_OSCILLATOR_Initialize
  5697 ;;		_PIN_MANAGER_Initialize
  5698 ;;		_WDT_Initialize
  5699 ;; This function is called by:
  5700 ;;		_main
  5701 ;; This function uses a non-reentrant model
  5702 ;;
  5703                           
  5704  04AC                     _SYSTEM_Initialize:	
  5705                           ;psect for function _SYSTEM_Initialize
  5706                           
  5707  04AC                     l1694:	
  5708                           ;incstack = 0
  5709                           ; Regs used in _SYSTEM_Initialize: [wreg+status,2+status,0+pclath+cstack]
  5710                           
  5711                           
  5712                           ;mcc_generated_files/mcc.c: 7:     I2C_Initialize();
  5713  04AC  3184  2479  3184   	fcall	_I2C_Initialize
  5714                           
  5715                           ;mcc_generated_files/mcc.c: 8:     PIN_MANAGER_Initialize();
  5716  04AF  3185  25A1  3184   	fcall	_PIN_MANAGER_Initialize
  5717                           
  5718                           ;mcc_generated_files/mcc.c: 9:     OSCILLATOR_Initialize();
  5719  04B2  3184  2494  3184   	fcall	_OSCILLATOR_Initialize
  5720                           
  5721                           ;mcc_generated_files/mcc.c: 10:     WDT_Initialize();
  5722  04B5  3184  2410  3184   	fcall	_WDT_Initialize
  5723  04B8                     l504:
  5724  04B8  0008               	return
  5725  04B9                     __end_of_SYSTEM_Initialize:
  5726                           
  5727                           	psect	text54
  5728  0410                     __ptext54:	
  5729 ;; *************** function _WDT_Initialize *****************
  5730 ;; Defined at:
  5731 ;;		line 27 in file "mcc_generated_files/mcc.c"
  5732 ;; Parameters:    Size  Location     Type
  5733 ;;		None
  5734 ;; Auto vars:     Size  Location     Type
  5735 ;;		None
  5736 ;; Return value:  Size  Location     Type
  5737 ;;                  1    wreg      void 
  5738 ;; Registers used:
  5739 ;;		wreg
  5740 ;; Tracked objects:
  5741 ;;		On entry : 0/0
  5742 ;;		On exit  : 0/0
  5743 ;;		Unchanged: 0/0
  5744 ;; Data sizes:     COMMON   BANK0   BANK1   BANK2   BANK3   BANK4   BANK5   BANK6   BANK7   BANK8   BANK9  BANK10  BANK1
      +1  BANK12
  5745 ;;      Params:         0       0       0       0       0       0       0       0       0       0       0       0       
      +0       0
  5746 ;;      Locals:         0       0       0       0       0       0       0       0       0       0       0       0       
      +0       0
  5747 ;;      Temps:          0       0       0       0       0       0       0       0       0       0       0       0       
      +0       0
  5748 ;;      Totals:         0       0       0       0       0       0       0       0       0       0       0       0       
      +0       0
  5749 ;;Total ram usage:        0 bytes
  5750 ;; Hardware stack levels used: 1
  5751 ;; This function calls:
  5752 ;;		Nothing
  5753 ;; This function is called by:
  5754 ;;		_SYSTEM_Initialize
  5755 ;; This function uses a non-reentrant model
  5756 ;;
  5757                           
  5758  0410                     _WDT_Initialize:	
  5759                           ;psect for function _WDT_Initialize
  5760                           
  5761  0410                     l1680:	
  5762                           ;incstack = 0
  5763                           ; Regs used in _WDT_Initialize: [wreg]
  5764                           
  5765                           
  5766                           ;mcc_generated_files/mcc.c: 30:     WDTCON = 0x16;
  5767  0410  3016               	movlw	22
  5768  0411  0021               	movlb	1	; select bank1
  5769  0412  0097               	movwf	23	;volatile
  5770  0413                     l513:
  5771  0413  0008               	return
  5772  0414                     __end_of_WDT_Initialize:
  5773                           
  5774                           	psect	text55
  5775  05A1                     __ptext55:	
  5776 ;; *************** function _PIN_MANAGER_Initialize *****************
  5777 ;; Defined at:
  5778 ;;		line 3 in file "mcc_generated_files/pin_manager.c"
  5779 ;; Parameters:    Size  Location     Type
  5780 ;;		None
  5781 ;; Auto vars:     Size  Location     Type
  5782 ;;		None
  5783 ;; Return value:  Size  Location     Type
  5784 ;;                  1    wreg      void 
  5785 ;; Registers used:
  5786 ;;		wreg, status,2
  5787 ;; Tracked objects:
  5788 ;;		On entry : 0/0
  5789 ;;		On exit  : 0/0
  5790 ;;		Unchanged: 0/0
  5791 ;; Data sizes:     COMMON   BANK0   BANK1   BANK2   BANK3   BANK4   BANK5   BANK6   BANK7   BANK8   BANK9  BANK10  BANK1
      +1  BANK12
  5792 ;;      Params:         0       0       0       0       0       0       0       0       0       0       0       0       
      +0       0
  5793 ;;      Locals:         0       0       0       0       0       0       0       0       0       0       0       0       
      +0       0
  5794 ;;      Temps:          0       0       0       0       0       0       0       0       0       0       0       0       
      +0       0
  5795 ;;      Totals:         0       0       0       0       0       0       0       0       0       0       0       0       
      +0       0
  5796 ;;Total ram usage:        0 bytes
  5797 ;; Hardware stack levels used: 1
  5798 ;; This function calls:
  5799 ;;		Nothing
  5800 ;; This function is called by:
  5801 ;;		_SYSTEM_Initialize
  5802 ;; This function uses a non-reentrant model
  5803 ;;
  5804                           
  5805  05A1                     _PIN_MANAGER_Initialize:	
  5806                           ;psect for function _PIN_MANAGER_Initialize
  5807                           
  5808  05A1                     l1638:	
  5809                           ;incstack = 0
  5810                           ; Regs used in _PIN_MANAGER_Initialize: [wreg+status,2]
  5811                           
  5812                           
  5813                           ;mcc_generated_files/pin_manager.c: 8:     LATE = 0x00;
  5814  05A1  0022               	movlb	2	; select bank2
  5815  05A2  0190               	clrf	16	;volatile
  5816                           
  5817                           ;mcc_generated_files/pin_manager.c: 9:     LATD = 0x00;
  5818  05A3  018F               	clrf	15	;volatile
  5819                           
  5820                           ;mcc_generated_files/pin_manager.c: 10:     LATA = 0x00;
  5821  05A4  018C               	clrf	12	;volatile
  5822                           
  5823                           ;mcc_generated_files/pin_manager.c: 11:     LATB = 0x00;
  5824  05A5  018D               	clrf	13	;volatile
  5825                           
  5826                           ;mcc_generated_files/pin_manager.c: 12:     LATC = 0x00;
  5827  05A6  018E               	clrf	14	;volatile
  5828  05A7                     l1640:
  5829                           
  5830                           ;mcc_generated_files/pin_manager.c: 17:     TRISE = 0x0F;
  5831  05A7  300F               	movlw	15
  5832  05A8  0021               	movlb	1	; select bank1
  5833  05A9  0090               	movwf	16	;volatile
  5834  05AA                     l1642:
  5835                           
  5836                           ;mcc_generated_files/pin_manager.c: 18:     TRISA = 0xFF;
  5837  05AA  30FF               	movlw	255
  5838  05AB  008C               	movwf	12	;volatile
  5839  05AC                     l1644:
  5840                           
  5841                           ;mcc_generated_files/pin_manager.c: 19:     TRISB = 0xFE;
  5842  05AC  30FE               	movlw	254
  5843  05AD  008D               	movwf	13	;volatile
  5844  05AE                     l1646:
  5845                           
  5846                           ;mcc_generated_files/pin_manager.c: 20:     TRISC = 0xFF;
  5847  05AE  30FF               	movlw	255
  5848  05AF  008E               	movwf	14	;volatile
  5849  05B0                     l1648:
  5850                           
  5851                           ;mcc_generated_files/pin_manager.c: 21:     TRISD = 0xFF;
  5852  05B0  30FF               	movlw	255
  5853  05B1  008F               	movwf	15	;volatile
  5854  05B2                     l1650:
  5855                           
  5856                           ;mcc_generated_files/pin_manager.c: 26:     ANSELD = 0xFF;
  5857  05B2  30FF               	movlw	255
  5858  05B3  0023               	movlb	3	; select bank3
  5859  05B4  008F               	movwf	15	;volatile
  5860  05B5                     l1652:
  5861                           
  5862                           ;mcc_generated_files/pin_manager.c: 27:     ANSELB = 0x3F;
  5863  05B5  303F               	movlw	63
  5864  05B6  008D               	movwf	13	;volatile
  5865  05B7                     l1654:
  5866                           
  5867                           ;mcc_generated_files/pin_manager.c: 28:     ANSELE = 0x07;
  5868  05B7  3007               	movlw	7
  5869  05B8  0090               	movwf	16	;volatile
  5870  05B9                     l1656:
  5871                           
  5872                           ;mcc_generated_files/pin_manager.c: 29:     ANSELA = 0x3F;
  5873  05B9  303F               	movlw	63
  5874  05BA  008C               	movwf	12	;volatile
  5875  05BB                     l1658:
  5876                           
  5877                           ;mcc_generated_files/pin_manager.c: 34:     WPUE = 0x00;
  5878  05BB  0024               	movlb	4	; select bank4
  5879  05BC  0190               	clrf	16	;volatile
  5880  05BD                     l1660:
  5881                           
  5882                           ;mcc_generated_files/pin_manager.c: 35:     WPUB = 0x00;
  5883  05BD  018D               	clrf	13	;volatile
  5884  05BE                     l1662:
  5885                           
  5886                           ;mcc_generated_files/pin_manager.c: 36:     OPTION_REGbits.nWPUEN = 1;
  5887  05BE  0021               	movlb	1	; select bank1
  5888  05BF  1795               	bsf	21,7	;volatile
  5889  05C0                     l1664:
  5890                           
  5891                           ;mcc_generated_files/pin_manager.c: 41:     APFCON = 0x00;
  5892  05C0  0022               	movlb	2	; select bank2
  5893  05C1  019D               	clrf	29	;volatile
  5894  05C2                     l39:
  5895  05C2  0008               	return
  5896  05C3                     __end_of_PIN_MANAGER_Initialize:
  5897                           
  5898                           	psect	text56
  5899  0494                     __ptext56:	
  5900 ;; *************** function _OSCILLATOR_Initialize *****************
  5901 ;; Defined at:
  5902 ;;		line 13 in file "mcc_generated_files/mcc.c"
  5903 ;; Parameters:    Size  Location     Type
  5904 ;;		None
  5905 ;; Auto vars:     Size  Location     Type
  5906 ;;		None
  5907 ;; Return value:  Size  Location     Type
  5908 ;;                  1    wreg      void 
  5909 ;; Registers used:
  5910 ;;		wreg, status,2
  5911 ;; Tracked objects:
  5912 ;;		On entry : 0/0
  5913 ;;		On exit  : 0/0
  5914 ;;		Unchanged: 0/0
  5915 ;; Data sizes:     COMMON   BANK0   BANK1   BANK2   BANK3   BANK4   BANK5   BANK6   BANK7   BANK8   BANK9  BANK10  BANK1
      +1  BANK12
  5916 ;;      Params:         0       0       0       0       0       0       0       0       0       0       0       0       
      +0       0
  5917 ;;      Locals:         0       0       0       0       0       0       0       0       0       0       0       0       
      +0       0
  5918 ;;      Temps:          0       0       0       0       0       0       0       0       0       0       0       0       
      +0       0
  5919 ;;      Totals:         0       0       0       0       0       0       0       0       0       0       0       0       
      +0       0
  5920 ;;Total ram usage:        0 bytes
  5921 ;; Hardware stack levels used: 1
  5922 ;; This function calls:
  5923 ;;		Nothing
  5924 ;; This function is called by:
  5925 ;;		_SYSTEM_Initialize
  5926 ;; This function uses a non-reentrant model
  5927 ;;
  5928                           
  5929  0494                     _OSCILLATOR_Initialize:	
  5930                           ;psect for function _OSCILLATOR_Initialize
  5931                           
  5932  0494                     l1674:	
  5933                           ;incstack = 0
  5934                           ; Regs used in _OSCILLATOR_Initialize: [wreg+status,2]
  5935                           
  5936                           
  5937                           ;mcc_generated_files/mcc.c: 16:     OSCCON = 0x70;
  5938  0494  3070               	movlw	112
  5939  0495  0021               	movlb	1	; select bank1
  5940  0496  0099               	movwf	25	;volatile
  5941  0497                     l1676:
  5942                           
  5943                           ;mcc_generated_files/mcc.c: 18:     OSCTUNE = 0x00;
  5944  0497  0198               	clrf	24	;volatile
  5945  0498                     l1678:
  5946                           
  5947                           ;mcc_generated_files/mcc.c: 20:     BORCON = 0x00;
  5948  0498  0022               	movlb	2	; select bank2
  5949  0499  0196               	clrf	22	;volatile
  5950  049A                     l507:	
  5951                           ;mcc_generated_files/mcc.c: 23:     {;mcc_generated_files/mcc.c: 24:     }
  5952                           
  5953                           
  5954                           ;mcc_generated_files/mcc.c: 22:     while(PLLR == 0)
  5955  049A  0021               	movlb	1	; select bank1
  5956  049B  1F1A               	btfss	26,6	;volatile
  5957  049C  2C9E               	goto	u171
  5958  049D  2C9F               	goto	u170
  5959  049E                     u171:
  5960  049E  2C9A               	goto	l507
  5961  049F                     u170:
  5962  049F                     l510:
  5963  049F  0008               	return
  5964  04A0                     __end_of_OSCILLATOR_Initialize:
  5965                           
  5966                           	psect	text57
  5967  0479                     __ptext57:	
  5968 ;; *************** function _I2C_Initialize *****************
  5969 ;; Defined at:
  5970 ;;		line 121 in file "mcc_generated_files/i2c_master.c"
  5971 ;; Parameters:    Size  Location     Type
  5972 ;;		None
  5973 ;; Auto vars:     Size  Location     Type
  5974 ;;		None
  5975 ;; Return value:  Size  Location     Type
  5976 ;;                  1    wreg      void 
  5977 ;; Registers used:
  5978 ;;		wreg, status,2
  5979 ;; Tracked objects:
  5980 ;;		On entry : 0/0
  5981 ;;		On exit  : 0/0
  5982 ;;		Unchanged: 0/0
  5983 ;; Data sizes:     COMMON   BANK0   BANK1   BANK2   BANK3   BANK4   BANK5   BANK6   BANK7   BANK8   BANK9  BANK10  BANK1
      +1  BANK12
  5984 ;;      Params:         0       0       0       0       0       0       0       0       0       0       0       0       
      +0       0
  5985 ;;      Locals:         0       0       0       0       0       0       0       0       0       0       0       0       
      +0       0
  5986 ;;      Temps:          0       0       0       0       0       0       0       0       0       0       0       0       
      +0       0
  5987 ;;      Totals:         0       0       0       0       0       0       0       0       0       0       0       0       
      +0       0
  5988 ;;Total ram usage:        0 bytes
  5989 ;; Hardware stack levels used: 1
  5990 ;; This function calls:
  5991 ;;		Nothing
  5992 ;; This function is called by:
  5993 ;;		_SYSTEM_Initialize
  5994 ;; This function uses a non-reentrant model
  5995 ;;
  5996                           
  5997  0479                     _I2C_Initialize:	
  5998                           ;psect for function _I2C_Initialize
  5999                           
  6000  0479                     l1666:	
  6001                           ;incstack = 0
  6002                           ; Regs used in _I2C_Initialize: [wreg+status,2]
  6003                           
  6004                           
  6005                           ;mcc_generated_files/i2c_master.c: 123:     SSPSTAT = 0x00;
  6006  0479  0024               	movlb	4	; select bank4
  6007  047A  0194               	clrf	20	;volatile
  6008  047B                     l1668:
  6009                           
  6010                           ;mcc_generated_files/i2c_master.c: 124:     SSPCON1 = 0x08;
  6011  047B  3008               	movlw	8
  6012  047C  0095               	movwf	21	;volatile
  6013  047D                     l1670:
  6014                           
  6015                           ;mcc_generated_files/i2c_master.c: 125:     SSPCON2 = 0x00;
  6016  047D  0196               	clrf	22	;volatile
  6017                           
  6018                           ;mcc_generated_files/i2c_master.c: 126:     SSPADD = 0x4F;
  6019  047E  304F               	movlw	79
  6020  047F  0092               	movwf	18	;volatile
  6021  0480                     l1672:
  6022                           
  6023                           ;mcc_generated_files/i2c_master.c: 127:     SSPCON1bits.SSPEN = 0;
  6024  0480  1295               	bcf	21,5	;volatile
  6025  0481                     l157:
  6026  0481  0008               	return
  6027  0482                     __end_of_I2C_Initialize:
  6028  007E                     btemp	set	126	;btemp
  6029  007E                     wtemp0	set	126
  6030                           
  6031                           	psect	idloc
  6032                           
  6033                           ;Config register IDLOC0 @ 0x8000
  6034                           ;	unspecified, using default values
  6035  8000                     	org	32768
  6036  8000  3FFF               	dw	16383
  6037                           
  6038                           ;Config register IDLOC1 @ 0x8001
  6039                           ;	unspecified, using default values
  6040  8001                     	org	32769
  6041  8001  3FFF               	dw	16383
  6042                           
  6043                           ;Config register IDLOC2 @ 0x8002
  6044                           ;	unspecified, using default values
  6045  8002                     	org	32770
  6046  8002  3FFF               	dw	16383
  6047                           
  6048                           ;Config register IDLOC3 @ 0x8003
  6049                           ;	unspecified, using default values
  6050  8003                     	org	32771
  6051  8003  3FFF               	dw	16383
  6052                           
  6053                           	psect	config
  6054                           
  6055                           ;Config register CONFIG1 @ 0x8007
  6056                           ;	Oscillator Selection
  6057                           ;	FOSC = INTOSC, INTOSC oscillator: I/O function on CLKIN pin
  6058                           ;	Watchdog Timer Enable
  6059                           ;	WDTE = OFF, WDT disabled
  6060                           ;	Power-up Timer Enable
  6061                           ;	PWRTE = OFF, PWRT disabled
  6062                           ;	MCLR Pin Function Select
  6063                           ;	MCLRE = ON, MCLR/VPP pin function is MCLR
  6064                           ;	Flash Program Memory Code Protection
  6065                           ;	CP = OFF, Program memory code protection is disabled
  6066                           ;	Data Memory Code Protection
  6067                           ;	CPD = OFF, Data memory code protection is disabled
  6068                           ;	Brown-out Reset Enable
  6069                           ;	BOREN = ON, Brown-out Reset enabled
  6070                           ;	Clock Out Enable
  6071                           ;	CLKOUTEN = OFF, CLKOUT function is disabled. I/O or oscillator function on the CLKOUT 
      +                          pin
  6072                           ;	Internal/External Switchover
  6073                           ;	IESO = ON, Internal/External Switchover mode is enabled
  6074                           ;	Fail-Safe Clock Monitor Enable
  6075                           ;	FCMEN = ON, Fail-Safe Clock Monitor is enabled
  6076  8007                     	org	32775
  6077  8007  3FE4               	dw	16356
  6078                           
  6079                           ;Config register CONFIG2 @ 0x8008
  6080                           ;	Flash Memory Self-Write Protection
  6081                           ;	WRT = OFF, Write protection off
  6082                           ;	Voltage Regulator Capacitor Enable
  6083                           ;	VCAPEN = OFF, All VCAP pin functionality is disabled
  6084                           ;	PLL Enable
  6085                           ;	PLLEN = ON, 4x PLL enabled
  6086                           ;	Stack Overflow/Underflow Reset Enable
  6087                           ;	STVREN = ON, Stack Overflow or Underflow will cause a Reset
  6088                           ;	Brown-out Reset Voltage Selection
  6089                           ;	BORV = LO, Brown-out Reset Voltage (Vbor), low trip point selected.
  6090                           ;	Low-Voltage Programming Enable
  6091                           ;	LVP = ON, Low-voltage programming enabled
  6092  8008                     	org	32776
  6093  8008  3FFF               	dw	16383

Data Sizes:
    Strings     0
    Constant    32
    Data        5
    BSS         32
    Persistent  32
    Stack       0

Auto Spaces:
    Space          Size  Autos    Used
    COMMON           14     14      14
    BANK0            80     10      47
    BANK1            80      0       0
    BANK2            80      0       0
    BANK3            80      0       0
    BANK4            80      0       0
    BANK5            80      0       0
    BANK6            80      0       0
    BANK7            80      0       0
    BANK8            80      0       0
    BANK9            80      0       0
    BANK10           80      0       0
    BANK11           80      0       0
    BANK12           48      0       0

Pointer List with Targets:

    I2C_Read1ByteRegister@returnValue.data	PTR unsigned char  size(1) Largest target is 0

    I2C_Read2ByteRegister@returnValue.data	PTR unsigned char  size(1) Largest target is 0

    I2C_Write1ByteRegister@data.data	PTR unsigned char  size(1) Largest target is 0

    I2C_Write2ByteRegister@data.data	PTR unsigned char  size(1) Largest target is 0

    I2C_DO_TX$1618$0	PTR void  size(1) Largest target is 4
		 -> I2C_ReadDataBlock@bufferBlock(COMMON[3]), I2C_Write2ByteRegister@data(COMMON[2]), I2C_Write1ByteRegister@data(COMMON[1]), I2C_Read2ByteRegister@returnValue(COMMON[1]), 
		 -> I2C_Read1ByteRegister@returnValue(COMMON[1]), NULL(NULL[0]), 

    I2C_DO_TX$1623	PTR void  size(1) Largest target is 4
		 -> I2C_ReadDataBlock@bufferBlock(COMMON[3]), I2C_Write2ByteRegister@data(COMMON[2]), I2C_Write1ByteRegister@data(COMMON[1]), I2C_Read2ByteRegister@returnValue(COMMON[1]), 
		 -> I2C_Read1ByteRegister@returnValue(COMMON[1]), NULL(NULL[0]), 

    I2C_DO_TX$1618	PTR FTN(PTR void ,)enum E360 size(2) Largest target is 1
		 -> rdBlkRegCompleteHandler(), wr2RegCompleteHandler(), wr1RegCompleteHandler(), rd1RegCompleteHandler(), 
		 -> I2C_CallbackReturnReset(), I2C_CallbackReturnStop(), Absolute function(), 

    I2C_MasterFsm$1617	const PTR FTN()enum E3373 size(2) Largest target is 1
		 -> I2C_DO_ADDRESS_NACK(), I2C_DO_RESET(), I2C_DO_RX_NACK_RESTART(), I2C_DO_RX_NACK_STOP(), 
		 -> I2C_DO_RX_ACK(), I2C_DO_SEND_STOP(), I2C_DO_SEND_RESTART(), I2C_DO_SEND_RESTART_WRITE(), 
		 -> I2C_DO_SEND_RESTART_READ(), I2C_DO_TX_EMPTY(), I2C_DO_RCEN(), I2C_DO_RX(), 
		 -> I2C_DO_TX(), I2C_DO_SEND_ADR_WRITE(), I2C_DO_SEND_ADR_READ(), I2C_DO_IDLE(), 

    I2C_CallbackReturnStop@funPtr	PTR void  size(1) Largest target is 4
		 -> I2C_ReadDataBlock@bufferBlock(COMMON[3]), I2C_Write2ByteRegister@data(COMMON[2]), I2C_Write1ByteRegister@data(COMMON[1]), I2C_Read2ByteRegister@returnValue(COMMON[1]), 
		 -> I2C_Read1ByteRegister@returnValue(COMMON[1]), NULL(NULL[0]), 

    I2C_CallbackReturnReset@funPtr	PTR void  size(1) Largest target is 4
		 -> I2C_ReadDataBlock@bufferBlock(COMMON[3]), I2C_Write2ByteRegister@data(COMMON[2]), I2C_Write1ByteRegister@data(COMMON[1]), I2C_Read2ByteRegister@returnValue(COMMON[1]), 
		 -> I2C_Read1ByteRegister@returnValue(COMMON[1]), NULL(NULL[0]), 

    cb$0	PTR void  size(1) Largest target is 4
		 -> I2C_ReadDataBlock@bufferBlock(COMMON[3]), I2C_Write2ByteRegister@data(COMMON[2]), I2C_Write1ByteRegister@data(COMMON[1]), I2C_Read2ByteRegister@returnValue(COMMON[1]), 
		 -> I2C_Read1ByteRegister@returnValue(COMMON[1]), NULL(NULL[0]), 

    Absolute function$0	PTR void  size(1) Largest target is 4
		 -> I2C_ReadDataBlock@bufferBlock(COMMON[3]), I2C_Write2ByteRegister@data(COMMON[2]), I2C_Write1ByteRegister@data(COMMON[1]), I2C_Read2ByteRegister@returnValue(COMMON[1]), 
		 -> I2C_Read1ByteRegister@returnValue(COMMON[1]), NULL(NULL[0]), 

    cb$0	PTR void  size(1) Largest target is 4
		 -> I2C_ReadDataBlock@bufferBlock(COMMON[3]), I2C_Write2ByteRegister@data(COMMON[2]), I2C_Write1ByteRegister@data(COMMON[1]), I2C_Read2ByteRegister@returnValue(COMMON[1]), 
		 -> I2C_Read1ByteRegister@returnValue(COMMON[1]), NULL(NULL[0]), 

    S174$0$0	PTR void  size(1) Largest target is 4
		 -> I2C_ReadDataBlock@bufferBlock(COMMON[3]), I2C_Write2ByteRegister@data(COMMON[2]), I2C_Write1ByteRegister@data(COMMON[1]), I2C_Read2ByteRegister@returnValue(COMMON[1]), 
		 -> I2C_Read1ByteRegister@returnValue(COMMON[1]), NULL(NULL[0]), 

    rdBlkRegCompleteHandler@ptr.data	PTR unsigned char  size(1) Largest target is 0

    rdBlkRegCompleteHandler@ptr	PTR void  size(1) Largest target is 4
		 -> I2C_ReadDataBlock@bufferBlock(COMMON[3]), I2C_Write2ByteRegister@data(COMMON[2]), I2C_Write1ByteRegister@data(COMMON[1]), I2C_Read2ByteRegister@returnValue(COMMON[1]), 
		 -> I2C_Read1ByteRegister@returnValue(COMMON[1]), NULL(NULL[0]), 

    wr2RegCompleteHandler@ptr	PTR void  size(1) Largest target is 4
		 -> I2C_ReadDataBlock@bufferBlock(COMMON[3]), I2C_Write2ByteRegister@data(COMMON[2]), I2C_Write1ByteRegister@data(COMMON[1]), I2C_Read2ByteRegister@returnValue(COMMON[1]), 
		 -> I2C_Read1ByteRegister@returnValue(COMMON[1]), NULL(NULL[0]), 

    wr1RegCompleteHandler@ptr	PTR void  size(1) Largest target is 4
		 -> I2C_ReadDataBlock@bufferBlock(COMMON[3]), I2C_Write2ByteRegister@data(COMMON[2]), I2C_Write1ByteRegister@data(COMMON[1]), I2C_Read2ByteRegister@returnValue(COMMON[1]), 
		 -> I2C_Read1ByteRegister@returnValue(COMMON[1]), NULL(NULL[0]), 

    rd1RegCompleteHandler@ptr	PTR void  size(1) Largest target is 4
		 -> I2C_ReadDataBlock@bufferBlock(COMMON[3]), I2C_Write2ByteRegister@data(COMMON[2]), I2C_Write1ByteRegister@data(COMMON[1]), I2C_Read2ByteRegister@returnValue(COMMON[1]), 
		 -> I2C_Read1ByteRegister@returnValue(COMMON[1]), NULL(NULL[0]), 

    S490$data	PTR unsigned char  size(1) Largest target is 0

    bufferBlock.data	PTR unsigned char  size(1) Largest target is 0

    I2C_SetCallback@ptr	PTR void  size(1) Largest target is 4
		 -> I2C_ReadDataBlock@bufferBlock(COMMON[3]), I2C_Write2ByteRegister@data(COMMON[2]), I2C_Write1ByteRegister@data(COMMON[1]), I2C_Read2ByteRegister@returnValue(COMMON[1]), 
		 -> I2C_Read1ByteRegister@returnValue(COMMON[1]), NULL(NULL[0]), 

    I2C_SetCallback@cb	PTR FTN(PTR void ,)enum E360 size(2) Largest target is 1
		 -> rdBlkRegCompleteHandler(), wr2RegCompleteHandler(), wr1RegCompleteHandler(), rd1RegCompleteHandler(), 
		 -> Absolute function(), 

    I2C_SetAddressNackCallback@ptr	PTR void  size(1) Largest target is 0
		 -> NULL(NULL[0]), 

    I2C_SetAddressNackCallback@cb	PTR FTN(PTR void ,)enum E360 size(2) Largest target is 1
		 -> Absolute function(), 

    I2C_SetDataCompleteCallback@ptr	PTR void  size(1) Largest target is 4
		 -> I2C_ReadDataBlock@bufferBlock(COMMON[3]), I2C_Write2ByteRegister@data(COMMON[2]), I2C_Write1ByteRegister@data(COMMON[1]), I2C_Read2ByteRegister@returnValue(COMMON[1]), 
		 -> I2C_Read1ByteRegister@returnValue(COMMON[1]), NULL(NULL[0]), 

    I2C_SetDataCompleteCallback@cb	PTR FTN(PTR void ,)enum E360 size(2) Largest target is 1
		 -> rdBlkRegCompleteHandler(), wr2RegCompleteHandler(), wr1RegCompleteHandler(), rd1RegCompleteHandler(), 
		 -> Absolute function(), 

    I2C_SetBuffer@buffer	PTR void  size(1) Largest target is 4
		 -> I2C_Read1ByteRegister@returnValue.data(COMMON[2]), I2C_Read2ByteRegister@returnValue.data(COMMON[2]), I2C_Write1ByteRegister@data.data(COMMON[2]), I2C_Write2ByteRegister@data.data(COMMON[2]), 
		 -> I2C_Rd@returnValue(COMMON[1]), I2C_Wr@data(COMMON[1]), I2C_ReadDataBlock@reg(COMMON[1]), I2C_ReadDataBlock@bufferBlock(COMMON[3]), 
		 -> bufferBlock.data(COMMON[2]), I2C_Write2ByteRegister@reg(COMMON[1]), I2C_Write2ByteRegister@data(COMMON[2]), I2C_Write1ByteRegister@reg(COMMON[1]), 
		 -> I2C_Write1ByteRegister@data(COMMON[1]), I2C_Read2ByteRegister@reg(COMMON[1]), I2C_Read2ByteRegister@returnValue(COMMON[1]), I2C_Read1ByteRegister@reg(COMMON[1]), 
		 -> I2C_Read1ByteRegister@returnValue(COMMON[1]), NULL(NULL[0]), 

    S174$data_ptr	PTR unsigned char  size(1) Largest target is 4
		 -> I2C_Rd@returnValue(COMMON[1]), I2C_Wr@data(COMMON[1]), I2C_ReadDataBlock@reg(COMMON[1]), I2C_ReadDataBlock@bufferBlock(COMMON[3]), 
		 -> I2C_Write2ByteRegister@reg(COMMON[1]), I2C_Write2ByteRegister@data(COMMON[2]), I2C_Write1ByteRegister@reg(COMMON[1]), I2C_Write1ByteRegister@data(COMMON[1]), 
		 -> I2C_Read2ByteRegister@reg(COMMON[1]), I2C_Read2ByteRegister@returnValue(COMMON[1]), I2C_Read1ByteRegister@reg(COMMON[1]), I2C_Read1ByteRegister@returnValue(COMMON[1]), 
		 -> NULL(NULL[0]), 

    I2C_Status.data_ptr	PTR unsigned char  size(1) Largest target is 4
		 -> I2C_Read1ByteRegister@returnValue.data(COMMON[2]), I2C_Read2ByteRegister@returnValue.data(COMMON[2]), I2C_Write1ByteRegister@data.data(COMMON[2]), I2C_Write2ByteRegister@data.data(COMMON[2]), 
		 -> I2C_Rd@returnValue(COMMON[1]), I2C_Wr@data(COMMON[1]), I2C_ReadDataBlock@reg(COMMON[1]), I2C_ReadDataBlock@bufferBlock(COMMON[3]), 
		 -> bufferBlock.data(COMMON[2]), I2C_Write2ByteRegister@reg(COMMON[1]), I2C_Write2ByteRegister@data(COMMON[2]), I2C_Write1ByteRegister@reg(COMMON[1]), 
		 -> I2C_Write1ByteRegister@data(COMMON[1]), I2C_Read2ByteRegister@reg(COMMON[1]), I2C_Read2ByteRegister@returnValue(COMMON[1]), I2C_Read1ByteRegister@reg(COMMON[1]), 
		 -> I2C_Read1ByteRegister@returnValue(COMMON[1]), NULL(NULL[0]), 

    S174$callbackPayload	PTR void [6] size(1) Largest target is 4
		 -> I2C_ReadDataBlock@bufferBlock(COMMON[3]), I2C_Write2ByteRegister@data(COMMON[2]), I2C_Write1ByteRegister@data(COMMON[1]), I2C_Read2ByteRegister@returnValue(COMMON[1]), 
		 -> I2C_Read1ByteRegister@returnValue(COMMON[1]), NULL(NULL[0]), 

    I2C_Status.callbackPayload	PTR void [6] size(1) Largest target is 4
		 -> I2C_ReadDataBlock@bufferBlock(COMMON[3]), I2C_Write2ByteRegister@data(COMMON[2]), I2C_Write1ByteRegister@data(COMMON[1]), I2C_Read2ByteRegister@returnValue(COMMON[1]), 
		 -> I2C_Read1ByteRegister@returnValue(COMMON[1]), NULL(NULL[0]), 

    S174$callbackTable	PTR FTN(PTR void ,)enum E360[6] size(2) Largest target is 1
		 -> rdBlkRegCompleteHandler(), wr2RegCompleteHandler(), wr1RegCompleteHandler(), rd1RegCompleteHandler(), 
		 -> I2C_CallbackReturnReset(), I2C_CallbackReturnStop(), Absolute function(), 

    I2C_Status.callbackTable	PTR FTN(PTR void ,)enum E360[6] size(2) Largest target is 1
		 -> rdBlkRegCompleteHandler(), wr2RegCompleteHandler(), wr1RegCompleteHandler(), rd1RegCompleteHandler(), 
		 -> I2C_CallbackReturnReset(), I2C_CallbackReturnStop(), Absolute function(), 

    i2c_fsmStateTable	const PTR FTN()enum E3373[16] size(2) Largest target is 1
		 -> I2C_DO_ADDRESS_NACK(), I2C_DO_RESET(), I2C_DO_RX_NACK_RESTART(), I2C_DO_RX_NACK_STOP(), 
		 -> I2C_DO_RX_ACK(), I2C_DO_SEND_STOP(), I2C_DO_SEND_RESTART(), I2C_DO_SEND_RESTART_WRITE(), 
		 -> I2C_DO_SEND_RESTART_READ(), I2C_DO_TX_EMPTY(), I2C_DO_RCEN(), I2C_DO_RX(), 
		 -> I2C_DO_TX(), I2C_DO_SEND_ADR_WRITE(), I2C_DO_SEND_ADR_READ(), I2C_DO_IDLE(), 


Critical Paths under _main in COMMON

    _i2c_lcd_init->_PCF_Wr
    _loadPCF->_PCF_Wr
    _PCF_Wr->_I2C_Wr
    _I2C_SetAddressNackCallback->_I2C_SetCallback
    _I2C_MasterWrite->_I2C_MasterOperation
    _I2C_Poller->_I2C_MasterFsm
    _I2C_MasterFsm->_I2C_DO_TX
    _I2C_DO_TX->_I2C_MasterSendTxData
    _I2C_DO_SEND_ADR_WRITE->_I2C_MasterSendTxData
    _wr2RegCompleteHandler->_I2C_SetDataCompleteCallback
    _wr1RegCompleteHandler->_I2C_SetDataCompleteCallback
    _rdBlkRegCompleteHandler->_I2C_SetDataCompleteCallback
    _rd1RegCompleteHandler->_I2C_SetDataCompleteCallback
    _I2C_SetDataCompleteCallback->_I2C_SetCallback

Critical Paths under _main in BANK0

    _main->_i2c_lcd_init
    _i2c_lcd_init->_sendCMD
    _sendCMD->_loadPCF

Critical Paths under _main in BANK1

    None.

Critical Paths under _main in BANK2

    None.

Critical Paths under _main in BANK3

    None.

Critical Paths under _main in BANK4

    None.

Critical Paths under _main in BANK5

    None.

Critical Paths under _main in BANK6

    None.

Critical Paths under _main in BANK7

    None.

Critical Paths under _main in BANK8

    None.

Critical Paths under _main in BANK9

    None.

Critical Paths under _main in BANK10

    None.

Critical Paths under _main in BANK11

    None.

Critical Paths under _main in BANK12

    None.

Call Graph Tables:

 ---------------------------------------------------------------------------------
 (Depth) Function   	        Calls       Base Space   Used Autos Params    Refs
 ---------------------------------------------------------------------------------
 (0) _main                                                 0     0      0  140860
                  _SYSTEM_Initialize
                       _i2c_lcd_init
 ---------------------------------------------------------------------------------
 (1) _i2c_lcd_init                                         1     1      0  140860
                                              9 BANK0      1     1      0
                             _PCF_Wr
                            _sendCMD
 ---------------------------------------------------------------------------------
 (2) _sendCMD                                              5     5      0   70673
                                              4 BANK0      5     5      0
                            _loadPCF
 ---------------------------------------------------------------------------------
 (3) _loadPCF                                              4     3      1   70583
                                              0 BANK0      4     3      1
                             _PCF_Wr
 ---------------------------------------------------------------------------------
 (4) _PCF_Wr                                               2     2      0   70187
                                             12 COMMON     2     2      0
                             _I2C_Wr
 ---------------------------------------------------------------------------------
 (5) _I2C_Wr                                               2     1      1   70165
                                             10 COMMON     2     1      1
                          _I2C_Close
                    _I2C_MasterWrite
                           _I2C_Open
         _I2C_SetAddressNackCallback
                      _I2C_SetBuffer
 ---------------------------------------------------------------------------------
 (6) _I2C_SetAddressNackCallback                           4     1      3    2022
                                              5 COMMON     4     1      3
                    _I2C_SetCallback
 ---------------------------------------------------------------------------------
 (6) _I2C_Open                                             3     3      0      46
                                              0 COMMON     3     3      0
                 _I2C_MasterClearIrq
                     _I2C_MasterOpen
 ---------------------------------------------------------------------------------
 (7) _I2C_MasterOpen                                       0     0      0       0
 ---------------------------------------------------------------------------------
 (6) _I2C_MasterWrite                                      0     0      0   66380
                _I2C_MasterOperation
 ---------------------------------------------------------------------------------
 (7) _I2C_MasterOperation                                  3     3      0   66380
                                              7 COMMON     3     3      0
                    _I2C_MasterStart
                         _I2C_Poller
 ---------------------------------------------------------------------------------
 (8) _I2C_Poller                                           0     0      0   66334
                      _I2C_MasterFsm
             _I2C_MasterWaitForEvent
 ---------------------------------------------------------------------------------
 (9) _I2C_MasterWaitForEvent                               0     0      0       0
 ---------------------------------------------------------------------------------
 (9) _I2C_MasterFsm                                        3     3      0   66334
                                              4 COMMON     3     3      0
                _I2C_DO_ADDRESS_NACK *
                        _I2C_DO_IDLE *
                        _I2C_DO_RCEN *
                       _I2C_DO_RESET *
                          _I2C_DO_RX *
                      _I2C_DO_RX_ACK *
             _I2C_DO_RX_NACK_RESTART *
                _I2C_DO_RX_NACK_STOP *
               _I2C_DO_SEND_ADR_READ *
              _I2C_DO_SEND_ADR_WRITE *
                _I2C_DO_SEND_RESTART *
           _I2C_DO_SEND_RESTART_READ *
          _I2C_DO_SEND_RESTART_WRITE *
                   _I2C_DO_SEND_STOP *
                          _I2C_DO_TX *
                    _I2C_DO_TX_EMPTY *
                 _I2C_MasterClearIrq
                   _I2C_MasterIsNack
 ---------------------------------------------------------------------------------
 (10) _I2C_DO_TX_EMPTY                                     3     3      0   16567
                                              0 COMMON     3     3      0
                   Absolute function *
            _I2C_CallbackReturnReset *
             _I2C_CallbackReturnStop *
                _I2C_DO_SEND_RESTART
                   _I2C_DO_SEND_STOP
                   _I2C_MasterSetIrq
              _rd1RegCompleteHandler *
            _rdBlkRegCompleteHandler *
              _wr1RegCompleteHandler *
              _wr2RegCompleteHandler *
 ---------------------------------------------------------------------------------
 (11) _I2C_MasterSetIrq                                    0     0      0       0
 ---------------------------------------------------------------------------------
 (10) _I2C_DO_TX                                           3     3      0   16589
                                              1 COMMON     3     3      0
                   Absolute function *
            _I2C_CallbackReturnReset *
             _I2C_CallbackReturnStop *
           _I2C_DO_SEND_RESTART_READ
          _I2C_DO_SEND_RESTART_WRITE
                   _I2C_DO_SEND_STOP
                   _I2C_MasterIsNack
               _I2C_MasterSendTxData
              _rd1RegCompleteHandler *
            _rdBlkRegCompleteHandler *
              _wr1RegCompleteHandler *
              _wr2RegCompleteHandler *
 ---------------------------------------------------------------------------------
 (10) _I2C_MasterIsNack                                    0     0      0       0
 ---------------------------------------------------------------------------------
 (11) _I2C_DO_SEND_RESTART_WRITE                           0     0      0       0
            _I2C_MasterEnableRestart
 ---------------------------------------------------------------------------------
 (11) _I2C_DO_SEND_RESTART_READ                            0     0      0       0
            _I2C_MasterEnableRestart
 ---------------------------------------------------------------------------------
 (10) _I2C_DO_SEND_ADR_WRITE                               0     0      0      22
               _I2C_MasterSendTxData
 ---------------------------------------------------------------------------------
 (10) _I2C_DO_SEND_ADR_READ                                0     0      0      22
               _I2C_MasterSendTxData
 ---------------------------------------------------------------------------------
 (11) _I2C_MasterSendTxData                                1     1      0      22
                                              0 COMMON     1     1      0
 ---------------------------------------------------------------------------------
 (10) _I2C_DO_RX_ACK                                       0     0      0       0
                  _I2C_MasterSendAck
 ---------------------------------------------------------------------------------
 (10) _I2C_DO_RX                                           3     3      0   16567
                                              0 COMMON     3     3      0
                   Absolute function *
            _I2C_CallbackReturnReset *
             _I2C_CallbackReturnStop *
             _I2C_DO_RX_NACK_RESTART
                _I2C_DO_RX_NACK_STOP
                _I2C_MasterGetRxData
                  _I2C_MasterSendAck
              _rd1RegCompleteHandler *
            _rdBlkRegCompleteHandler *
              _wr1RegCompleteHandler *
              _wr2RegCompleteHandler *
 ---------------------------------------------------------------------------------
 (11) _I2C_MasterSendAck                                   0     0      0       0
 ---------------------------------------------------------------------------------
 (11) _I2C_MasterGetRxData                                 0     0      0       0
 ---------------------------------------------------------------------------------
 (10) _I2C_DO_RX_NACK_STOP                                 0     0      0       0
                 _I2C_MasterSendNack
 ---------------------------------------------------------------------------------
 (10) _I2C_DO_RX_NACK_RESTART                              0     0      0       0
                 _I2C_MasterSendNack
 ---------------------------------------------------------------------------------
 (11) _I2C_MasterSendNack                                  0     0      0       0
 ---------------------------------------------------------------------------------
 (10) _I2C_DO_RESET                                        0     0      0       0
 ---------------------------------------------------------------------------------
 (10) _I2C_DO_RCEN                                         0     0      0       0
                  _I2C_MasterStartRx
 ---------------------------------------------------------------------------------
 (11) _I2C_MasterStartRx                                   0     0      0       0
 ---------------------------------------------------------------------------------
 (10) _I2C_DO_IDLE                                         0     0      0       0
 ---------------------------------------------------------------------------------
 (10) _I2C_DO_ADDRESS_NACK                                 3     3      0   16567
                                              0 COMMON     3     3      0
                   Absolute function *
            _I2C_CallbackReturnReset *
             _I2C_CallbackReturnStop *
                _I2C_DO_SEND_RESTART
                   _I2C_DO_SEND_STOP
              _rd1RegCompleteHandler *
            _rdBlkRegCompleteHandler *
              _wr1RegCompleteHandler *
              _wr2RegCompleteHandler *
 ---------------------------------------------------------------------------------
 (11) _wr2RegCompleteHandler                               1     0      1    4070
                                              9 COMMON     1     0      1
                      _I2C_SetBuffer
        _I2C_SetDataCompleteCallback
 ---------------------------------------------------------------------------------
 (11) _wr1RegCompleteHandler                               1     0      1    4070
                                              9 COMMON     1     0      1
                      _I2C_SetBuffer
        _I2C_SetDataCompleteCallback
 ---------------------------------------------------------------------------------
 (11) _rdBlkRegCompleteHandler                             1     0      1    4357
                                              9 COMMON     1     0      1
                      _I2C_SetBuffer
        _I2C_SetDataCompleteCallback
 ---------------------------------------------------------------------------------
 (11) _rd1RegCompleteHandler                               1     0      1    4070
                                              9 COMMON     1     0      1
                      _I2C_SetBuffer
        _I2C_SetDataCompleteCallback
 ---------------------------------------------------------------------------------
 (12) _I2C_SetDataCompleteCallback                         4     1      3    2478
                                              5 COMMON     4     1      3
                    _I2C_SetCallback
 ---------------------------------------------------------------------------------
 (7) _I2C_SetCallback                                      5     2      3     914
                                              0 COMMON     5     2      3
 ---------------------------------------------------------------------------------
 (6) _I2C_SetBuffer                                        4     2      2    1570
                                              0 COMMON     4     2      2
 ---------------------------------------------------------------------------------
 (11) _I2C_DO_SEND_STOP                                    0     0      0       0
                     _I2C_MasterStop
 ---------------------------------------------------------------------------------
 (12) _I2C_MasterStop                                      0     0      0       0
 ---------------------------------------------------------------------------------
 (11) _I2C_DO_SEND_RESTART                                 0     0      0       0
            _I2C_MasterEnableRestart
 ---------------------------------------------------------------------------------
 (12) _I2C_MasterEnableRestart                             0     0      0       0
 ---------------------------------------------------------------------------------
 (11) _I2C_CallbackReturnStop                              1     0      1       0
                                              9 COMMON     1     0      1
 ---------------------------------------------------------------------------------
 (11) _I2C_CallbackReturnReset                             1     0      1       0
                                              9 COMMON     1     0      1
 ---------------------------------------------------------------------------------
 (11) Absolute function(Fake)                              1     0      1       0
 ---------------------------------------------------------------------------------
 (8) _I2C_MasterStart                                      0     0      0       0
 ---------------------------------------------------------------------------------
 (6) _I2C_Close                                            2     2      0      24
                                              0 COMMON     2     2      0
                 _I2C_MasterClearIrq
                    _I2C_MasterClose
               _I2C_MasterDisableIrq
 ---------------------------------------------------------------------------------
 (7) _I2C_MasterDisableIrq                                 0     0      0       0
 ---------------------------------------------------------------------------------
 (7) _I2C_MasterClose                                      0     0      0       0
 ---------------------------------------------------------------------------------
 (7) _I2C_MasterClearIrq                                   0     0      0       0
 ---------------------------------------------------------------------------------
 (1) _SYSTEM_Initialize                                    0     0      0       0
                     _I2C_Initialize
              _OSCILLATOR_Initialize
             _PIN_MANAGER_Initialize
                     _WDT_Initialize
 ---------------------------------------------------------------------------------
 (2) _WDT_Initialize                                       0     0      0       0
 ---------------------------------------------------------------------------------
 (2) _PIN_MANAGER_Initialize                               0     0      0       0
 ---------------------------------------------------------------------------------
 (2) _OSCILLATOR_Initialize                                0     0      0       0
 ---------------------------------------------------------------------------------
 (2) _I2C_Initialize                                       0     0      0       0
 ---------------------------------------------------------------------------------
 Estimated maximum stack depth 12
 ---------------------------------------------------------------------------------

 Call Graph Graphs:

 _main (ROOT)
   _SYSTEM_Initialize
     _I2C_Initialize
     _OSCILLATOR_Initialize
     _PIN_MANAGER_Initialize
     _WDT_Initialize
   _i2c_lcd_init
     _PCF_Wr
       _I2C_Wr
         _I2C_Close
           _I2C_MasterClearIrq
           _I2C_MasterClose
           _I2C_MasterDisableIrq
         _I2C_MasterWrite
           _I2C_MasterOperation
             _I2C_MasterStart
             _I2C_Poller
               _I2C_MasterFsm
                 _I2C_DO_ADDRESS_NACK *
                   Absolute function(Fake) *
                   _I2C_CallbackReturnReset *
                   _I2C_CallbackReturnStop *
                   _I2C_DO_SEND_RESTART *
                     _I2C_MasterEnableRestart
                   _I2C_DO_SEND_STOP *
                     _I2C_MasterStop
                   _rd1RegCompleteHandler *
                     _I2C_SetBuffer
                     _I2C_SetDataCompleteCallback
                       _I2C_SetCallback
                   _rdBlkRegCompleteHandler *
                     _I2C_SetBuffer
                     _I2C_SetDataCompleteCallback
                   _wr1RegCompleteHandler *
                     _I2C_SetBuffer
                     _I2C_SetDataCompleteCallback
                   _wr2RegCompleteHandler *
                     _I2C_SetBuffer
                     _I2C_SetDataCompleteCallback
                 _I2C_DO_IDLE *
                 _I2C_DO_RCEN *
                   _I2C_MasterStartRx
                 _I2C_DO_RESET *
                 _I2C_DO_RX *
                   Absolute function(Fake) *
                   _I2C_CallbackReturnReset *
                   _I2C_CallbackReturnStop *
                   _I2C_DO_RX_NACK_RESTART *
                     _I2C_MasterSendNack
                   _I2C_DO_RX_NACK_STOP *
                     _I2C_MasterSendNack
                   _I2C_MasterGetRxData *
                   _I2C_MasterSendAck *
                   _rd1RegCompleteHandler *
                   _rdBlkRegCompleteHandler *
                   _wr1RegCompleteHandler *
                   _wr2RegCompleteHandler *
                 _I2C_DO_RX_ACK *
                   _I2C_MasterSendAck
                 _I2C_DO_RX_NACK_RESTART *
                 _I2C_DO_RX_NACK_STOP *
                 _I2C_DO_SEND_ADR_READ *
                   _I2C_MasterSendTxData
                 _I2C_DO_SEND_ADR_WRITE *
                   _I2C_MasterSendTxData
                 _I2C_DO_SEND_RESTART *
                 _I2C_DO_SEND_RESTART_READ *
                   _I2C_MasterEnableRestart
                 _I2C_DO_SEND_RESTART_WRITE *
                   _I2C_MasterEnableRestart
                 _I2C_DO_SEND_STOP *
                 _I2C_DO_TX *
                   Absolute function(Fake) *
                   _I2C_CallbackReturnReset *
                   _I2C_CallbackReturnStop *
                   _I2C_DO_SEND_RESTART_READ *
                   _I2C_DO_SEND_RESTART_WRITE *
                   _I2C_DO_SEND_STOP *
                   _I2C_MasterIsNack *
                   _I2C_MasterSendTxData *
                   _rd1RegCompleteHandler *
                   _rdBlkRegCompleteHandler *
                   _wr1RegCompleteHandler *
                   _wr2RegCompleteHandler *
                 _I2C_DO_TX_EMPTY *
                   Absolute function(Fake) *
                   _I2C_CallbackReturnReset *
                   _I2C_CallbackReturnStop *
                   _I2C_DO_SEND_RESTART *
                   _I2C_DO_SEND_STOP *
                   _I2C_MasterSetIrq *
                   _rd1RegCompleteHandler *
                   _rdBlkRegCompleteHandler *
                   _wr1RegCompleteHandler *
                   _wr2RegCompleteHandler *
                 _I2C_MasterClearIrq *
                 _I2C_MasterIsNack *
               _I2C_MasterWaitForEvent
         _I2C_Open
           _I2C_MasterClearIrq
           _I2C_MasterOpen
         _I2C_SetAddressNackCallback
           _I2C_SetCallback
         _I2C_SetBuffer
     _sendCMD
       _loadPCF
         _PCF_Wr

 Address spaces:
Name               Size   Autos  Total    Cost      Usage
BIGRAM             3F0      0       0       0        0.0%
EEDATA             100      0       0       0        0.0%
NULL                 0      0       0       0        0.0%
CODE                 0      0       0       0        0.0%
BITCOMMON            E      0       0       1        0.0%
BITSFR0              0      0       0       1        0.0%
SFR0                 0      0       0       1        0.0%
COMMON               E      E       E       2      100.0%
BITSFR1              0      0       0       2        0.0%
SFR1                 0      0       0       2        0.0%
BITSFR2              0      0       0       3        0.0%
SFR2                 0      0       0       3        0.0%
STACK                0      0       0       3        0.0%
BITBANK0            50      0       0       4        0.0%
BITSFR3              0      0       0       4        0.0%
SFR3                 0      0       0       4        0.0%
BANK0               50      A      2F       5       58.8%
BITSFR4              0      0       0       5        0.0%
SFR4                 0      0       0       5        0.0%
BITBANK1            50      0       0       6        0.0%
BITSFR5              0      0       0       6        0.0%
SFR5                 0      0       0       6        0.0%
BANK1               50      0       0       7        0.0%
BITSFR6              0      0       0       7        0.0%
SFR6                 0      0       0       7        0.0%
BITBANK2            50      0       0       8        0.0%
BITSFR7              0      0       0       8        0.0%
SFR7                 0      0       0       8        0.0%
BANK2               50      0       0       9        0.0%
BITSFR8              0      0       0       9        0.0%
SFR8                 0      0       0       9        0.0%
BITBANK3            50      0       0      10        0.0%
BITSFR9              0      0       0      10        0.0%
SFR9                 0      0       0      10        0.0%
BANK3               50      0       0      11        0.0%
BITSFR10             0      0       0      11        0.0%
SFR10                0      0       0      11        0.0%
BITBANK4            50      0       0      12        0.0%
BITSFR11             0      0       0      12        0.0%
SFR11                0      0       0      12        0.0%
BANK4               50      0       0      13        0.0%
BITSFR12             0      0       0      13        0.0%
SFR12                0      0       0      13        0.0%
BITBANK5            50      0       0      14        0.0%
BITSFR13             0      0       0      14        0.0%
SFR13                0      0       0      14        0.0%
BANK5               50      0       0      15        0.0%
BITSFR14             0      0       0      15        0.0%
SFR14                0      0       0      15        0.0%
BITBANK6            50      0       0      16        0.0%
BITSFR15             0      0       0      16        0.0%
SFR15                0      0       0      16        0.0%
BANK6               50      0       0      17        0.0%
BITSFR16             0      0       0      17        0.0%
SFR16                0      0       0      17        0.0%
BITBANK7            50      0       0      18        0.0%
BITSFR17             0      0       0      18        0.0%
SFR17                0      0       0      18        0.0%
BANK7               50      0       0      19        0.0%
BITSFR18             0      0       0      19        0.0%
SFR18                0      0       0      19        0.0%
BITSFR19             0      0       0      20        0.0%
SFR19                0      0       0      20        0.0%
ABS                  0      0      3D      20        0.0%
BITBANK8            50      0       0      21        0.0%
BITSFR20             0      0       0      21        0.0%
SFR20                0      0       0      21        0.0%
BANK8               50      0       0      22        0.0%
BITSFR21             0      0       0      22        0.0%
SFR21                0      0       0      22        0.0%
BITBANK9            50      0       0      23        0.0%
BITSFR22             0      0       0      23        0.0%
SFR22                0      0       0      23        0.0%
BANK9               50      0       0      24        0.0%
BITSFR23             0      0       0      24        0.0%
SFR23                0      0       0      24        0.0%
BITBANK10           50      0       0      25        0.0%
BITSFR24             0      0       0      25        0.0%
SFR24                0      0       0      25        0.0%
BANK10              50      0       0      26        0.0%
BITSFR25             0      0       0      26        0.0%
SFR25                0      0       0      26        0.0%
BITBANK11           50      0       0      27        0.0%
BITSFR26             0      0       0      27        0.0%
SFR26                0      0       0      27        0.0%
BANK11              50      0       0      28        0.0%
BITSFR27             0      0       0      28        0.0%
SFR27                0      0       0      28        0.0%
BITBANK12           30      0       0      29        0.0%
BITSFR28             0      0       0      29        0.0%
SFR28                0      0       0      29        0.0%
BANK12              30      0       0      30        0.0%
BITSFR29             0      0       0      30        0.0%
SFR29                0      0       0      30        0.0%
BITSFR30             0      0       0      31        0.0%
SFR30                0      0       0      31        0.0%
DATA                 0      0      3D      31        0.0%
BITSFR31             0      0       0      32        0.0%
SFR31                0      0       0      32        0.0%


Microchip Technology PIC Macro Assembler V2.36 build 20220127204148 
Symbol Table                                                                                   Sun May 28 15:09:19 2023

             ??_I2C_DO_SEND_ADR_READ 0070              ??_I2C_DO_SEND_ADR_WRITE 0071  
                        _SSPSTATbits 0214                                   l39 05C2  
              ??_I2C_DO_SEND_RESTART 0070                                  l210 04D2  
                                l204 060D                                  l220 048A  
                                l214 0638                                  l223 0478  
                                l160 06FD                                  l313 03F2  
                                l217 0425                                  l305 0664  
                                l161 06FE                                  l226 07CA  
                                l242 071C                                  l243 0744  
                                l171 0581                                  l316 03F4  
                                l332 040C                                  l260 0693  
                                l157 0481                                  l165 0563  
                                l229 07E6                                  l510 049F  
                                l350 0406                                  l254 0470  
                                l326 04DF                                  l335 0420  
                                l504 04B8                                  l184 04FC  
                                l344 0409                                  l513 0413  
                                l329 03FA                                  l353 045D  
                                l281 042F                                  l177 0452  
                                l193 04EC                                  l338 0403  
                                l290 043E                                  l507 049A  
                                l347 0400                                  l187 04C5  
                                l356 041B                                  l380 040F  
                                l284 0434                                  l524 0491  
                                l453 051E                                  l293 0443  
                                l525 0491                                  l374 03FD  
                                l462 050D                                  l278 042A  
                                l359 0417                                  l287 0439  
                                l383 045E                                  l551 05A0  
                                l296 0448                                  l377 03F7  
                                l465 0547                                  l545 06C4  
                                l474 05E7                                  l538 04AB  
                                l554 0791                                  l459 052F  
                                l299 044D                                  l387 0463  
                                u400 05EF                                  u401 05EE  
                                u170 049F                                  u410 04F3  
                                u171 049E                                  u411 04F2  
                                u420 079A                                  u500 056C  
                                u421 0799                                  u501 056B  
                                u430 07E3                                  u510 0573  
                                u431 07E2                                  u511 0572  
                                u440 0717                                  u520 06CD  
                                u441 0716                                  u521 06CC  
                                u530 054F                                  u450 0463  
                                u531 054E                                  u451 0462  
                                u460 0616                                  u540 05CD  
                                u461 0615                                  u541 05CC  
                                u470 061E                                  u550 05E7  
                                u471 061D                                  u551 05E6  
                                u480 04D2                                  u481 04D1  
                                u490 04D8                                  u491 04D7  
                                u565 058D                                  u807 0763  
                                u817 0773                                  u827 0781  
                                u837 078C                                  u847 06C2  
                                u787 074D                                  u797 0759  
             _I2C_MasterWaitForEvent 045E                                  wreg 0009  
       ??_I2C_SetAddressNackCallback 0078             ??_I2C_CallbackReturnStop 007A  
                       _I2C_DO_RESET 0449                                 l2100 0404  
                               l2102 0414                                 l2110 0426  
                               l2104 0458                                 l2200 0424  
                               l2112 0429                                 l2122 0435  
                               l2132 0418                                 l2108 041D  
                               l2300 066F                                 l2204 0482  
                               l2212 0471                                 l2220 0792  
                               l2116 042B                                 l2124 0438  
                               l2140 043F                                 l2310 0675  
                               l2206 0484                                 l2214 0473  
                               l2118 042E                                 l2150 0433  
                               l2142 0442                                 l2134 0444  
                               l2160 03F3                                 l2128 040A  
                               l2304 0671                                 l2208 0489  
                               l2216 0477                                 l2240 07CC  
                               l2232 07A3                                 l2224 079B  
                               l2136 0447                                 l2400 057A  
                               l2090 04EE                                 l2146 0407  
                               l2154 040D                                 l2242 07D8  
                               l2322 0449                                 l2330 0639  
                               l2402 057D                                 l2410 06CD  
                               l2092 04F3                                 l2084 05E9  
                               l2180 04FD                                 l2156 03F1  
                               l2164 050E                                 l2172 051F  
                               l2244 07E3                                 l2228 079F  
                               l2260 0717                                 l2148 0430  
                               l2316 043A                                 l2324 044B  
                               l2332 063B                                 l2404 0580  
                               l2420 06E1                                 l2412 06D1  
                               l2094 04FB                                 l2086 05EF  
                               l2182 0505                                 l2166 0516  
                               l2174 0527                                 l2190 0546  
                               l2246 07E5                                 l2238 07A7  
                               l2262 071A                                 l2254 06FF  
                               l2318 043D                                 l2326 044C  
                               l2334 0640                                 l2430 06F1  
                               l2422 06E2                                 l2414 06D2  
                               l2510 059A                                 l1640 05A7  
                               l2440 0548                                 l2088 0600  
                               l2096 04B9                                 l2184 050C  
                               l2168 051D                                 l2176 052E  
                               l2272 0722                                 l2256 0709  
                               l2344 0648                                 l2360 0623  
                               l2352 060E                                 l2432 06F6  
                               l2424 06E7                                 l2416 06D3  
                               l2408 06C6                                 l2504 0584  
                               l2520 0751                                 l1650 05B2  
                               l1642 05AA                                 l2194 03F5  
                               l2450 055A                                 l2442 054F  
                               l2362 03FE                                 l2098 0401  
                               l2258 070D                                 l2338 0644  
                               l2354 0611                                 l2370 04CD  
                               l2434 06F9                                 l2426 06EB  
                               l2418 06DC                                 l2506 0589  
                               l2530 0780                                 l2522 075E  
                               l1660 05BD                                 l1652 05B5  
                               l1644 05AC                                 l2452 055D  
                               l2444 0550                                 l2188 0530  
                               l2292 0665                                 l2196 0421  
                               l2268 071E                                 l2284 046A  
                               l2356 0616                                 l2364 04C6  
                               l2380 04DE                                 l2372 04D3  
                               l2436 06FC                                 l2428 06F0  
                               l2508 0595                                 l2532 0784  
                               l2524 0762                                 l2516 0745  
                               l1670 047D                                 l1662 05BE  
                               l1654 05B7                                 l1646 05AE  
                               l1638 05A1                                 l2446 0554  
                               l2454 0562                                 l2294 0668  
                               l2198 0423                                 l2278 0726  
                               l2286 046C                                 l2358 061E  
                               l2366 04C7                                 l2390 056C  
                               l2374 04D8                                 l2462 04E0  
                               l2470 05D5                                 l2526 0772  
                               l2518 0749                                 l1672 0480  
                               l1664 05C0                                 l1656 05B9  
                               l1648 05B0                                 l1680 0410  
                               l2384 03FB                                 l2448 0557  
                               l2288 046F                                 l2368 04CA  
                               l2392 056D                                 l2376 04D9  
                               l2472 05DC                                 l2464 05C4  
                               l2480 0697                                 l2528 0776  
                               l1666 0479                                 l1674 0494  
                               l1658 05BB                                 l2386 03F8  
                               l2298 066C                                 l2394 056E  
                               l2458 044E                                 l2378 04DB  
                               l2474 05DF                                 l2466 05C4  
                               l2490 06B2                                 l2482 0699  
                               l1668 047B                                 l1676 0497  
                               l2900 0685                                 l2396 0573  
                               l2388 0565                                 l2468 05CD  
                               l2476 04A1                                 l2492 06B8  
                               l1678 0498                                 l1694 04AC  
                               l2398 0576                                 l2494 06BD  
                               l2486 069E                                 l2478 0696  
                               l2496 06C1                                 l2488 06AE  
                               l2686 048B                                 l2688 048E  
                               l2892 06A6                                 l2894 065C  
                               l2896 0736                                 l2898 07BC  
                      ?_i2c_lcd_init 0070                                 _LATA 010C  
                               _LATB 010D                                 _LATC 010E  
                               _LATD 010F                                 _LATE 0110  
                               _PLLR 04D6                                 _WPUB 020D  
                               _WPUE 0210              ??_wr2RegCompleteHandler 007A  
                               _main 048B             ?_I2C_CallbackReturnReset 0079  
                               fsr0h 0005                                 fsr1h 0007  
                               indf0 0000                                 fsr0l 0004  
                               indf1 0001                                 fsr1l 0006  
                   __end_of_I2C_Open 06FF                                 btemp 007E  
                     sendCMD@NibbleH 0046                       sendCMD@NibbleL 0047  
                               start 0002                     ?_I2C_MasterClose 0070  
                   ?_I2C_MasterStart 0070                        _I2C_DO_RX_ACK 043A  
                   ?_I2C_MasterWrite 0070        __end_of_OSCILLATOR_Initialize 04A0  
                              ?_main 0070                    ??_I2C_DO_TX_EMPTY 0070  
                              _TRISA 008C                                _TRISB 008D  
                              _TRISC 008E                                _TRISD 008F  
                              _TRISE 0090                          loadPCF@dato 0043  
                  __end_of_I2C_DO_RX 0745                    __end_of_I2C_DO_TX 07E7  
                        loadPCF@mode 0040                      __end_of_loadPCF 06C5  
                     _WDT_Initialize 0410                    __end_of_I2C_Close 0564  
                     ??_i2c_lcd_init 0049                      __end_of_sendCMD 05A1  
     I2C_MasterOperation@returnValue 0079              _I2C_MasterEnableRestart 0401  
                              pclath 000A                     ?_I2C_SetCallback 0070  
       I2C_SetAddressNackCallback@cb 0075                                status 0003  
                              wtemp0 007E                    ?_I2C_DO_SEND_STOP 0070  
                 ??_I2C_DO_SEND_STOP 0070                      __initialization 07E7  
                       __end_of_main 0494            ?_I2C_DO_SEND_RESTART_READ 0070  
                     ?_I2C_DO_RX_ACK 0070                               ??_main 007E  
                  ?_I2C_MasterIsNack 0070                    ?_I2C_MasterSetIrq 0070  
                 ??_I2C_MasterIsNack 0070               __end_of_WDT_Initialize 0414  
                 ??_I2C_MasterSetIrq 0070      __end_of_I2C_CallbackReturnReset 03F5  
                             _I2C_Wr 05C3                               _APFCON 011D  
      I2C_SetDataCompleteCallback@cb 0075                               _ANSELA 018C  
                             _ANSELB 018D                               _ANSELD 018F  
                             _ANSELE 0190                               _BORCON 0116  
                       ??_I2C_Poller 0077                               _PCF_Wr 04A0  
                             _OSCCON 0099                               _WDTCON 0097  
                             _SSPADD 0212                               _SSPBUF 0211  
                _I2C_MasterGetRxData 040A                        _I2C_MasterFsm 060E  
                  I2C_SetCallback@cb 0070                        _I2C_SetBuffer 04ED  
                 __end_of_I2C_Poller 04D3         __end_of_I2C_MasterDisableIrq 03FE  
                          ??_loadPCF 0041                  _I2C_DO_ADDRESS_NACK 0639  
               ?_I2C_MasterGetRxData 0070                            ?_I2C_Open 0070  
                          ??_sendCMD 0044   __end_of_I2C_SetAddressNackCallback 04ED  
         _I2C_SetAddressNackCallback 04E0                      ?_WDT_Initialize 0070  
          ??_I2C_MasterEnableRestart 0070                    _SYSTEM_Initialize 04AC  
            __end_of__initialization 07FD                  _I2C_MasterOperation 0564  
                 ?_SYSTEM_Initialize 0070                 ?_I2C_DO_ADDRESS_NACK 0070  
            _rdBlkRegCompleteHandler 0530                       __pcstackCOMMON 0070  
                     ?_I2C_MasterFsm 0070                      ??_I2C_DO_RX_ACK 0070  
                       __pidataBANK0 0453               _I2C_CallbackReturnStop 03F1  
                ??_SYSTEM_Initialize 0070                 __end_of_i2c_lcd_init 0792  
                     ?_I2C_SetBuffer 0070              ?_I2C_MasterWaitForEvent 0070  
      __end_of_I2C_DO_SEND_ADR_WRITE 0479           ?_I2C_DO_SEND_RESTART_WRITE 0070  
               ?_I2C_MasterOperation 0070                ??_I2C_MasterGetRxData 0070  
                     _OPTION_REGbits 0095                           ??_I2C_Open 0070  
         __end_of_I2C_MasterClearIrq 03F8            __end_of_SYSTEM_Initialize 04B9  
                            ?_I2C_Wr 007A                    _I2C_MasterSendAck 0418  
                         __pbssBANK0 0020                        ??_I2C_DO_IDLE 0070  
                            ?_PCF_Wr 0070                        ??_I2C_DO_RCEN 0070  
       __end_of_I2C_MasterSendTxData 0421                   ?_I2C_MasterSendAck 0070  
                  _I2C_MasterStartRx 0407                ??_I2C_DO_ADDRESS_NACK 0070  
      __end_of_wr2RegCompleteHandler 050E                  _I2C_DO_RX_NACK_STOP 043F  
              _rd1RegCompleteHandler 050E                   ?_I2C_MasterStartRx 0070  
         __end_of_I2C_MasterSendNack 0418                _wr1RegCompleteHandler 051F  
                         __pmaintext 048B                  ??_I2C_MasterSendAck 0070  
           rd1RegCompleteHandler@ptr 0079          __end_of_I2C_DO_SEND_RESTART 0435  
                    _I2C_DO_TX_EMPTY 0665                  I2C_SetBuffer@buffer 0073  
                         I2C_Wr@data 007A       __end_of_I2C_MasterWaitForEvent 0464  
                ??_I2C_MasterStartRx 0070                ??_I2C_MasterOperation 0077  
     I2C_SetDataCompleteCallback@ptr 0077             ??_I2C_DO_RX_NACK_RESTART 0070  
  __end_of_I2C_DO_SEND_RESTART_WRITE 0430                 ?_I2C_DO_RX_NACK_STOP 0070  
          __end_of_I2C_MasterSendAck 041C                              _OSCTUNE 0098  
                            _SSPCON1 0215                              _SSPCON2 0216  
                            _SSPSTAT 0214            __end_of_I2C_MasterStartRx 040A  
               I2C_Close@returnValue 0071         ?_I2C_SetDataCompleteCallback 0075  
                          _I2C_DO_RX 06FF                            _I2C_DO_TX 0792  
   __end_of_I2C_DO_SEND_RESTART_READ 042B                            _I2C_Close 0548  
          ??_rdBlkRegCompleteHandler 007A                 _I2C_MasterDisableIrq 03FB  
                    ??_I2C_MasterFsm 0074                  __end_of_I2C_DO_IDLE 0426  
                __end_of_I2C_DO_RCEN 0471                      ??_I2C_SetBuffer 0072  
            I2C_SetBuffer@bufferSize 0070                       _I2C_MasterOpen 04D3  
                     _I2C_MasterStop 0404                       _I2C_Initialize 0479  
                            __ptext1 0745                              __ptext2 0582  
                            __ptext3 0694                              __ptext4 04A0  
                            __ptext5 05C3                              __ptext6 04E0  
                            __ptext7 06C5                              __ptext8 04D3  
                            __ptext9 044E                ??_I2C_DO_RX_NACK_STOP 0070  
                            _loadPCF 0694                _OSCILLATOR_Initialize 0494  
                            _sendCMD 0582                   I2C_SetCallback@idx 0074  
           ??_PIN_MANAGER_Initialize 0070        I2C_CallbackReturnReset@funPtr 0079  
                 I2C_SetCallback@ptr 0072             wr1RegCompleteHandler@ptr 0079  
                            clrloop0 0465                 end_of_initialization 07FD  
                         ?_I2C_DO_RX 0070                           ?_I2C_DO_TX 0070  
                         ?_I2C_Close 0070               ?_rd1RegCompleteHandler 0079  
            __end_of_I2C_DO_TX_EMPTY 0694                ?_I2C_MasterDisableIrq 0070  
             ?_wr1RegCompleteHandler 0079               __end_of_I2C_MasterOpen 04E0  
             __end_of_I2C_MasterStop 0407               __end_of_I2C_Initialize 0482  
                   ??_WDT_Initialize 0070      __end_of_rdBlkRegCompleteHandler 0548  
               _I2C_MasterSendTxData 041C          ?_I2C_SetAddressNackCallback 0075  
                       _i2c_lcd_init 0745                       __end_of_I2C_Wr 05E8  
                        _I2C_DO_IDLE 0421                          _I2C_DO_RCEN 046A  
         rdBlkRegCompleteHandler@ptr 0079                       __end_of_PCF_Wr 04AC  
        i2c_lcd_set_cursor@local_mem 004A              ?_I2C_CallbackReturnStop 0079  
           _I2C_DO_SEND_RESTART_READ 0426         I2C_CallbackReturnStop@funPtr 0079  
                    ?_I2C_MasterOpen 0070                      ?_I2C_MasterStop 0070  
                    ?_I2C_Initialize 0070              _I2C_CallbackReturnReset 03F3  
              ?_I2C_MasterSendTxData 0070               ?_OSCILLATOR_Initialize 0070  
        ??_I2C_DO_SEND_RESTART_WRITE 0070                  start_initialization 07E7  
                      ?_I2C_DO_RESET 0070                             ??_I2C_Wr 007B  
                        ??_I2C_DO_RX 0070                          ??_I2C_DO_TX 0071  
                  ??_I2C_MasterClose 0070                             ??_PCF_Wr 007C  
             ??_I2C_MasterDisableIrq 0070                          ??_I2C_Close 0070  
                  ??_I2C_MasterStart 0070                    ??_I2C_MasterWrite 007A  
     __end_of_I2C_CallbackReturnStop 03F3               _I2C_DO_RX_NACK_RESTART 0444  
                   ?_I2C_DO_TX_EMPTY 0070                   _I2C_MasterClearIrq 03F5  
                ?_I2C_MasterClearIrq 0070          __end_of_I2C_MasterGetRxData 040D  
                        __pdataBANK0 004A                __end_of_I2C_DO_RX_ACK 043F  
                         PCF_Wr@dato 007D                     _I2C_DO_SEND_STOP 0435  
                  ??_I2C_SetCallback 0073                  I2C_Open@returnValue 0072  
                 _I2C_MasterSendNack 0414             ?_I2C_MasterEnableRestart 0070  
                  _i2c_fsmStateTable 0800                _I2C_DO_SEND_ADR_WRITE 0471  
                         sendCMD@cmd 0048                            ___latbits 0003  
                      __pcstackBANK0 0040                       ??_I2C_DO_RESET 0070  
                ?_I2C_MasterSendNack 0070         __end_of_I2C_DO_SEND_ADR_READ 048B  
               ??_I2C_MasterClearIrq 0070          __end_of_I2C_DO_ADDRESS_NACK 0665  
                   _I2C_MasterIsNack 0458            _I2C_DO_SEND_RESTART_WRITE 042B  
                   _I2C_MasterSetIrq 040D               _PIN_MANAGER_Initialize 05A1  
              _wr2RegCompleteHandler 04FD            ??_I2C_CallbackReturnReset 007A  
        __end_of_I2C_MasterOperation 0582                 ??_I2C_MasterSendNack 0070  
             ??_I2C_MasterSendTxData 0070            __end_of_i2c_fsmStateTable 0820  
                           ?_loadPCF 0040              I2C_MasterOperation@read 0078  
                           _I2C_Open 06C5                             ?_sendCMD 0070  
            ??_rd1RegCompleteHandler 007A                            _paramsLCD 003F  
                      I2C_Wr@address 007B              ??_wr1RegCompleteHandler 007A  
                          clear_ram0 0464                             _PIE1bits 0091  
                           _PIR1bits 0011                             _PIR2bits 0012  
              __end_of_I2C_MasterFsm 0639          __end_of_I2C_DO_RX_NACK_STOP 0444  
    __end_of_I2C_MasterEnableRestart 0404                __end_of_I2C_SetBuffer 04FD  
             ?_I2C_DO_SEND_ADR_WRITE 0070                            _statusLED 004E  
           I2C_MasterSendTxData@data 0070                            _statusbtn 003D  
           wr2RegCompleteHandler@ptr 0079           ??_I2C_DO_SEND_RESTART_READ 0070  
           ?_rdBlkRegCompleteHandler 0079                           _I2C_Poller 04C6  
                         _I2C_Status 0020                         ?_I2C_DO_IDLE 0070  
                       ?_I2C_DO_RCEN 0070                     ??_I2C_MasterOpen 0070  
             ?_wr2RegCompleteHandler 0079                     ??_I2C_MasterStop 0070  
           ??_I2C_MasterWaitForEvent 0070                     ??_I2C_Initialize 0070  
               __end_of_I2C_DO_RESET 044E              ??_OSCILLATOR_Initialize 0070  
               _I2C_DO_SEND_ADR_READ 0482                      _I2C_MasterClose 03F8  
      I2C_SetAddressNackCallback@ptr 0077                      I2C_Open@address 0071  
                    _I2C_MasterStart 03FE                      _I2C_MasterWrite 044E  
                           __ptext10 0564                             __ptext11 04C6  
                           __ptext20 0430                             __ptext12 045E  
                           __ptext21 042B                             __ptext13 060E  
                           __ptext30 040D                             __ptext22 0426  
                           __ptext14 0639                             __ptext31 0458  
                           __ptext23 046A                             __ptext15 0449  
                           __ptext40 03F3                             __ptext32 041C  
                           __ptext24 06FF                             __ptext16 0444  
                           __ptext41 03F1                             __ptext33 0418  
                           __ptext25 0792                             __ptext17 043F  
                           __ptext50 03FB                             __ptext42 04FD  
                           __ptext34 040A                             __ptext26 0471  
                           __ptext18 043A                             __ptext51 03F8  
                           __ptext43 04B9                             __ptext35 0414  
                           __ptext27 0482                             __ptext19 0435  
                           __ptext52 03F5                             __ptext44 05E8  
                           __ptext36 0407                             __ptext28 0421  
                           __ptext53 04AC                             __ptext45 04ED  
                           __ptext37 0530                             __ptext29 0665  
                           __ptext54 0410                             __ptext46 0404  
                           __ptext38 051F                             __ptext55 05A1  
                           __ptext47 0401                             __ptext39 050E  
                           __ptext56 0494                             __ptext48 03FE  
                           __ptext57 0479                             __ptext49 0548  
__end_of_I2C_SetDataCompleteCallback 04C6          _I2C_SetDataCompleteCallback 04B9  
            ?_I2C_DO_RX_NACK_RESTART 0070             __end_of_I2C_DO_SEND_STOP 043A  
                    _I2C_SetCallback 05E8        ??_I2C_SetDataCompleteCallback 0078  
              ?_I2C_DO_SEND_ADR_READ 0070             __end_of_I2C_MasterIsNack 045E  
           __end_of_I2C_MasterSetIrq 0410       __end_of_I2C_DO_RX_NACK_RESTART 0449  
                        ?_I2C_Poller 0070              ?_PIN_MANAGER_Initialize 0070  
                _I2C_DO_SEND_RESTART 0430              __end_of_I2C_MasterClose 03FB  
            __end_of_I2C_MasterStart 0401              __end_of_I2C_MasterWrite 0453  
                      __pstringtext1 0800                 ?_I2C_DO_SEND_RESTART 0070  
                        _SSPCON1bits 0215                          _SSPCON2bits 0216  
            __end_of_I2C_SetCallback 060E       __end_of_PIN_MANAGER_Initialize 05C3  
      __end_of_rd1RegCompleteHandler 051F        __end_of_wr1RegCompleteHandler 0530  
