

Microchip MPLAB XC8 Assembler V2.36 build 20220127204148 
                                                                                               Sun May 07 16:46:48 2023

Microchip MPLAB XC8 C Compiler v2.36 (Free license) build 20220127204148 Og1 
     1                           	processor	16F1939
     2                           	pagewidth 120
     3                           	opt	flic
     4                           	psect	stringtext1,global,class=STRCODE,delta=2,noexec
     5                           	psect	stringtext2,global,class=STRCODE,delta=2,noexec
     6                           	psect	cinit,global,class=CODE,merge=1,delta=2
     7                           	psect	bssCOMMON,global,class=COMMON,space=1,delta=1,noexec
     8                           	psect	bssBANK0,global,class=BANK0,space=1,delta=1,noexec
     9                           	psect	clrtext,global,class=CODE,delta=2
    10                           	psect	cstackCOMMON,global,class=COMMON,space=1,delta=1,noexec
    11                           	psect	cstackBANK0,global,class=BANK0,space=1,delta=1,noexec
    12                           	psect	maintext,global,class=CODE,merge=1,split=1,delta=2
    13                           	psect	text1,local,class=CODE,merge=1,delta=2,group=1
    14                           	psect	text2,local,class=CODE,merge=1,delta=2,group=1
    15                           	psect	text3,local,class=CODE,merge=1,delta=2
    16                           	psect	text4,local,class=CODE,merge=1,delta=2
    17                           	psect	text5,local,class=CODE,merge=1,delta=2
    18                           	psect	text6,local,class=CODE,merge=1,delta=2
    19                           	psect	text7,local,class=CODE,merge=1,delta=2
    20                           	psect	text8,local,class=CODE,merge=1,delta=2
    21                           	psect	text9,local,class=CODE,merge=1,delta=2
    22                           	psect	text10,local,class=CODE,merge=1,delta=2
    23                           	psect	text11,local,class=CODE,merge=1,delta=2
    24                           	psect	text12,local,class=CODE,merge=1,delta=2
    25                           	psect	text13,local,class=CODE,merge=1,inline,delta=2
    26                           	psect	text14,local,class=CODE,merge=1,delta=2
    27                           	psect	text15,local,class=CODE,merge=1,delta=2
    28                           	psect	text16,local,class=CODE,merge=1,delta=2
    29                           	psect	text17,local,class=CODE,merge=1,inline,delta=2
    30                           	psect	text18,local,class=CODE,merge=1,inline,delta=2
    31                           	psect	text19,local,class=CODE,merge=1,delta=2
    32                           	psect	text20,local,class=CODE,merge=1,delta=2
    33                           	psect	text21,local,class=CODE,merge=1,delta=2
    34                           	psect	text22,local,class=CODE,merge=1,delta=2
    35                           	psect	text23,local,class=CODE,merge=1,delta=2
    36                           	psect	text24,local,class=CODE,merge=1,delta=2
    37                           	psect	text25,local,class=CODE,merge=1,delta=2
    38                           	psect	text26,local,class=CODE,merge=1,delta=2
    39                           	psect	text27,local,class=CODE,merge=1,delta=2
    40                           	psect	text28,local,class=CODE,merge=1,delta=2
    41                           	psect	text29,local,class=CODE,merge=1,delta=2
    42                           	psect	text30,local,class=CODE,merge=1,delta=2
    43                           	psect	text31,local,class=CODE,merge=1,delta=2
    44                           	psect	text32,local,class=CODE,merge=1,delta=2
    45                           	psect	text33,local,class=CODE,merge=1,delta=2
    46                           	psect	text34,local,class=CODE,merge=1,delta=2
    47                           	psect	text35,local,class=CODE,merge=1,inline,delta=2
    48                           	psect	text36,local,class=CODE,merge=1,inline,delta=2
    49                           	psect	text37,local,class=CODE,merge=1,inline,delta=2
    50                           	psect	text38,local,class=CODE,merge=1,inline,delta=2
    51                           	psect	text39,local,class=CODE,merge=1,inline,delta=2
    52                           	psect	text40,local,class=CODE,merge=1,inline,delta=2
    53                           	psect	text41,local,class=CODE,merge=1,inline,delta=2
    54                           	psect	text42,local,class=CODE,merge=1,delta=2
    55                           	psect	text43,local,class=CODE,merge=1,delta=2
    56                           	psect	text44,local,class=CODE,merge=1,delta=2
    57                           	psect	text45,local,class=CODE,merge=1,delta=2
    58                           	psect	text46,local,class=CODE,merge=1,delta=2
    59                           	psect	text47,local,class=CODE,merge=1,delta=2
    60                           	psect	text48,local,class=CODE,merge=1,delta=2
    61                           	psect	text49,local,class=CODE,merge=1,delta=2
    62                           	psect	text50,local,class=CODE,merge=1,delta=2
    63                           	psect	text51,local,class=CODE,merge=1,inline,delta=2
    64                           	psect	text52,local,class=CODE,merge=1,inline,delta=2
    65                           	psect	text53,local,class=CODE,merge=1,inline,delta=2
    66                           	psect	text54,local,class=CODE,merge=1,delta=2
    67                           	psect	text55,local,class=CODE,merge=1,inline,delta=2
    68                           	psect	text56,local,class=CODE,merge=1,inline,delta=2
    69                           	psect	text57,local,class=CODE,merge=1,inline,delta=2
    70                           	psect	idloc,global,abs,ovrld,class=IDLOC,space=5,delta=2,noexec
    71                           	psect	config,global,abs,ovrld,class=CONFIG,space=4,delta=2,noexec
    72                           	dabs	1,0x7E,2
    73  0000                     
    74                           ; Version 2.40
    75                           ; Generated 17/11/2021 GMT
    76                           ; 
    77                           ; Copyright © 2021, Microchip Technology Inc. and its subsidiaries ("Microchip")
    78                           ; All rights reserved.
    79                           ; 
    80                           ; This software is developed by Microchip Technology Inc. and its subsidiaries ("Microch
      +                          ip").
    81                           ; 
    82                           ; Redistribution and use in source and binary forms, with or without modification, are
    83                           ; permitted provided that the following conditions are met:
    84                           ; 
    85                           ;     1. Redistributions of source code must retain the above copyright notice, this lis
      +                          t of
    86                           ;        conditions and the following disclaimer.
    87                           ; 
    88                           ;     2. Redistributions in binary form must reproduce the above copyright notice, this 
      +                          list
    89                           ;        of conditions and the following disclaimer in the documentation and/or other
    90                           ;        materials provided with the distribution. Publication is not required when
    91                           ;        this file is used in an embedded application.
    92                           ; 
    93                           ;     3. Microchip's name may not be used to endorse or promote products derived from th
      +                          is
    94                           ;        software without specific prior written permission.
    95                           ; 
    96                           ; THIS SOFTWARE IS PROVIDED BY MICROCHIP "AS IS" AND ANY EXPRESS OR IMPLIED WARRANTIES,
    97                           ; INCLUDING, BUT NOT LIMITED TO, THE IMPLIED WARRANTIES OF MERCHANTABILITY AND FITNESS F
      +                          OR
    98                           ; PURPOSE ARE DISCLAIMED.  IN NO EVENT SHALL MICROCHIP BE LIABLE FOR ANY DIRECT, INDIREC
      +                          T,
    99                           ; INCIDENTAL, SPECIAL, EXEMPLARY, OR CONSEQUENTIAL DAMAGES (INCLUDING BUT NOT LIMITED TO
   100                           ; PROCUREMENT OF SUBSTITUTE GOODS OR SERVICES; LOSS OF USE, DATA OR PROFITS; OR BUSINESS
   101                           ; INTERRUPTION) HOWSOEVER CAUSED AND ON ANY THEORY OF LIABILITY, WHETHER IN CONTRACT, ST
      +                          RICT
   102                           ; LIABILITY, OR TORT (INCLUDING NEGLIGENCE OR OTHERWISE) ARISING IN ANY WAY OUT OF THE U
      +                          SE OF
   103                           ; THIS SOFTWARE, EVEN IF ADVISED OF THE POSSIBILITY OF SUCH DAMAGE.
   104                           ; 
   105                           ; 
   106                           ; Code-generator required, PIC16F1939 Definitions
   107                           ; 
   108                           ; SFR Addresses
   109  0000                     	;# 
   110  0001                     	;# 
   111  0002                     	;# 
   112  0003                     	;# 
   113  0004                     	;# 
   114  0005                     	;# 
   115  0006                     	;# 
   116  0007                     	;# 
   117  0008                     	;# 
   118  0009                     	;# 
   119  000A                     	;# 
   120  000B                     	;# 
   121  000C                     	;# 
   122  000D                     	;# 
   123  000E                     	;# 
   124  000F                     	;# 
   125  0010                     	;# 
   126  0011                     	;# 
   127  0012                     	;# 
   128  0013                     	;# 
   129  0015                     	;# 
   130  0016                     	;# 
   131  0016                     	;# 
   132  0017                     	;# 
   133  0018                     	;# 
   134  0019                     	;# 
   135  001A                     	;# 
   136  001B                     	;# 
   137  001C                     	;# 
   138  001E                     	;# 
   139  001F                     	;# 
   140  008C                     	;# 
   141  008D                     	;# 
   142  008E                     	;# 
   143  008F                     	;# 
   144  0090                     	;# 
   145  0091                     	;# 
   146  0092                     	;# 
   147  0093                     	;# 
   148  0095                     	;# 
   149  0096                     	;# 
   150  0097                     	;# 
   151  0098                     	;# 
   152  0099                     	;# 
   153  009A                     	;# 
   154  009B                     	;# 
   155  009B                     	;# 
   156  009C                     	;# 
   157  009D                     	;# 
   158  009E                     	;# 
   159  010C                     	;# 
   160  010D                     	;# 
   161  010E                     	;# 
   162  010F                     	;# 
   163  0110                     	;# 
   164  0111                     	;# 
   165  0112                     	;# 
   166  0113                     	;# 
   167  0114                     	;# 
   168  0115                     	;# 
   169  0116                     	;# 
   170  0117                     	;# 
   171  0118                     	;# 
   172  0119                     	;# 
   173  011A                     	;# 
   174  011B                     	;# 
   175  011D                     	;# 
   176  018C                     	;# 
   177  018D                     	;# 
   178  018F                     	;# 
   179  0190                     	;# 
   180  0191                     	;# 
   181  0191                     	;# 
   182  0192                     	;# 
   183  0193                     	;# 
   184  0193                     	;# 
   185  0193                     	;# 
   186  0194                     	;# 
   187  0195                     	;# 
   188  0196                     	;# 
   189  0199                     	;# 
   190  019A                     	;# 
   191  019B                     	;# 
   192  019B                     	;# 
   193  019B                     	;# 
   194  019B                     	;# 
   195  019C                     	;# 
   196  019C                     	;# 
   197  019D                     	;# 
   198  019E                     	;# 
   199  019F                     	;# 
   200  020D                     	;# 
   201  0210                     	;# 
   202  0211                     	;# 
   203  0212                     	;# 
   204  0213                     	;# 
   205  0214                     	;# 
   206  0215                     	;# 
   207  0215                     	;# 
   208  0216                     	;# 
   209  0217                     	;# 
   210  0291                     	;# 
   211  0291                     	;# 
   212  0292                     	;# 
   213  0293                     	;# 
   214  0294                     	;# 
   215  0295                     	;# 
   216  0295                     	;# 
   217  0296                     	;# 
   218  0298                     	;# 
   219  0298                     	;# 
   220  0299                     	;# 
   221  029A                     	;# 
   222  029B                     	;# 
   223  029C                     	;# 
   224  029C                     	;# 
   225  029D                     	;# 
   226  029E                     	;# 
   227  029F                     	;# 
   228  0311                     	;# 
   229  0311                     	;# 
   230  0312                     	;# 
   231  0313                     	;# 
   232  0314                     	;# 
   233  0315                     	;# 
   234  0315                     	;# 
   235  0316                     	;# 
   236  0318                     	;# 
   237  0318                     	;# 
   238  0319                     	;# 
   239  031A                     	;# 
   240  031C                     	;# 
   241  031C                     	;# 
   242  031D                     	;# 
   243  031E                     	;# 
   244  0394                     	;# 
   245  0395                     	;# 
   246  0396                     	;# 
   247  0415                     	;# 
   248  0416                     	;# 
   249  0417                     	;# 
   250  041C                     	;# 
   251  041D                     	;# 
   252  041E                     	;# 
   253  0791                     	;# 
   254  0792                     	;# 
   255  0793                     	;# 
   256  0794                     	;# 
   257  0795                     	;# 
   258  0798                     	;# 
   259  0799                     	;# 
   260  079A                     	;# 
   261  07A0                     	;# 
   262  07A1                     	;# 
   263  07A2                     	;# 
   264  07A3                     	;# 
   265  07A4                     	;# 
   266  07A5                     	;# 
   267  07A6                     	;# 
   268  07A7                     	;# 
   269  07A8                     	;# 
   270  07A9                     	;# 
   271  07AA                     	;# 
   272  07AB                     	;# 
   273  0FE4                     	;# 
   274  0FE5                     	;# 
   275  0FE6                     	;# 
   276  0FE7                     	;# 
   277  0FE8                     	;# 
   278  0FE9                     	;# 
   279  0FEA                     	;# 
   280  0FEB                     	;# 
   281  0FED                     	;# 
   282  0FEE                     	;# 
   283  0FEF                     	;# 
   284  0000                     	;# 
   285  0001                     	;# 
   286  0002                     	;# 
   287  0003                     	;# 
   288  0004                     	;# 
   289  0005                     	;# 
   290  0006                     	;# 
   291  0007                     	;# 
   292  0008                     	;# 
   293  0009                     	;# 
   294  000A                     	;# 
   295  000B                     	;# 
   296  000C                     	;# 
   297  000D                     	;# 
   298  000E                     	;# 
   299  000F                     	;# 
   300  0010                     	;# 
   301  0011                     	;# 
   302  0012                     	;# 
   303  0013                     	;# 
   304  0015                     	;# 
   305  0016                     	;# 
   306  0016                     	;# 
   307  0017                     	;# 
   308  0018                     	;# 
   309  0019                     	;# 
   310  001A                     	;# 
   311  001B                     	;# 
   312  001C                     	;# 
   313  001E                     	;# 
   314  001F                     	;# 
   315  008C                     	;# 
   316  008D                     	;# 
   317  008E                     	;# 
   318  008F                     	;# 
   319  0090                     	;# 
   320  0091                     	;# 
   321  0092                     	;# 
   322  0093                     	;# 
   323  0095                     	;# 
   324  0096                     	;# 
   325  0097                     	;# 
   326  0098                     	;# 
   327  0099                     	;# 
   328  009A                     	;# 
   329  009B                     	;# 
   330  009B                     	;# 
   331  009C                     	;# 
   332  009D                     	;# 
   333  009E                     	;# 
   334  010C                     	;# 
   335  010D                     	;# 
   336  010E                     	;# 
   337  010F                     	;# 
   338  0110                     	;# 
   339  0111                     	;# 
   340  0112                     	;# 
   341  0113                     	;# 
   342  0114                     	;# 
   343  0115                     	;# 
   344  0116                     	;# 
   345  0117                     	;# 
   346  0118                     	;# 
   347  0119                     	;# 
   348  011A                     	;# 
   349  011B                     	;# 
   350  011D                     	;# 
   351  018C                     	;# 
   352  018D                     	;# 
   353  018F                     	;# 
   354  0190                     	;# 
   355  0191                     	;# 
   356  0191                     	;# 
   357  0192                     	;# 
   358  0193                     	;# 
   359  0193                     	;# 
   360  0193                     	;# 
   361  0194                     	;# 
   362  0195                     	;# 
   363  0196                     	;# 
   364  0199                     	;# 
   365  019A                     	;# 
   366  019B                     	;# 
   367  019B                     	;# 
   368  019B                     	;# 
   369  019B                     	;# 
   370  019C                     	;# 
   371  019C                     	;# 
   372  019D                     	;# 
   373  019E                     	;# 
   374  019F                     	;# 
   375  020D                     	;# 
   376  0210                     	;# 
   377  0211                     	;# 
   378  0212                     	;# 
   379  0213                     	;# 
   380  0214                     	;# 
   381  0215                     	;# 
   382  0215                     	;# 
   383  0216                     	;# 
   384  0217                     	;# 
   385  0291                     	;# 
   386  0291                     	;# 
   387  0292                     	;# 
   388  0293                     	;# 
   389  0294                     	;# 
   390  0295                     	;# 
   391  0295                     	;# 
   392  0296                     	;# 
   393  0298                     	;# 
   394  0298                     	;# 
   395  0299                     	;# 
   396  029A                     	;# 
   397  029B                     	;# 
   398  029C                     	;# 
   399  029C                     	;# 
   400  029D                     	;# 
   401  029E                     	;# 
   402  029F                     	;# 
   403  0311                     	;# 
   404  0311                     	;# 
   405  0312                     	;# 
   406  0313                     	;# 
   407  0314                     	;# 
   408  0315                     	;# 
   409  0315                     	;# 
   410  0316                     	;# 
   411  0318                     	;# 
   412  0318                     	;# 
   413  0319                     	;# 
   414  031A                     	;# 
   415  031C                     	;# 
   416  031C                     	;# 
   417  031D                     	;# 
   418  031E                     	;# 
   419  0394                     	;# 
   420  0395                     	;# 
   421  0396                     	;# 
   422  0415                     	;# 
   423  0416                     	;# 
   424  0417                     	;# 
   425  041C                     	;# 
   426  041D                     	;# 
   427  041E                     	;# 
   428  0791                     	;# 
   429  0792                     	;# 
   430  0793                     	;# 
   431  0794                     	;# 
   432  0795                     	;# 
   433  0798                     	;# 
   434  0799                     	;# 
   435  079A                     	;# 
   436  07A0                     	;# 
   437  07A1                     	;# 
   438  07A2                     	;# 
   439  07A3                     	;# 
   440  07A4                     	;# 
   441  07A5                     	;# 
   442  07A6                     	;# 
   443  07A7                     	;# 
   444  07A8                     	;# 
   445  07A9                     	;# 
   446  07AA                     	;# 
   447  07AB                     	;# 
   448  0FE4                     	;# 
   449  0FE5                     	;# 
   450  0FE6                     	;# 
   451  0FE7                     	;# 
   452  0FE8                     	;# 
   453  0FE9                     	;# 
   454  0FEA                     	;# 
   455  0FEB                     	;# 
   456  0FED                     	;# 
   457  0FEE                     	;# 
   458  0FEF                     	;# 
   459  0000                     	;# 
   460  0001                     	;# 
   461  0002                     	;# 
   462  0003                     	;# 
   463  0004                     	;# 
   464  0005                     	;# 
   465  0006                     	;# 
   466  0007                     	;# 
   467  0008                     	;# 
   468  0009                     	;# 
   469  000A                     	;# 
   470  000B                     	;# 
   471  000C                     	;# 
   472  000D                     	;# 
   473  000E                     	;# 
   474  000F                     	;# 
   475  0010                     	;# 
   476  0011                     	;# 
   477  0012                     	;# 
   478  0013                     	;# 
   479  0015                     	;# 
   480  0016                     	;# 
   481  0016                     	;# 
   482  0017                     	;# 
   483  0018                     	;# 
   484  0019                     	;# 
   485  001A                     	;# 
   486  001B                     	;# 
   487  001C                     	;# 
   488  001E                     	;# 
   489  001F                     	;# 
   490  008C                     	;# 
   491  008D                     	;# 
   492  008E                     	;# 
   493  008F                     	;# 
   494  0090                     	;# 
   495  0091                     	;# 
   496  0092                     	;# 
   497  0093                     	;# 
   498  0095                     	;# 
   499  0096                     	;# 
   500  0097                     	;# 
   501  0098                     	;# 
   502  0099                     	;# 
   503  009A                     	;# 
   504  009B                     	;# 
   505  009B                     	;# 
   506  009C                     	;# 
   507  009D                     	;# 
   508  009E                     	;# 
   509  010C                     	;# 
   510  010D                     	;# 
   511  010E                     	;# 
   512  010F                     	;# 
   513  0110                     	;# 
   514  0111                     	;# 
   515  0112                     	;# 
   516  0113                     	;# 
   517  0114                     	;# 
   518  0115                     	;# 
   519  0116                     	;# 
   520  0117                     	;# 
   521  0118                     	;# 
   522  0119                     	;# 
   523  011A                     	;# 
   524  011B                     	;# 
   525  011D                     	;# 
   526  018C                     	;# 
   527  018D                     	;# 
   528  018F                     	;# 
   529  0190                     	;# 
   530  0191                     	;# 
   531  0191                     	;# 
   532  0192                     	;# 
   533  0193                     	;# 
   534  0193                     	;# 
   535  0193                     	;# 
   536  0194                     	;# 
   537  0195                     	;# 
   538  0196                     	;# 
   539  0199                     	;# 
   540  019A                     	;# 
   541  019B                     	;# 
   542  019B                     	;# 
   543  019B                     	;# 
   544  019B                     	;# 
   545  019C                     	;# 
   546  019C                     	;# 
   547  019D                     	;# 
   548  019E                     	;# 
   549  019F                     	;# 
   550  020D                     	;# 
   551  0210                     	;# 
   552  0211                     	;# 
   553  0212                     	;# 
   554  0213                     	;# 
   555  0214                     	;# 
   556  0215                     	;# 
   557  0215                     	;# 
   558  0216                     	;# 
   559  0217                     	;# 
   560  0291                     	;# 
   561  0291                     	;# 
   562  0292                     	;# 
   563  0293                     	;# 
   564  0294                     	;# 
   565  0295                     	;# 
   566  0295                     	;# 
   567  0296                     	;# 
   568  0298                     	;# 
   569  0298                     	;# 
   570  0299                     	;# 
   571  029A                     	;# 
   572  029B                     	;# 
   573  029C                     	;# 
   574  029C                     	;# 
   575  029D                     	;# 
   576  029E                     	;# 
   577  029F                     	;# 
   578  0311                     	;# 
   579  0311                     	;# 
   580  0312                     	;# 
   581  0313                     	;# 
   582  0314                     	;# 
   583  0315                     	;# 
   584  0315                     	;# 
   585  0316                     	;# 
   586  0318                     	;# 
   587  0318                     	;# 
   588  0319                     	;# 
   589  031A                     	;# 
   590  031C                     	;# 
   591  031C                     	;# 
   592  031D                     	;# 
   593  031E                     	;# 
   594  0394                     	;# 
   595  0395                     	;# 
   596  0396                     	;# 
   597  0415                     	;# 
   598  0416                     	;# 
   599  0417                     	;# 
   600  041C                     	;# 
   601  041D                     	;# 
   602  041E                     	;# 
   603  0791                     	;# 
   604  0792                     	;# 
   605  0793                     	;# 
   606  0794                     	;# 
   607  0795                     	;# 
   608  0798                     	;# 
   609  0799                     	;# 
   610  079A                     	;# 
   611  07A0                     	;# 
   612  07A1                     	;# 
   613  07A2                     	;# 
   614  07A3                     	;# 
   615  07A4                     	;# 
   616  07A5                     	;# 
   617  07A6                     	;# 
   618  07A7                     	;# 
   619  07A8                     	;# 
   620  07A9                     	;# 
   621  07AA                     	;# 
   622  07AB                     	;# 
   623  0FE4                     	;# 
   624  0FE5                     	;# 
   625  0FE6                     	;# 
   626  0FE7                     	;# 
   627  0FE8                     	;# 
   628  0FE9                     	;# 
   629  0FEA                     	;# 
   630  0FEB                     	;# 
   631  0FED                     	;# 
   632  0FEE                     	;# 
   633  0FEF                     	;# 
   634  0000                     	;# 
   635  0001                     	;# 
   636  0002                     	;# 
   637  0003                     	;# 
   638  0004                     	;# 
   639  0005                     	;# 
   640  0006                     	;# 
   641  0007                     	;# 
   642  0008                     	;# 
   643  0009                     	;# 
   644  000A                     	;# 
   645  000B                     	;# 
   646  000C                     	;# 
   647  000D                     	;# 
   648  000E                     	;# 
   649  000F                     	;# 
   650  0010                     	;# 
   651  0011                     	;# 
   652  0012                     	;# 
   653  0013                     	;# 
   654  0015                     	;# 
   655  0016                     	;# 
   656  0016                     	;# 
   657  0017                     	;# 
   658  0018                     	;# 
   659  0019                     	;# 
   660  001A                     	;# 
   661  001B                     	;# 
   662  001C                     	;# 
   663  001E                     	;# 
   664  001F                     	;# 
   665  008C                     	;# 
   666  008D                     	;# 
   667  008E                     	;# 
   668  008F                     	;# 
   669  0090                     	;# 
   670  0091                     	;# 
   671  0092                     	;# 
   672  0093                     	;# 
   673  0095                     	;# 
   674  0096                     	;# 
   675  0097                     	;# 
   676  0098                     	;# 
   677  0099                     	;# 
   678  009A                     	;# 
   679  009B                     	;# 
   680  009B                     	;# 
   681  009C                     	;# 
   682  009D                     	;# 
   683  009E                     	;# 
   684  010C                     	;# 
   685  010D                     	;# 
   686  010E                     	;# 
   687  010F                     	;# 
   688  0110                     	;# 
   689  0111                     	;# 
   690  0112                     	;# 
   691  0113                     	;# 
   692  0114                     	;# 
   693  0115                     	;# 
   694  0116                     	;# 
   695  0117                     	;# 
   696  0118                     	;# 
   697  0119                     	;# 
   698  011A                     	;# 
   699  011B                     	;# 
   700  011D                     	;# 
   701  018C                     	;# 
   702  018D                     	;# 
   703  018F                     	;# 
   704  0190                     	;# 
   705  0191                     	;# 
   706  0191                     	;# 
   707  0192                     	;# 
   708  0193                     	;# 
   709  0193                     	;# 
   710  0193                     	;# 
   711  0194                     	;# 
   712  0195                     	;# 
   713  0196                     	;# 
   714  0199                     	;# 
   715  019A                     	;# 
   716  019B                     	;# 
   717  019B                     	;# 
   718  019B                     	;# 
   719  019B                     	;# 
   720  019C                     	;# 
   721  019C                     	;# 
   722  019D                     	;# 
   723  019E                     	;# 
   724  019F                     	;# 
   725  020D                     	;# 
   726  0210                     	;# 
   727  0211                     	;# 
   728  0212                     	;# 
   729  0213                     	;# 
   730  0214                     	;# 
   731  0215                     	;# 
   732  0215                     	;# 
   733  0216                     	;# 
   734  0217                     	;# 
   735  0291                     	;# 
   736  0291                     	;# 
   737  0292                     	;# 
   738  0293                     	;# 
   739  0294                     	;# 
   740  0295                     	;# 
   741  0295                     	;# 
   742  0296                     	;# 
   743  0298                     	;# 
   744  0298                     	;# 
   745  0299                     	;# 
   746  029A                     	;# 
   747  029B                     	;# 
   748  029C                     	;# 
   749  029C                     	;# 
   750  029D                     	;# 
   751  029E                     	;# 
   752  029F                     	;# 
   753  0311                     	;# 
   754  0311                     	;# 
   755  0312                     	;# 
   756  0313                     	;# 
   757  0314                     	;# 
   758  0315                     	;# 
   759  0315                     	;# 
   760  0316                     	;# 
   761  0318                     	;# 
   762  0318                     	;# 
   763  0319                     	;# 
   764  031A                     	;# 
   765  031C                     	;# 
   766  031C                     	;# 
   767  031D                     	;# 
   768  031E                     	;# 
   769  0394                     	;# 
   770  0395                     	;# 
   771  0396                     	;# 
   772  0415                     	;# 
   773  0416                     	;# 
   774  0417                     	;# 
   775  041C                     	;# 
   776  041D                     	;# 
   777  041E                     	;# 
   778  0791                     	;# 
   779  0792                     	;# 
   780  0793                     	;# 
   781  0794                     	;# 
   782  0795                     	;# 
   783  0798                     	;# 
   784  0799                     	;# 
   785  079A                     	;# 
   786  07A0                     	;# 
   787  07A1                     	;# 
   788  07A2                     	;# 
   789  07A3                     	;# 
   790  07A4                     	;# 
   791  07A5                     	;# 
   792  07A6                     	;# 
   793  07A7                     	;# 
   794  07A8                     	;# 
   795  07A9                     	;# 
   796  07AA                     	;# 
   797  07AB                     	;# 
   798  0FE4                     	;# 
   799  0FE5                     	;# 
   800  0FE6                     	;# 
   801  0FE7                     	;# 
   802  0FE8                     	;# 
   803  0FE9                     	;# 
   804  0FEA                     	;# 
   805  0FEB                     	;# 
   806  0FED                     	;# 
   807  0FEE                     	;# 
   808  0FEF                     	;# 
   809  0000                     	;# 
   810  0001                     	;# 
   811  0002                     	;# 
   812  0003                     	;# 
   813  0004                     	;# 
   814  0005                     	;# 
   815  0006                     	;# 
   816  0007                     	;# 
   817  0008                     	;# 
   818  0009                     	;# 
   819  000A                     	;# 
   820  000B                     	;# 
   821  000C                     	;# 
   822  000D                     	;# 
   823  000E                     	;# 
   824  000F                     	;# 
   825  0010                     	;# 
   826  0011                     	;# 
   827  0012                     	;# 
   828  0013                     	;# 
   829  0015                     	;# 
   830  0016                     	;# 
   831  0016                     	;# 
   832  0017                     	;# 
   833  0018                     	;# 
   834  0019                     	;# 
   835  001A                     	;# 
   836  001B                     	;# 
   837  001C                     	;# 
   838  001E                     	;# 
   839  001F                     	;# 
   840  008C                     	;# 
   841  008D                     	;# 
   842  008E                     	;# 
   843  008F                     	;# 
   844  0090                     	;# 
   845  0091                     	;# 
   846  0092                     	;# 
   847  0093                     	;# 
   848  0095                     	;# 
   849  0096                     	;# 
   850  0097                     	;# 
   851  0098                     	;# 
   852  0099                     	;# 
   853  009A                     	;# 
   854  009B                     	;# 
   855  009B                     	;# 
   856  009C                     	;# 
   857  009D                     	;# 
   858  009E                     	;# 
   859  010C                     	;# 
   860  010D                     	;# 
   861  010E                     	;# 
   862  010F                     	;# 
   863  0110                     	;# 
   864  0111                     	;# 
   865  0112                     	;# 
   866  0113                     	;# 
   867  0114                     	;# 
   868  0115                     	;# 
   869  0116                     	;# 
   870  0117                     	;# 
   871  0118                     	;# 
   872  0119                     	;# 
   873  011A                     	;# 
   874  011B                     	;# 
   875  011D                     	;# 
   876  018C                     	;# 
   877  018D                     	;# 
   878  018F                     	;# 
   879  0190                     	;# 
   880  0191                     	;# 
   881  0191                     	;# 
   882  0192                     	;# 
   883  0193                     	;# 
   884  0193                     	;# 
   885  0193                     	;# 
   886  0194                     	;# 
   887  0195                     	;# 
   888  0196                     	;# 
   889  0199                     	;# 
   890  019A                     	;# 
   891  019B                     	;# 
   892  019B                     	;# 
   893  019B                     	;# 
   894  019B                     	;# 
   895  019C                     	;# 
   896  019C                     	;# 
   897  019D                     	;# 
   898  019E                     	;# 
   899  019F                     	;# 
   900  020D                     	;# 
   901  0210                     	;# 
   902  0211                     	;# 
   903  0212                     	;# 
   904  0213                     	;# 
   905  0214                     	;# 
   906  0215                     	;# 
   907  0215                     	;# 
   908  0216                     	;# 
   909  0217                     	;# 
   910  0291                     	;# 
   911  0291                     	;# 
   912  0292                     	;# 
   913  0293                     	;# 
   914  0294                     	;# 
   915  0295                     	;# 
   916  0295                     	;# 
   917  0296                     	;# 
   918  0298                     	;# 
   919  0298                     	;# 
   920  0299                     	;# 
   921  029A                     	;# 
   922  029B                     	;# 
   923  029C                     	;# 
   924  029C                     	;# 
   925  029D                     	;# 
   926  029E                     	;# 
   927  029F                     	;# 
   928  0311                     	;# 
   929  0311                     	;# 
   930  0312                     	;# 
   931  0313                     	;# 
   932  0314                     	;# 
   933  0315                     	;# 
   934  0315                     	;# 
   935  0316                     	;# 
   936  0318                     	;# 
   937  0318                     	;# 
   938  0319                     	;# 
   939  031A                     	;# 
   940  031C                     	;# 
   941  031C                     	;# 
   942  031D                     	;# 
   943  031E                     	;# 
   944  0394                     	;# 
   945  0395                     	;# 
   946  0396                     	;# 
   947  0415                     	;# 
   948  0416                     	;# 
   949  0417                     	;# 
   950  041C                     	;# 
   951  041D                     	;# 
   952  041E                     	;# 
   953  0791                     	;# 
   954  0792                     	;# 
   955  0793                     	;# 
   956  0794                     	;# 
   957  0795                     	;# 
   958  0798                     	;# 
   959  0799                     	;# 
   960  079A                     	;# 
   961  07A0                     	;# 
   962  07A1                     	;# 
   963  07A2                     	;# 
   964  07A3                     	;# 
   965  07A4                     	;# 
   966  07A5                     	;# 
   967  07A6                     	;# 
   968  07A7                     	;# 
   969  07A8                     	;# 
   970  07A9                     	;# 
   971  07AA                     	;# 
   972  07AB                     	;# 
   973  0FE4                     	;# 
   974  0FE5                     	;# 
   975  0FE6                     	;# 
   976  0FE7                     	;# 
   977  0FE8                     	;# 
   978  0FE9                     	;# 
   979  0FEA                     	;# 
   980  0FEB                     	;# 
   981  0FED                     	;# 
   982  0FEE                     	;# 
   983  0FEF                     	;# 
   984                           
   985                           	psect	stringtext1
   986  0800                     __pstringtext1:
   987  0800                     _i2c_fsmStateTable:
   988  0800  347B               	retlw	low _I2C_DO_IDLE
   989  0801  3403               	retlw	high _I2C_DO_IDLE
   990  0802  34D3               	retlw	low _I2C_DO_SEND_ADR_READ
   991  0803  3403               	retlw	high _I2C_DO_SEND_ADR_READ
   992  0804  34CB               	retlw	low _I2C_DO_SEND_ADR_WRITE
   993  0805  3403               	retlw	high _I2C_DO_SEND_ADR_WRITE
   994  0806  34AD               	retlw	low _I2C_DO_TX
   995  0807  3406               	retlw	high _I2C_DO_TX
   996  0808  3414               	retlw	low _I2C_DO_RX
   997  0809  3406               	retlw	high _I2C_DO_RX
   998  080A  34C4               	retlw	low _I2C_DO_RCEN
   999  080B  3403               	retlw	high _I2C_DO_RCEN
  1000  080C  34AB               	retlw	low _I2C_DO_TX_EMPTY
  1001  080D  3405               	retlw	high _I2C_DO_TX_EMPTY
  1002  080E  3480               	retlw	low _I2C_DO_SEND_RESTART_READ
  1003  080F  3403               	retlw	high _I2C_DO_SEND_RESTART_READ
  1004  0810  3485               	retlw	low _I2C_DO_SEND_RESTART_WRITE
  1005  0811  3403               	retlw	high _I2C_DO_SEND_RESTART_WRITE
  1006  0812  348A               	retlw	low _I2C_DO_SEND_RESTART
  1007  0813  3403               	retlw	high _I2C_DO_SEND_RESTART
  1008  0814  348F               	retlw	low _I2C_DO_SEND_STOP
  1009  0815  3403               	retlw	high _I2C_DO_SEND_STOP
  1010  0816  3494               	retlw	low _I2C_DO_RX_ACK
  1011  0817  3403               	retlw	high _I2C_DO_RX_ACK
  1012  0818  3499               	retlw	low _I2C_DO_RX_NACK_STOP
  1013  0819  3403               	retlw	high _I2C_DO_RX_NACK_STOP
  1014  081A  349E               	retlw	low _I2C_DO_RX_NACK_RESTART
  1015  081B  3403               	retlw	high _I2C_DO_RX_NACK_RESTART
  1016  081C  34A3               	retlw	low _I2C_DO_RESET
  1017  081D  3403               	retlw	high _I2C_DO_RESET
  1018  081E  347F               	retlw	low _I2C_DO_ADDRESS_NACK
  1019  081F  3405               	retlw	high _I2C_DO_ADDRESS_NACK
  1020  0820                     __end_of_i2c_fsmStateTable:
  1021                           
  1022                           	psect	stringtext2
  1023  0820                     __pstringtext2:
  1024  0820                     _digitos:
  1025  0820  343F               	retlw	63
  1026  0821  3406               	retlw	6
  1027  0822  345B               	retlw	91
  1028  0823  344F               	retlw	79
  1029  0824  3466               	retlw	102
  1030  0825  346D               	retlw	109
  1031  0826  347D               	retlw	125
  1032  0827  3407               	retlw	7
  1033  0828  347F               	retlw	127
  1034  0829  346F               	retlw	111
  1035  082A                     __end_of_digitos:
  1036  0011                     _PIR1bits	set	17
  1037  0012                     _PIR2bits	set	18
  1038  0097                     _WDTCON	set	151
  1039  0098                     _OSCTUNE	set	152
  1040  0099                     _OSCCON	set	153
  1041  0091                     _PIE1bits	set	145
  1042  0095                     _OPTION_REGbits	set	149
  1043  008F                     _TRISD	set	143
  1044  008E                     _TRISC	set	142
  1045  008D                     _TRISB	set	141
  1046  008C                     _TRISA	set	140
  1047  0090                     _TRISE	set	144
  1048  04D6                     _PLLR	set	1238
  1049  0116                     _BORCON	set	278
  1050  011D                     _APFCON	set	285
  1051  010E                     _LATC	set	270
  1052  010D                     _LATB	set	269
  1053  010C                     _LATA	set	268
  1054  010F                     _LATD	set	271
  1055  0110                     _LATE	set	272
  1056  018C                     _ANSELA	set	396
  1057  0190                     _ANSELE	set	400
  1058  018D                     _ANSELB	set	397
  1059  018F                     _ANSELD	set	399
  1060  0214                     _SSPSTATbits	set	532
  1061  0216                     _SSPCON2bits	set	534
  1062  0211                     _SSPBUF	set	529
  1063  0215                     _SSPCON1bits	set	533
  1064  0212                     _SSPADD	set	530
  1065  0216                     _SSPCON2	set	534
  1066  0215                     _SSPCON1	set	533
  1067  0214                     _SSPSTAT	set	532
  1068  020D                     _WPUB	set	525
  1069  0210                     _WPUE	set	528
  1070                           
  1071                           	psect	cinit
  1072  07F3                     start_initialization:	
  1073                           ; #config settings
  1074                           
  1075  07F3                     __initialization:
  1076                           
  1077                           ; Clear objects allocated to COMMON
  1078  07F3  01FC               	clrf	__pbssCOMMON& (0+127)
  1079  07F4  01FD               	clrf	(__pbssCOMMON+1)& (0+127)
  1080                           
  1081                           ; Clear objects allocated to BANK0
  1082  07F5  3020               	movlw	low __pbssBANK0
  1083  07F6  0084               	movwf	4
  1084  07F7  3000               	movlw	high __pbssBANK0
  1085  07F8  0085               	movwf	5
  1086  07F9  3020               	movlw	32
  1087  07FA  3183  23BE  3187   	fcall	clear_ram0
  1088  07FD                     end_of_initialization:	
  1089                           ;End of C runtime variable initialization code
  1090                           
  1091  07FD                     __end_of__initialization:
  1092  07FD  0020               	movlb	0
  1093  07FE  3187  2F61         	ljmp	_main	;jump to C main() function
  1094                           
  1095                           	psect	bssCOMMON
  1096  007C                     __pbssCOMMON:
  1097  007C                     _unidades:
  1098  007C                     	ds	1
  1099  007D                     _contador:
  1100  007D                     	ds	1
  1101                           
  1102                           	psect	bssBANK0
  1103  0020                     __pbssBANK0:
  1104  0020                     _I2C_Status:
  1105  0020                     	ds	29
  1106  003D                     _statusbtn:
  1107  003D                     	ds	2
  1108  003F                     _decenas:
  1109  003F                     	ds	1
  1110                           
  1111                           	psect	clrtext
  1112  03BE                     clear_ram0:	
  1113                           ;	Called with FSR0 containing the base address, and
  1114                           ;	WREG with the size to clear
  1115                           
  1116  03BE  0064               	clrwdt	;clear the watchdog before getting into this loop
  1117  03BF                     clrloop0:
  1118  03BF  0180               	clrf	0	;clear RAM location pointed to by FSR
  1119  03C0  3101               	addfsr 0,1
  1120  03C1  0B89               	decfsz	9,f	;Have we reached the end of clearing yet?
  1121  03C2  2BBF               	goto	clrloop0	;have we reached the end yet?
  1122  03C3  3400               	retlw	0	;all done for this memory range, return
  1123                           
  1124                           	psect	cstackCOMMON
  1125  0070                     __pcstackCOMMON:
  1126  0070                     ?_I2C_DO_IDLE:
  1127  0070                     ??_I2C_DO_IDLE:	
  1128                           ; 1 bytes @ 0x0
  1129                           
  1130  0070                     ?_I2C_DO_SEND_ADR_READ:	
  1131                           ; 1 bytes @ 0x0
  1132                           
  1133  0070                     ??_I2C_DO_SEND_ADR_READ:	
  1134                           ; 1 bytes @ 0x0
  1135                           
  1136  0070                     ?_I2C_DO_SEND_ADR_WRITE:	
  1137                           ; 1 bytes @ 0x0
  1138                           
  1139  0070                     ?_I2C_DO_TX:	
  1140                           ; 1 bytes @ 0x0
  1141                           
  1142  0070                     ?_I2C_DO_RX:	
  1143                           ; 1 bytes @ 0x0
  1144                           
  1145  0070                     ??_I2C_DO_RX:	
  1146                           ; 1 bytes @ 0x0
  1147                           
  1148  0070                     ?_I2C_DO_RCEN:	
  1149                           ; 1 bytes @ 0x0
  1150                           
  1151  0070                     ??_I2C_DO_RCEN:	
  1152                           ; 1 bytes @ 0x0
  1153                           
  1154  0070                     ?_I2C_DO_TX_EMPTY:	
  1155                           ; 1 bytes @ 0x0
  1156                           
  1157  0070                     ??_I2C_DO_TX_EMPTY:	
  1158                           ; 1 bytes @ 0x0
  1159                           
  1160  0070                     ?_I2C_DO_SEND_RESTART_READ:	
  1161                           ; 1 bytes @ 0x0
  1162                           
  1163  0070                     ??_I2C_DO_SEND_RESTART_READ:	
  1164                           ; 1 bytes @ 0x0
  1165                           
  1166  0070                     ?_I2C_DO_SEND_RESTART_WRITE:	
  1167                           ; 1 bytes @ 0x0
  1168                           
  1169  0070                     ??_I2C_DO_SEND_RESTART_WRITE:	
  1170                           ; 1 bytes @ 0x0
  1171                           
  1172  0070                     ?_I2C_DO_SEND_RESTART:	
  1173                           ; 1 bytes @ 0x0
  1174                           
  1175  0070                     ??_I2C_DO_SEND_RESTART:	
  1176                           ; 1 bytes @ 0x0
  1177                           
  1178  0070                     ?_I2C_DO_SEND_STOP:	
  1179                           ; 1 bytes @ 0x0
  1180                           
  1181  0070                     ??_I2C_DO_SEND_STOP:	
  1182                           ; 1 bytes @ 0x0
  1183                           
  1184  0070                     ?_I2C_DO_RX_ACK:	
  1185                           ; 1 bytes @ 0x0
  1186                           
  1187  0070                     ??_I2C_DO_RX_ACK:	
  1188                           ; 1 bytes @ 0x0
  1189                           
  1190  0070                     ?_I2C_DO_RX_NACK_STOP:	
  1191                           ; 1 bytes @ 0x0
  1192                           
  1193  0070                     ??_I2C_DO_RX_NACK_STOP:	
  1194                           ; 1 bytes @ 0x0
  1195                           
  1196  0070                     ?_I2C_DO_RX_NACK_RESTART:	
  1197                           ; 1 bytes @ 0x0
  1198                           
  1199  0070                     ??_I2C_DO_RX_NACK_RESTART:	
  1200                           ; 1 bytes @ 0x0
  1201                           
  1202  0070                     ?_I2C_DO_RESET:	
  1203                           ; 1 bytes @ 0x0
  1204                           
  1205  0070                     ??_I2C_DO_RESET:	
  1206                           ; 1 bytes @ 0x0
  1207                           
  1208  0070                     ?_I2C_DO_ADDRESS_NACK:	
  1209                           ; 1 bytes @ 0x0
  1210                           
  1211  0070                     ??_I2C_DO_ADDRESS_NACK:	
  1212                           ; 1 bytes @ 0x0
  1213                           
  1214  0070                     ?_I2C_MasterClearIrq:	
  1215                           ; 1 bytes @ 0x0
  1216                           
  1217  0070                     ??_I2C_MasterClearIrq:	
  1218                           ; 1 bytes @ 0x0
  1219                           
  1220  0070                     ?_I2C_MasterOpen:	
  1221                           ; 1 bytes @ 0x0
  1222                           
  1223  0070                     ??_I2C_MasterOpen:	
  1224                           ; 1 bytes @ 0x0
  1225                           
  1226  0070                     ?_I2C_MasterDisableIrq:	
  1227                           ; 1 bytes @ 0x0
  1228                           
  1229  0070                     ??_I2C_MasterDisableIrq:	
  1230                           ; 1 bytes @ 0x0
  1231                           
  1232  0070                     ?_I2C_MasterClose:	
  1233                           ; 1 bytes @ 0x0
  1234                           
  1235  0070                     ??_I2C_MasterClose:	
  1236                           ; 1 bytes @ 0x0
  1237                           
  1238  0070                     ?_I2C_MasterStart:	
  1239                           ; 1 bytes @ 0x0
  1240                           
  1241  0070                     ??_I2C_MasterStart:	
  1242                           ; 1 bytes @ 0x0
  1243                           
  1244  0070                     ?_I2C_Poller:	
  1245                           ; 1 bytes @ 0x0
  1246                           
  1247  0070                     ?_I2C_SetCallback:	
  1248                           ; 1 bytes @ 0x0
  1249                           
  1250  0070                     ?_I2C_MasterWaitForEvent:	
  1251                           ; 1 bytes @ 0x0
  1252                           
  1253  0070                     ??_I2C_MasterWaitForEvent:	
  1254                           ; 1 bytes @ 0x0
  1255                           
  1256  0070                     ?_I2C_MasterFsm:	
  1257                           ; 1 bytes @ 0x0
  1258                           
  1259  0070                     ?_I2C_MasterIsNack:	
  1260                           ; 1 bytes @ 0x0
  1261                           
  1262  0070                     ??_I2C_MasterIsNack:	
  1263                           ; 1 bytes @ 0x0
  1264                           
  1265  0070                     ?_I2C_MasterSendTxData:	
  1266                           ; 1 bytes @ 0x0
  1267                           
  1268  0070                     ??_I2C_MasterSendTxData:	
  1269                           ; 1 bytes @ 0x0
  1270                           
  1271  0070                     ?_I2C_MasterGetRxData:	
  1272                           ; 1 bytes @ 0x0
  1273                           
  1274  0070                     ??_I2C_MasterGetRxData:	
  1275                           ; 1 bytes @ 0x0
  1276                           
  1277  0070                     ?_I2C_MasterSendAck:	
  1278                           ; 1 bytes @ 0x0
  1279                           
  1280  0070                     ??_I2C_MasterSendAck:	
  1281                           ; 1 bytes @ 0x0
  1282                           
  1283  0070                     ?_I2C_MasterStartRx:	
  1284                           ; 1 bytes @ 0x0
  1285                           
  1286  0070                     ??_I2C_MasterStartRx:	
  1287                           ; 1 bytes @ 0x0
  1288                           
  1289  0070                     ?_I2C_MasterSetIrq:	
  1290                           ; 1 bytes @ 0x0
  1291                           
  1292  0070                     ??_I2C_MasterSetIrq:	
  1293                           ; 1 bytes @ 0x0
  1294                           
  1295  0070                     ?_I2C_MasterEnableRestart:	
  1296                           ; 1 bytes @ 0x0
  1297                           
  1298  0070                     ??_I2C_MasterEnableRestart:	
  1299                           ; 1 bytes @ 0x0
  1300                           
  1301  0070                     ?_I2C_MasterStop:	
  1302                           ; 1 bytes @ 0x0
  1303                           
  1304  0070                     ??_I2C_MasterStop:	
  1305                           ; 1 bytes @ 0x0
  1306                           
  1307  0070                     ?_I2C_MasterSendNack:	
  1308                           ; 1 bytes @ 0x0
  1309                           
  1310  0070                     ??_I2C_MasterSendNack:	
  1311                           ; 1 bytes @ 0x0
  1312                           
  1313  0070                     ?_OSCILLATOR_Initialize:	
  1314                           ; 1 bytes @ 0x0
  1315                           
  1316  0070                     ??_OSCILLATOR_Initialize:	
  1317                           ; 1 bytes @ 0x0
  1318                           
  1319  0070                     ?_WDT_Initialize:	
  1320                           ; 1 bytes @ 0x0
  1321                           
  1322  0070                     ??_WDT_Initialize:	
  1323                           ; 1 bytes @ 0x0
  1324                           
  1325  0070                     ?_PIN_MANAGER_Initialize:	
  1326                           ; 1 bytes @ 0x0
  1327                           
  1328  0070                     ??_PIN_MANAGER_Initialize:	
  1329                           ; 1 bytes @ 0x0
  1330                           
  1331  0070                     ?_I2C_Initialize:	
  1332                           ; 1 bytes @ 0x0
  1333                           
  1334  0070                     ??_I2C_Initialize:	
  1335                           ; 1 bytes @ 0x0
  1336                           
  1337  0070                     ?_I2C_Open:	
  1338                           ; 1 bytes @ 0x0
  1339                           
  1340  0070                     ??_I2C_Open:	
  1341                           ; 1 bytes @ 0x0
  1342                           
  1343  0070                     ?_I2C_Close:	
  1344                           ; 1 bytes @ 0x0
  1345                           
  1346  0070                     ??_I2C_Close:	
  1347                           ; 1 bytes @ 0x0
  1348                           
  1349  0070                     ?_I2C_MasterOperation:	
  1350                           ; 1 bytes @ 0x0
  1351                           
  1352  0070                     ?_I2C_MasterRead:	
  1353                           ; 1 bytes @ 0x0
  1354                           
  1355  0070                     ?_I2C_MasterWrite:	
  1356                           ; 1 bytes @ 0x0
  1357                           
  1358  0070                     ?_I2C_SetBuffer:	
  1359                           ; 1 bytes @ 0x0
  1360                           
  1361  0070                     ?_I2C_Rd:	
  1362                           ; 1 bytes @ 0x0
  1363                           
  1364  0070                     ?_SYSTEM_Initialize:	
  1365                           ; 1 bytes @ 0x0
  1366                           
  1367  0070                     ??_SYSTEM_Initialize:	
  1368                           ; 1 bytes @ 0x0
  1369                           
  1370  0070                     ?_main:	
  1371                           ; 1 bytes @ 0x0
  1372                           
  1373  0070                     ?___awdiv:	
  1374                           ; 1 bytes @ 0x0
  1375                           
  1376  0070                     ?___awmod:	
  1377                           ; 2 bytes @ 0x0
  1378                           
  1379  0070                     I2C_MasterSendTxData@data:	
  1380                           ; 2 bytes @ 0x0
  1381                           
  1382  0070                     I2C_SetBuffer@bufferSize:	
  1383                           ; 1 bytes @ 0x0
  1384                           
  1385  0070                     I2C_SetCallback@cb:	
  1386                           ; 2 bytes @ 0x0
  1387                           
  1388  0070                     ___awdiv@divisor:	
  1389                           ; 2 bytes @ 0x0
  1390                           
  1391  0070                     ___awmod@divisor:	
  1392                           ; 2 bytes @ 0x0
  1393                           
  1394                           
  1395                           ; 2 bytes @ 0x0
  1396  0070                     	ds	1
  1397  0071                     ??_I2C_DO_SEND_ADR_WRITE:
  1398  0071                     ??_I2C_DO_TX:	
  1399                           ; 1 bytes @ 0x1
  1400                           
  1401  0071                     I2C_Open@address:	
  1402                           ; 1 bytes @ 0x1
  1403                           
  1404  0071                     I2C_Close@returnValue:	
  1405                           ; 1 bytes @ 0x1
  1406                           
  1407                           
  1408                           ; 1 bytes @ 0x1
  1409  0071                     	ds	1
  1410  0072                     ??_I2C_SetBuffer:
  1411  0072                     I2C_Open@returnValue:	
  1412                           ; 1 bytes @ 0x2
  1413                           
  1414  0072                     I2C_SetCallback@ptr:	
  1415                           ; 1 bytes @ 0x2
  1416                           
  1417  0072                     ___awdiv@dividend:	
  1418                           ; 1 bytes @ 0x2
  1419                           
  1420  0072                     ___awmod@dividend:	
  1421                           ; 2 bytes @ 0x2
  1422                           
  1423                           
  1424                           ; 2 bytes @ 0x2
  1425  0072                     	ds	1
  1426  0073                     ??_I2C_SetCallback:
  1427  0073                     I2C_SetBuffer@buffer:	
  1428                           ; 1 bytes @ 0x3
  1429                           
  1430                           
  1431                           ; 1 bytes @ 0x3
  1432  0073                     	ds	1
  1433  0074                     ??_I2C_MasterFsm:
  1434  0074                     ??___awdiv:	
  1435                           ; 1 bytes @ 0x4
  1436                           
  1437  0074                     ??___awmod:	
  1438                           ; 1 bytes @ 0x4
  1439                           
  1440  0074                     I2C_SetCallback@idx:	
  1441                           ; 1 bytes @ 0x4
  1442                           
  1443                           
  1444                           ; 1 bytes @ 0x4
  1445  0074                     	ds	1
  1446  0075                     ?_I2C_SetDataCompleteCallback:
  1447  0075                     ?_I2C_SetAddressNackCallback:	
  1448                           ; 1 bytes @ 0x5
  1449                           
  1450  0075                     ___awdiv@counter:	
  1451                           ; 1 bytes @ 0x5
  1452                           
  1453  0075                     ___awmod@counter:	
  1454                           ; 1 bytes @ 0x5
  1455                           
  1456  0075                     I2C_SetDataCompleteCallback@cb:	
  1457                           ; 1 bytes @ 0x5
  1458                           
  1459  0075                     I2C_SetAddressNackCallback@cb:	
  1460                           ; 2 bytes @ 0x5
  1461                           
  1462                           
  1463                           ; 2 bytes @ 0x5
  1464  0075                     	ds	1
  1465  0076                     ___awdiv@sign:
  1466  0076                     ___awmod@sign:	
  1467                           ; 1 bytes @ 0x6
  1468                           
  1469                           
  1470                           ; 1 bytes @ 0x6
  1471  0076                     	ds	1
  1472  0077                     ??_I2C_Poller:
  1473  0077                     ??_I2C_MasterOperation:	
  1474                           ; 1 bytes @ 0x7
  1475                           
  1476  0077                     I2C_SetDataCompleteCallback@ptr:	
  1477                           ; 1 bytes @ 0x7
  1478                           
  1479  0077                     I2C_SetAddressNackCallback@ptr:	
  1480                           ; 1 bytes @ 0x7
  1481                           
  1482  0077                     ___awdiv@quotient:	
  1483                           ; 1 bytes @ 0x7
  1484                           
  1485                           
  1486                           ; 2 bytes @ 0x7
  1487  0077                     	ds	1
  1488  0078                     ??_I2C_SetDataCompleteCallback:
  1489  0078                     ??_I2C_SetAddressNackCallback:	
  1490                           ; 1 bytes @ 0x8
  1491                           
  1492  0078                     I2C_MasterOperation@read:	
  1493                           ; 1 bytes @ 0x8
  1494                           
  1495                           
  1496                           ; 1 bytes @ 0x8
  1497  0078                     	ds	1
  1498  0079                     ?_I2C_CallbackReturnStop:
  1499  0079                     ?_I2C_CallbackReturnReset:	
  1500                           ; 1 bytes @ 0x9
  1501                           
  1502  0079                     ?_rd1RegCompleteHandler:	
  1503                           ; 1 bytes @ 0x9
  1504                           
  1505  0079                     ?_wr1RegCompleteHandler:	
  1506                           ; 1 bytes @ 0x9
  1507                           
  1508  0079                     ?_wr2RegCompleteHandler:	
  1509                           ; 1 bytes @ 0x9
  1510                           
  1511  0079                     ?_rdBlkRegCompleteHandler:	
  1512                           ; 1 bytes @ 0x9
  1513                           
  1514  0079                     I2C_MasterOperation@returnValue:	
  1515                           ; 1 bytes @ 0x9
  1516                           
  1517  0079                     I2C_CallbackReturnStop@funPtr:	
  1518                           ; 1 bytes @ 0x9
  1519                           
  1520  0079                     I2C_CallbackReturnReset@funPtr:	
  1521                           ; 1 bytes @ 0x9
  1522                           
  1523  0079                     rd1RegCompleteHandler@ptr:	
  1524                           ; 1 bytes @ 0x9
  1525                           
  1526  0079                     wr1RegCompleteHandler@ptr:	
  1527                           ; 1 bytes @ 0x9
  1528                           
  1529  0079                     wr2RegCompleteHandler@ptr:	
  1530                           ; 1 bytes @ 0x9
  1531                           
  1532  0079                     rdBlkRegCompleteHandler@ptr:	
  1533                           ; 1 bytes @ 0x9
  1534                           
  1535                           
  1536                           ; 1 bytes @ 0x9
  1537  0079                     	ds	1
  1538  007A                     ??_I2C_CallbackReturnStop:
  1539  007A                     ??_I2C_CallbackReturnReset:	
  1540                           ; 1 bytes @ 0xA
  1541                           
  1542  007A                     ??_rd1RegCompleteHandler:	
  1543                           ; 1 bytes @ 0xA
  1544                           
  1545  007A                     ??_wr1RegCompleteHandler:	
  1546                           ; 1 bytes @ 0xA
  1547                           
  1548  007A                     ??_wr2RegCompleteHandler:	
  1549                           ; 1 bytes @ 0xA
  1550                           
  1551  007A                     ??_rdBlkRegCompleteHandler:	
  1552                           ; 1 bytes @ 0xA
  1553                           
  1554  007A                     ??_I2C_MasterRead:	
  1555                           ; 1 bytes @ 0xA
  1556                           
  1557  007A                     ??_I2C_MasterWrite:	
  1558                           ; 1 bytes @ 0xA
  1559                           
  1560  007A                     ?_I2C_Wr:	
  1561                           ; 1 bytes @ 0xA
  1562                           
  1563  007A                     ??_I2C_Rd:	
  1564                           ; 1 bytes @ 0xA
  1565                           
  1566  007A                     I2C_Wr@data:	
  1567                           ; 1 bytes @ 0xA
  1568                           
  1569  007A                     I2C_Rd@address:	
  1570                           ; 1 bytes @ 0xA
  1571                           
  1572                           
  1573                           ; 1 bytes @ 0xA
  1574  007A                     	ds	1
  1575  007B                     ??_I2C_Wr:
  1576  007B                     I2C_Wr@address:	
  1577                           ; 1 bytes @ 0xB
  1578                           
  1579  007B                     I2C_Rd@returnValue:	
  1580                           ; 1 bytes @ 0xB
  1581                           
  1582                           
  1583                           ; 1 bytes @ 0xB
  1584  007B                     	ds	1
  1585                           
  1586                           	psect	cstackBANK0
  1587  0040                     __pcstackBANK0:
  1588  0040                     ??_main:
  1589                           
  1590                           ; 1 bytes @ 0x0
  1591  0040                     	ds	3
  1592                           
  1593                           	psect	maintext
  1594  0761                     __pmaintext:	
  1595 ;;
  1596 ;;Main: autosize = 0, tempsize = 3, incstack = 0, save=0
  1597 ;;
  1598 ;; *************** function _main *****************
  1599 ;; Defined at:
  1600 ;;		line 23 in file "main.c"
  1601 ;; Parameters:    Size  Location     Type
  1602 ;;		None
  1603 ;; Auto vars:     Size  Location     Type
  1604 ;;		None
  1605 ;; Return value:  Size  Location     Type
  1606 ;;                  1    wreg      void 
  1607 ;; Registers used:
  1608 ;;		wreg, fsr0l, fsr0h, fsr1l, fsr1h, status,2, status,0, pclath, cstack
  1609 ;; Tracked objects:
  1610 ;;		On entry : B1F/0
  1611 ;;		On exit  : 0/0
  1612 ;;		Unchanged: 0/0
  1613 ;; Data sizes:     COMMON   BANK0   BANK1   BANK2   BANK3   BANK4   BANK5   BANK6   BANK7   BANK8   BANK9  BANK10  BANK1
      +1  BANK12
  1614 ;;      Params:         0       0       0       0       0       0       0       0       0       0       0       0       
      +0       0
  1615 ;;      Locals:         0       0       0       0       0       0       0       0       0       0       0       0       
      +0       0
  1616 ;;      Temps:          0       3       0       0       0       0       0       0       0       0       0       0       
      +0       0
  1617 ;;      Totals:         0       3       0       0       0       0       0       0       0       0       0       0       
      +0       0
  1618 ;;Total ram usage:        3 bytes
  1619 ;; Hardware stack levels required when called: 9
  1620 ;; This function calls:
  1621 ;;		_I2C_Rd
  1622 ;;		_I2C_Wr
  1623 ;;		_SYSTEM_Initialize
  1624 ;;		___awdiv
  1625 ;;		___awmod
  1626 ;; This function is called by:
  1627 ;;		Startup code after reset
  1628 ;; This function uses a non-reentrant model
  1629 ;;
  1630                           
  1631  0761                     _main:	
  1632                           ;psect for function _main
  1633                           
  1634  0761                     l2621:	
  1635                           ;incstack = 0
  1636                           ; Regs used in _main: [wreg-fsr1h+status,2+status,0+pclath+cstack]
  1637                           
  1638                           
  1639                           ;main.c: 25:     SYSTEM_Initialize();
  1640  0761  3184  2425  3187   	fcall	_SYSTEM_Initialize
  1641  0764                     l536:	
  1642                           ;main.c: 27:     while (1){
  1643                           
  1644                           
  1645                           ;main.c: 28:         unidades = contador % 10;
  1646  0764  300A               	movlw	10
  1647  0765  00F0               	movwf	___awmod@divisor
  1648  0766  3000               	movlw	0
  1649  0767  00F1               	movwf	___awmod@divisor+1
  1650  0768  087D               	movf	_contador,w
  1651  0769  0020               	movlb	0	; select bank0
  1652  076A  00C0               	movwf	??_main
  1653  076B  01C1               	clrf	??_main+1
  1654  076C  0840               	movf	??_main,w
  1655  076D  00F2               	movwf	___awmod@dividend
  1656  076E  0841               	movf	??_main+1,w
  1657  076F  00F3               	movwf	___awmod@dividend+1
  1658  0770  3186  265A  3187   	fcall	___awmod
  1659  0773  0870               	movf	?___awmod,w
  1660  0774  0020               	movlb	0	; select bank0
  1661  0775  00C2               	movwf	??_main+2
  1662  0776  0842               	movf	??_main+2,w
  1663  0777  00FC               	movwf	_unidades
  1664                           
  1665                           ;main.c: 29:         decenas = contador / 10;
  1666  0778  300A               	movlw	10
  1667  0779  00F0               	movwf	___awdiv@divisor
  1668  077A  3000               	movlw	0
  1669  077B  00F1               	movwf	___awdiv@divisor+1
  1670  077C  087D               	movf	_contador,w
  1671  077D  00C0               	movwf	??_main
  1672  077E  01C1               	clrf	??_main+1
  1673  077F  0840               	movf	??_main,w
  1674  0780  00F2               	movwf	___awdiv@dividend
  1675  0781  0841               	movf	??_main+1,w
  1676  0782  00F3               	movwf	___awdiv@dividend+1
  1677  0783  3187  2702  3187   	fcall	___awdiv
  1678  0786  0870               	movf	?___awdiv,w
  1679  0787  0020               	movlb	0	; select bank0
  1680  0788  00C2               	movwf	??_main+2
  1681  0789  0842               	movf	??_main+2,w
  1682  078A  00BF               	movwf	_decenas
  1683  078B                     l2623:
  1684                           
  1685                           ;main.c: 30:         I2C_Wr(0b0100000<<0, digitos[unidades]);
  1686  078B  087C               	movf	_unidades,w
  1687  078C  3E20               	addlw	low (_digitos| (0+32768))
  1688  078D  0084               	movwf	4
  1689  078E  3088               	movlw	high (_digitos| (0+32768))
  1690  078F  1803               	skipnc
  1691  0790  3E01               	addlw	1
  1692  0791  0085               	movwf	5
  1693  0792  0800               	movf	0,w	;code access
  1694  0793  00C0               	movwf	??_main
  1695  0794  0840               	movf	??_main,w
  1696  0795  00FA               	movwf	I2C_Wr@data
  1697  0796  3020               	movlw	32
  1698  0797  3185  2509  3187   	fcall	_I2C_Wr
  1699  079A                     l2625:
  1700                           
  1701                           ;main.c: 31:         I2C_Wr(0b0100001<<0, digitos[decenas]);
  1702  079A  0020               	movlb	0	; select bank0
  1703  079B  083F               	movf	_decenas,w
  1704  079C  3E20               	addlw	low (_digitos| (0+32768))
  1705  079D  0084               	movwf	4
  1706  079E  3088               	movlw	high (_digitos| (0+32768))
  1707  079F  1803               	skipnc
  1708  07A0  3E01               	addlw	1
  1709  07A1  0085               	movwf	5
  1710  07A2  0800               	movf	0,w	;code access
  1711  07A3  00C0               	movwf	??_main
  1712  07A4  0840               	movf	??_main,w
  1713  07A5  00FA               	movwf	I2C_Wr@data
  1714  07A6  3021               	movlw	33
  1715  07A7  3185  2509  3187   	fcall	_I2C_Wr
  1716  07AA                     l2627:
  1717                           
  1718                           ;main.c: 33:         statusbtn=I2C_Rd(0b0100000<<0);
  1719  07AA  3020               	movlw	32
  1720  07AB  3184  24C7  3187   	fcall	_I2C_Rd
  1721  07AE  0020               	movlb	0	; select bank0
  1722  07AF  00C0               	movwf	??_main
  1723  07B0  01C1               	clrf	??_main+1
  1724  07B1  0840               	movf	??_main,w
  1725  07B2  00BD               	movwf	_statusbtn
  1726  07B3  0841               	movf	??_main+1,w
  1727  07B4  00BE               	movwf	_statusbtn+1
  1728  07B5                     l2629:
  1729                           
  1730                           ;main.c: 34:         statusbtn = ( statusbtn& 0b10000000 ) >> 7;
  1731  07B5  083E               	movf	_statusbtn+1,w
  1732  07B6  00C1               	movwf	??_main+1
  1733  07B7  083D               	movf	_statusbtn,w
  1734  07B8  00C0               	movwf	??_main
  1735  07B9  3007               	movlw	7
  1736  07BA  00C2               	movwf	??_main+2
  1737  07BB                     u1115:
  1738  07BB  0D41               	rlf	??_main+1,w
  1739  07BC  0CC1               	rrf	??_main+1,f
  1740  07BD  0CC0               	rrf	??_main,f
  1741  07BE  0BC2               	decfsz	??_main+2,f
  1742  07BF  2FBB               	goto	u1115
  1743  07C0  3001               	movlw	1
  1744  07C1  0540               	andwf	??_main,w
  1745  07C2  00BD               	movwf	_statusbtn
  1746  07C3  3000               	movlw	0
  1747  07C4  0541               	andwf	??_main+1,w
  1748  07C5  00BE               	movwf	_statusbtn+1
  1749  07C6                     l2631:
  1750                           
  1751                           ;main.c: 35:         _delay((unsigned long)((100)*(32000000/4000.0)));
  1752  07C6  3005               	movlw	5
  1753  07C7  0020               	movlb	0	; select bank0
  1754  07C8  00C1               	movwf	??_main+1
  1755  07C9  300F               	movlw	15
  1756  07CA  00C0               	movwf	??_main
  1757  07CB  30F1               	movlw	241
  1758  07CC                     u1157:
  1759  07CC  0B89               	decfsz	9,f
  1760  07CD  2FCC               	goto	u1157
  1761  07CE  0BC0               	decfsz	??_main,f
  1762  07CF  2FCC               	goto	u1157
  1763  07D0  0BC1               	decfsz	??_main+1,f
  1764  07D1  2FCC               	goto	u1157
  1765  07D2                     l2633:
  1766                           
  1767                           ;main.c: 36:         if(statusbtn)
  1768  07D2  0020               	movlb	0	; select bank0
  1769  07D3  083D               	movf	_statusbtn,w
  1770  07D4  043E               	iorwf	_statusbtn+1,w
  1771  07D5  1903               	btfsc	3,2
  1772  07D6  2FD8               	goto	u1121
  1773  07D7  2FD9               	goto	u1120
  1774  07D8                     u1121:
  1775  07D8  2FDE               	goto	l2637
  1776  07D9                     u1120:
  1777  07D9                     l2635:
  1778                           
  1779                           ;main.c: 37:             contador++;
  1780  07D9  3001               	movlw	1
  1781  07DA  00C0               	movwf	??_main
  1782  07DB  0840               	movf	??_main,w
  1783  07DC  07FD               	addwf	_contador,f
  1784  07DD  2FE0               	goto	l538
  1785  07DE                     l2637:
  1786                           
  1787                           ;main.c: 39:             contador--;
  1788  07DE  3001               	movlw	1
  1789  07DF  02FD               	subwf	_contador,f
  1790  07E0                     l538:
  1791                           
  1792                           ;main.c: 41:         if(contador==100)
  1793  07E0  3064               	movlw	100
  1794  07E1  067D               	xorwf	_contador,w
  1795  07E2  1D03               	btfss	3,2
  1796  07E3  2FE5               	goto	u1131
  1797  07E4  2FE6               	goto	u1130
  1798  07E5                     u1131:
  1799  07E5  2FE7               	goto	l2641
  1800  07E6                     u1130:
  1801  07E6                     l2639:
  1802                           
  1803                           ;main.c: 42:             contador=0;
  1804  07E6  01FD               	clrf	_contador
  1805  07E7                     l2641:
  1806                           
  1807                           ;main.c: 44:         if(contador==255)
  1808  07E7  0A7D               	incf	_contador,w
  1809  07E8  1D03               	btfss	3,2
  1810  07E9  2FEB               	goto	u1141
  1811  07EA  2FEC               	goto	u1140
  1812  07EB                     u1141:
  1813  07EB  2F64               	goto	l536
  1814  07EC                     u1140:
  1815  07EC                     l2643:
  1816                           
  1817                           ;main.c: 45:             contador = 99;
  1818  07EC  3063               	movlw	99
  1819  07ED  00C0               	movwf	??_main
  1820  07EE  0840               	movf	??_main,w
  1821  07EF  00FD               	movwf	_contador
  1822  07F0  2F64               	goto	l536
  1823  07F1  3180  2802         	ljmp	start
  1824  07F3                     __end_of_main:
  1825                           
  1826                           	psect	text1
  1827  065A                     __ptext1:	
  1828 ;; *************** function ___awmod *****************
  1829 ;; Defined at:
  1830 ;;		line 5 in file "C:\Program Files\Microchip\xc8\v2.36\pic\sources\c99\common\awmod.c"
  1831 ;; Parameters:    Size  Location     Type
  1832 ;;  divisor         2    0[COMMON] int 
  1833 ;;  dividend        2    2[COMMON] int 
  1834 ;; Auto vars:     Size  Location     Type
  1835 ;;  sign            1    6[COMMON] unsigned char 
  1836 ;;  counter         1    5[COMMON] unsigned char 
  1837 ;; Return value:  Size  Location     Type
  1838 ;;                  2    0[COMMON] int 
  1839 ;; Registers used:
  1840 ;;		wreg, status,2, status,0
  1841 ;; Tracked objects:
  1842 ;;		On entry : 0/0
  1843 ;;		On exit  : 0/0
  1844 ;;		Unchanged: 0/0
  1845 ;; Data sizes:     COMMON   BANK0   BANK1   BANK2   BANK3   BANK4   BANK5   BANK6   BANK7   BANK8   BANK9  BANK10  BANK1
      +1  BANK12
  1846 ;;      Params:         4       0       0       0       0       0       0       0       0       0       0       0       
      +0       0
  1847 ;;      Locals:         2       0       0       0       0       0       0       0       0       0       0       0       
      +0       0
  1848 ;;      Temps:          1       0       0       0       0       0       0       0       0       0       0       0       
      +0       0
  1849 ;;      Totals:         7       0       0       0       0       0       0       0       0       0       0       0       
      +0       0
  1850 ;;Total ram usage:        7 bytes
  1851 ;; Hardware stack levels used: 1
  1852 ;; This function calls:
  1853 ;;		Nothing
  1854 ;; This function is called by:
  1855 ;;		_main
  1856 ;; This function uses a non-reentrant model
  1857 ;;
  1858                           
  1859  065A                     ___awmod:	
  1860                           ;psect for function ___awmod
  1861                           
  1862  065A                     l2449:	
  1863                           ;incstack = 0
  1864                           ; Regs used in ___awmod: [wreg+status,2+status,0]
  1865                           
  1866  065A  01F6               	clrf	___awmod@sign
  1867  065B                     l2451:
  1868  065B  1FF3               	btfss	___awmod@dividend+1,7
  1869  065C  2E5E               	goto	u871
  1870  065D  2E5F               	goto	u870
  1871  065E                     u871:
  1872  065E  2E66               	goto	l2457
  1873  065F                     u870:
  1874  065F                     l2453:
  1875  065F  09F2               	comf	___awmod@dividend,f
  1876  0660  09F3               	comf	___awmod@dividend+1,f
  1877  0661  0AF2               	incf	___awmod@dividend,f
  1878  0662  1903               	skipnz
  1879  0663  0AF3               	incf	___awmod@dividend+1,f
  1880  0664                     l2455:
  1881  0664  01F6               	clrf	___awmod@sign
  1882  0665  0AF6               	incf	___awmod@sign,f
  1883  0666                     l2457:
  1884  0666  1FF1               	btfss	___awmod@divisor+1,7
  1885  0667  2E69               	goto	u881
  1886  0668  2E6A               	goto	u880
  1887  0669                     u881:
  1888  0669  2E6F               	goto	l2461
  1889  066A                     u880:
  1890  066A                     l2459:
  1891  066A  09F0               	comf	___awmod@divisor,f
  1892  066B  09F1               	comf	___awmod@divisor+1,f
  1893  066C  0AF0               	incf	___awmod@divisor,f
  1894  066D  1903               	skipnz
  1895  066E  0AF1               	incf	___awmod@divisor+1,f
  1896  066F                     l2461:
  1897  066F  0870               	movf	___awmod@divisor,w
  1898  0670  0471               	iorwf	___awmod@divisor+1,w
  1899  0671  1903               	btfsc	3,2
  1900  0672  2E74               	goto	u891
  1901  0673  2E75               	goto	u890
  1902  0674                     u891:
  1903  0674  2E9E               	goto	l2479
  1904  0675                     u890:
  1905  0675                     l2463:
  1906  0675  01F5               	clrf	___awmod@counter
  1907  0676  0AF5               	incf	___awmod@counter,f
  1908  0677  2E81               	goto	l2469
  1909  0678                     l2465:
  1910  0678  3001               	movlw	1
  1911  0679                     u905:
  1912  0679  35F0               	lslf	___awmod@divisor,f
  1913  067A  0DF1               	rlf	___awmod@divisor+1,f
  1914  067B  0B89               	decfsz	9,f
  1915  067C  2E79               	goto	u905
  1916  067D                     l2467:
  1917  067D  3001               	movlw	1
  1918  067E  00F4               	movwf	??___awmod
  1919  067F  0874               	movf	??___awmod,w
  1920  0680  07F5               	addwf	___awmod@counter,f
  1921  0681                     l2469:
  1922  0681  1FF1               	btfss	___awmod@divisor+1,7
  1923  0682  2E84               	goto	u911
  1924  0683  2E85               	goto	u910
  1925  0684                     u911:
  1926  0684  2E78               	goto	l2465
  1927  0685                     u910:
  1928  0685                     l2471:
  1929  0685  0871               	movf	___awmod@divisor+1,w
  1930  0686  0273               	subwf	___awmod@dividend+1,w
  1931  0687  1D03               	skipz
  1932  0688  2E8B               	goto	u925
  1933  0689  0870               	movf	___awmod@divisor,w
  1934  068A  0272               	subwf	___awmod@dividend,w
  1935  068B                     u925:
  1936  068B  1C03               	skipc
  1937  068C  2E8E               	goto	u921
  1938  068D  2E8F               	goto	u920
  1939  068E                     u921:
  1940  068E  2E93               	goto	l2475
  1941  068F                     u920:
  1942  068F                     l2473:
  1943  068F  0870               	movf	___awmod@divisor,w
  1944  0690  02F2               	subwf	___awmod@dividend,f
  1945  0691  0871               	movf	___awmod@divisor+1,w
  1946  0692  3BF3               	subwfb	___awmod@dividend+1,f
  1947  0693                     l2475:
  1948  0693  3001               	movlw	1
  1949  0694                     u935:
  1950  0694  36F1               	lsrf	___awmod@divisor+1,f
  1951  0695  0CF0               	rrf	___awmod@divisor,f
  1952  0696  0B89               	decfsz	9,f
  1953  0697  2E94               	goto	u935
  1954  0698                     l2477:
  1955  0698  3001               	movlw	1
  1956  0699  02F5               	subwf	___awmod@counter,f
  1957  069A  1D03               	btfss	3,2
  1958  069B  2E9D               	goto	u941
  1959  069C  2E9E               	goto	u940
  1960  069D                     u941:
  1961  069D  2E85               	goto	l2471
  1962  069E                     u940:
  1963  069E                     l2479:
  1964  069E  0876               	movf	___awmod@sign,w
  1965  069F  1903               	btfsc	3,2
  1966  06A0  2EA2               	goto	u951
  1967  06A1  2EA3               	goto	u950
  1968  06A2                     u951:
  1969  06A2  2EA8               	goto	l2483
  1970  06A3                     u950:
  1971  06A3                     l2481:
  1972  06A3  09F2               	comf	___awmod@dividend,f
  1973  06A4  09F3               	comf	___awmod@dividend+1,f
  1974  06A5  0AF2               	incf	___awmod@dividend,f
  1975  06A6  1903               	skipnz
  1976  06A7  0AF3               	incf	___awmod@dividend+1,f
  1977  06A8                     l2483:
  1978  06A8  0873               	movf	___awmod@dividend+1,w
  1979  06A9  00F1               	movwf	?___awmod+1
  1980  06AA  0872               	movf	___awmod@dividend,w
  1981  06AB  00F0               	movwf	?___awmod
  1982  06AC                     l859:
  1983  06AC  0008               	return
  1984  06AD                     __end_of___awmod:
  1985                           
  1986                           	psect	text2
  1987  0702                     __ptext2:	
  1988 ;; *************** function ___awdiv *****************
  1989 ;; Defined at:
  1990 ;;		line 5 in file "C:\Program Files\Microchip\xc8\v2.36\pic\sources\c99\common\awdiv.c"
  1991 ;; Parameters:    Size  Location     Type
  1992 ;;  divisor         2    0[COMMON] int 
  1993 ;;  dividend        2    2[COMMON] int 
  1994 ;; Auto vars:     Size  Location     Type
  1995 ;;  quotient        2    7[COMMON] int 
  1996 ;;  sign            1    6[COMMON] unsigned char 
  1997 ;;  counter         1    5[COMMON] unsigned char 
  1998 ;; Return value:  Size  Location     Type
  1999 ;;                  2    0[COMMON] int 
  2000 ;; Registers used:
  2001 ;;		wreg, status,2, status,0
  2002 ;; Tracked objects:
  2003 ;;		On entry : 0/0
  2004 ;;		On exit  : 0/0
  2005 ;;		Unchanged: 0/0
  2006 ;; Data sizes:     COMMON   BANK0   BANK1   BANK2   BANK3   BANK4   BANK5   BANK6   BANK7   BANK8   BANK9  BANK10  BANK1
      +1  BANK12
  2007 ;;      Params:         4       0       0       0       0       0       0       0       0       0       0       0       
      +0       0
  2008 ;;      Locals:         4       0       0       0       0       0       0       0       0       0       0       0       
      +0       0
  2009 ;;      Temps:          1       0       0       0       0       0       0       0       0       0       0       0       
      +0       0
  2010 ;;      Totals:         9       0       0       0       0       0       0       0       0       0       0       0       
      +0       0
  2011 ;;Total ram usage:        9 bytes
  2012 ;; Hardware stack levels used: 1
  2013 ;; This function calls:
  2014 ;;		Nothing
  2015 ;; This function is called by:
  2016 ;;		_main
  2017 ;; This function uses a non-reentrant model
  2018 ;;
  2019                           
  2020  0702                     ___awdiv:	
  2021                           ;psect for function ___awdiv
  2022                           
  2023  0702                     l2405:	
  2024                           ;incstack = 0
  2025                           ; Regs used in ___awdiv: [wreg+status,2+status,0]
  2026                           
  2027  0702  01F6               	clrf	___awdiv@sign
  2028  0703                     l2407:
  2029  0703  1FF1               	btfss	___awdiv@divisor+1,7
  2030  0704  2F06               	goto	u771
  2031  0705  2F07               	goto	u770
  2032  0706                     u771:
  2033  0706  2F0E               	goto	l2413
  2034  0707                     u770:
  2035  0707                     l2409:
  2036  0707  09F0               	comf	___awdiv@divisor,f
  2037  0708  09F1               	comf	___awdiv@divisor+1,f
  2038  0709  0AF0               	incf	___awdiv@divisor,f
  2039  070A  1903               	skipnz
  2040  070B  0AF1               	incf	___awdiv@divisor+1,f
  2041  070C                     l2411:
  2042  070C  01F6               	clrf	___awdiv@sign
  2043  070D  0AF6               	incf	___awdiv@sign,f
  2044  070E                     l2413:
  2045  070E  1FF3               	btfss	___awdiv@dividend+1,7
  2046  070F  2F11               	goto	u781
  2047  0710  2F12               	goto	u780
  2048  0711                     u781:
  2049  0711  2F1B               	goto	l2419
  2050  0712                     u780:
  2051  0712                     l2415:
  2052  0712  09F2               	comf	___awdiv@dividend,f
  2053  0713  09F3               	comf	___awdiv@dividend+1,f
  2054  0714  0AF2               	incf	___awdiv@dividend,f
  2055  0715  1903               	skipnz
  2056  0716  0AF3               	incf	___awdiv@dividend+1,f
  2057  0717                     l2417:
  2058  0717  3001               	movlw	1
  2059  0718  00F4               	movwf	??___awdiv
  2060  0719  0874               	movf	??___awdiv,w
  2061  071A  06F6               	xorwf	___awdiv@sign,f
  2062  071B                     l2419:
  2063  071B  01F7               	clrf	___awdiv@quotient
  2064  071C  01F8               	clrf	___awdiv@quotient+1
  2065  071D                     l2421:
  2066  071D  0870               	movf	___awdiv@divisor,w
  2067  071E  0471               	iorwf	___awdiv@divisor+1,w
  2068  071F  1903               	btfsc	3,2
  2069  0720  2F22               	goto	u791
  2070  0721  2F23               	goto	u790
  2071  0722                     u791:
  2072  0722  2F52               	goto	l2441
  2073  0723                     u790:
  2074  0723                     l2423:
  2075  0723  01F5               	clrf	___awdiv@counter
  2076  0724  0AF5               	incf	___awdiv@counter,f
  2077  0725  2F2F               	goto	l2429
  2078  0726                     l2425:
  2079  0726  3001               	movlw	1
  2080  0727                     u805:
  2081  0727  35F0               	lslf	___awdiv@divisor,f
  2082  0728  0DF1               	rlf	___awdiv@divisor+1,f
  2083  0729  0B89               	decfsz	9,f
  2084  072A  2F27               	goto	u805
  2085  072B                     l2427:
  2086  072B  3001               	movlw	1
  2087  072C  00F4               	movwf	??___awdiv
  2088  072D  0874               	movf	??___awdiv,w
  2089  072E  07F5               	addwf	___awdiv@counter,f
  2090  072F                     l2429:
  2091  072F  1FF1               	btfss	___awdiv@divisor+1,7
  2092  0730  2F32               	goto	u811
  2093  0731  2F33               	goto	u810
  2094  0732                     u811:
  2095  0732  2F26               	goto	l2425
  2096  0733                     u810:
  2097  0733                     l2431:
  2098  0733  3001               	movlw	1
  2099  0734                     u825:
  2100  0734  35F7               	lslf	___awdiv@quotient,f
  2101  0735  0DF8               	rlf	___awdiv@quotient+1,f
  2102  0736  0B89               	decfsz	9,f
  2103  0737  2F34               	goto	u825
  2104  0738  0871               	movf	___awdiv@divisor+1,w
  2105  0739  0273               	subwf	___awdiv@dividend+1,w
  2106  073A  1D03               	skipz
  2107  073B  2F3E               	goto	u835
  2108  073C  0870               	movf	___awdiv@divisor,w
  2109  073D  0272               	subwf	___awdiv@dividend,w
  2110  073E                     u835:
  2111  073E  1C03               	skipc
  2112  073F  2F41               	goto	u831
  2113  0740  2F42               	goto	u830
  2114  0741                     u831:
  2115  0741  2F47               	goto	l2437
  2116  0742                     u830:
  2117  0742                     l2433:
  2118  0742  0870               	movf	___awdiv@divisor,w
  2119  0743  02F2               	subwf	___awdiv@dividend,f
  2120  0744  0871               	movf	___awdiv@divisor+1,w
  2121  0745  3BF3               	subwfb	___awdiv@dividend+1,f
  2122  0746                     l2435:
  2123  0746  1477               	bsf	___awdiv@quotient,0
  2124  0747                     l2437:
  2125  0747  3001               	movlw	1
  2126  0748                     u845:
  2127  0748  36F1               	lsrf	___awdiv@divisor+1,f
  2128  0749  0CF0               	rrf	___awdiv@divisor,f
  2129  074A  0B89               	decfsz	9,f
  2130  074B  2F48               	goto	u845
  2131  074C                     l2439:
  2132  074C  3001               	movlw	1
  2133  074D  02F5               	subwf	___awdiv@counter,f
  2134  074E  1D03               	btfss	3,2
  2135  074F  2F51               	goto	u851
  2136  0750  2F52               	goto	u850
  2137  0751                     u851:
  2138  0751  2F33               	goto	l2431
  2139  0752                     u850:
  2140  0752                     l2441:
  2141  0752  0876               	movf	___awdiv@sign,w
  2142  0753  1903               	btfsc	3,2
  2143  0754  2F56               	goto	u861
  2144  0755  2F57               	goto	u860
  2145  0756                     u861:
  2146  0756  2F5C               	goto	l2445
  2147  0757                     u860:
  2148  0757                     l2443:
  2149  0757  09F7               	comf	___awdiv@quotient,f
  2150  0758  09F8               	comf	___awdiv@quotient+1,f
  2151  0759  0AF7               	incf	___awdiv@quotient,f
  2152  075A  1903               	skipnz
  2153  075B  0AF8               	incf	___awdiv@quotient+1,f
  2154  075C                     l2445:
  2155  075C  0878               	movf	___awdiv@quotient+1,w
  2156  075D  00F1               	movwf	?___awdiv+1
  2157  075E  0877               	movf	___awdiv@quotient,w
  2158  075F  00F0               	movwf	?___awdiv
  2159  0760                     l846:
  2160  0760  0008               	return
  2161  0761                     __end_of___awdiv:
  2162                           
  2163                           	psect	text3
  2164  0425                     __ptext3:	
  2165 ;; *************** function _SYSTEM_Initialize *****************
  2166 ;; Defined at:
  2167 ;;		line 4 in file "mcc_generated_files/mcc.c"
  2168 ;; Parameters:    Size  Location     Type
  2169 ;;		None
  2170 ;; Auto vars:     Size  Location     Type
  2171 ;;		None
  2172 ;; Return value:  Size  Location     Type
  2173 ;;                  1    wreg      void 
  2174 ;; Registers used:
  2175 ;;		wreg, status,2, status,0, pclath, cstack
  2176 ;; Tracked objects:
  2177 ;;		On entry : 0/0
  2178 ;;		On exit  : 0/0
  2179 ;;		Unchanged: 0/0
  2180 ;; Data sizes:     COMMON   BANK0   BANK1   BANK2   BANK3   BANK4   BANK5   BANK6   BANK7   BANK8   BANK9  BANK10  BANK1
      +1  BANK12
  2181 ;;      Params:         0       0       0       0       0       0       0       0       0       0       0       0       
      +0       0
  2182 ;;      Locals:         0       0       0       0       0       0       0       0       0       0       0       0       
      +0       0
  2183 ;;      Temps:          0       0       0       0       0       0       0       0       0       0       0       0       
      +0       0
  2184 ;;      Totals:         0       0       0       0       0       0       0       0       0       0       0       0       
      +0       0
  2185 ;;Total ram usage:        0 bytes
  2186 ;; Hardware stack levels used: 1
  2187 ;; Hardware stack levels required when called: 1
  2188 ;; This function calls:
  2189 ;;		_I2C_Initialize
  2190 ;;		_OSCILLATOR_Initialize
  2191 ;;		_PIN_MANAGER_Initialize
  2192 ;;		_WDT_Initialize
  2193 ;; This function is called by:
  2194 ;;		_main
  2195 ;; This function uses a non-reentrant model
  2196 ;;
  2197                           
  2198  0425                     _SYSTEM_Initialize:	
  2199                           ;psect for function _SYSTEM_Initialize
  2200                           
  2201  0425                     l2403:	
  2202                           ;incstack = 0
  2203                           ; Regs used in _SYSTEM_Initialize: [wreg+status,2+status,0+pclath+cstack]
  2204                           
  2205                           
  2206                           ;mcc_generated_files/mcc.c: 7:     I2C_Initialize();
  2207  0425  3183  23DC  3184   	fcall	_I2C_Initialize
  2208                           
  2209                           ;mcc_generated_files/mcc.c: 8:     PIN_MANAGER_Initialize();
  2210  0428  3184  24E7  3184   	fcall	_PIN_MANAGER_Initialize
  2211                           
  2212                           ;mcc_generated_files/mcc.c: 9:     OSCILLATOR_Initialize();
  2213  042B  3183  23E5  3184   	fcall	_OSCILLATOR_Initialize
  2214                           
  2215                           ;mcc_generated_files/mcc.c: 10:     WDT_Initialize();
  2216  042E  3183  2372  3184   	fcall	_WDT_Initialize
  2217  0431                     l504:
  2218  0431  0008               	return
  2219  0432                     __end_of_SYSTEM_Initialize:
  2220                           
  2221                           	psect	text4
  2222  0372                     __ptext4:	
  2223 ;; *************** function _WDT_Initialize *****************
  2224 ;; Defined at:
  2225 ;;		line 27 in file "mcc_generated_files/mcc.c"
  2226 ;; Parameters:    Size  Location     Type
  2227 ;;		None
  2228 ;; Auto vars:     Size  Location     Type
  2229 ;;		None
  2230 ;; Return value:  Size  Location     Type
  2231 ;;                  1    wreg      void 
  2232 ;; Registers used:
  2233 ;;		wreg
  2234 ;; Tracked objects:
  2235 ;;		On entry : 0/0
  2236 ;;		On exit  : 0/0
  2237 ;;		Unchanged: 0/0
  2238 ;; Data sizes:     COMMON   BANK0   BANK1   BANK2   BANK3   BANK4   BANK5   BANK6   BANK7   BANK8   BANK9  BANK10  BANK1
      +1  BANK12
  2239 ;;      Params:         0       0       0       0       0       0       0       0       0       0       0       0       
      +0       0
  2240 ;;      Locals:         0       0       0       0       0       0       0       0       0       0       0       0       
      +0       0
  2241 ;;      Temps:          0       0       0       0       0       0       0       0       0       0       0       0       
      +0       0
  2242 ;;      Totals:         0       0       0       0       0       0       0       0       0       0       0       0       
      +0       0
  2243 ;;Total ram usage:        0 bytes
  2244 ;; Hardware stack levels used: 1
  2245 ;; This function calls:
  2246 ;;		Nothing
  2247 ;; This function is called by:
  2248 ;;		_SYSTEM_Initialize
  2249 ;; This function uses a non-reentrant model
  2250 ;;
  2251                           
  2252  0372                     _WDT_Initialize:	
  2253                           ;psect for function _WDT_Initialize
  2254                           
  2255  0372                     l2375:	
  2256                           ;incstack = 0
  2257                           ; Regs used in _WDT_Initialize: [wreg]
  2258                           
  2259                           
  2260                           ;mcc_generated_files/mcc.c: 30:     WDTCON = 0x16;
  2261  0372  3016               	movlw	22
  2262  0373  0021               	movlb	1	; select bank1
  2263  0374  0097               	movwf	23	;volatile
  2264  0375                     l513:
  2265  0375  0008               	return
  2266  0376                     __end_of_WDT_Initialize:
  2267                           
  2268                           	psect	text5
  2269  04E7                     __ptext5:	
  2270 ;; *************** function _PIN_MANAGER_Initialize *****************
  2271 ;; Defined at:
  2272 ;;		line 3 in file "mcc_generated_files/pin_manager.c"
  2273 ;; Parameters:    Size  Location     Type
  2274 ;;		None
  2275 ;; Auto vars:     Size  Location     Type
  2276 ;;		None
  2277 ;; Return value:  Size  Location     Type
  2278 ;;                  1    wreg      void 
  2279 ;; Registers used:
  2280 ;;		wreg, status,2
  2281 ;; Tracked objects:
  2282 ;;		On entry : 0/0
  2283 ;;		On exit  : 0/0
  2284 ;;		Unchanged: 0/0
  2285 ;; Data sizes:     COMMON   BANK0   BANK1   BANK2   BANK3   BANK4   BANK5   BANK6   BANK7   BANK8   BANK9  BANK10  BANK1
      +1  BANK12
  2286 ;;      Params:         0       0       0       0       0       0       0       0       0       0       0       0       
      +0       0
  2287 ;;      Locals:         0       0       0       0       0       0       0       0       0       0       0       0       
      +0       0
  2288 ;;      Temps:          0       0       0       0       0       0       0       0       0       0       0       0       
      +0       0
  2289 ;;      Totals:         0       0       0       0       0       0       0       0       0       0       0       0       
      +0       0
  2290 ;;Total ram usage:        0 bytes
  2291 ;; Hardware stack levels used: 1
  2292 ;; This function calls:
  2293 ;;		Nothing
  2294 ;; This function is called by:
  2295 ;;		_SYSTEM_Initialize
  2296 ;; This function uses a non-reentrant model
  2297 ;;
  2298                           
  2299  04E7                     _PIN_MANAGER_Initialize:	
  2300                           ;psect for function _PIN_MANAGER_Initialize
  2301                           
  2302  04E7                     l2273:	
  2303                           ;incstack = 0
  2304                           ; Regs used in _PIN_MANAGER_Initialize: [wreg+status,2]
  2305                           
  2306                           
  2307                           ;mcc_generated_files/pin_manager.c: 8:     LATE = 0x00;
  2308  04E7  0022               	movlb	2	; select bank2
  2309  04E8  0190               	clrf	16	;volatile
  2310                           
  2311                           ;mcc_generated_files/pin_manager.c: 9:     LATD = 0x00;
  2312  04E9  018F               	clrf	15	;volatile
  2313                           
  2314                           ;mcc_generated_files/pin_manager.c: 10:     LATA = 0x00;
  2315  04EA  018C               	clrf	12	;volatile
  2316                           
  2317                           ;mcc_generated_files/pin_manager.c: 11:     LATB = 0x00;
  2318  04EB  018D               	clrf	13	;volatile
  2319                           
  2320                           ;mcc_generated_files/pin_manager.c: 12:     LATC = 0x00;
  2321  04EC  018E               	clrf	14	;volatile
  2322  04ED                     l2275:
  2323                           
  2324                           ;mcc_generated_files/pin_manager.c: 17:     TRISE = 0x0F;
  2325  04ED  300F               	movlw	15
  2326  04EE  0021               	movlb	1	; select bank1
  2327  04EF  0090               	movwf	16	;volatile
  2328  04F0                     l2277:
  2329                           
  2330                           ;mcc_generated_files/pin_manager.c: 18:     TRISA = 0xFF;
  2331  04F0  30FF               	movlw	255
  2332  04F1  008C               	movwf	12	;volatile
  2333  04F2                     l2279:
  2334                           
  2335                           ;mcc_generated_files/pin_manager.c: 19:     TRISB = 0xFE;
  2336  04F2  30FE               	movlw	254
  2337  04F3  008D               	movwf	13	;volatile
  2338  04F4                     l2281:
  2339                           
  2340                           ;mcc_generated_files/pin_manager.c: 20:     TRISC = 0xFF;
  2341  04F4  30FF               	movlw	255
  2342  04F5  008E               	movwf	14	;volatile
  2343  04F6                     l2283:
  2344                           
  2345                           ;mcc_generated_files/pin_manager.c: 21:     TRISD = 0xFF;
  2346  04F6  30FF               	movlw	255
  2347  04F7  008F               	movwf	15	;volatile
  2348  04F8                     l2285:
  2349                           
  2350                           ;mcc_generated_files/pin_manager.c: 26:     ANSELD = 0xFF;
  2351  04F8  30FF               	movlw	255
  2352  04F9  0023               	movlb	3	; select bank3
  2353  04FA  008F               	movwf	15	;volatile
  2354  04FB                     l2287:
  2355                           
  2356                           ;mcc_generated_files/pin_manager.c: 27:     ANSELB = 0x3F;
  2357  04FB  303F               	movlw	63
  2358  04FC  008D               	movwf	13	;volatile
  2359  04FD                     l2289:
  2360                           
  2361                           ;mcc_generated_files/pin_manager.c: 28:     ANSELE = 0x07;
  2362  04FD  3007               	movlw	7
  2363  04FE  0090               	movwf	16	;volatile
  2364  04FF                     l2291:
  2365                           
  2366                           ;mcc_generated_files/pin_manager.c: 29:     ANSELA = 0x3F;
  2367  04FF  303F               	movlw	63
  2368  0500  008C               	movwf	12	;volatile
  2369  0501                     l2293:
  2370                           
  2371                           ;mcc_generated_files/pin_manager.c: 34:     WPUE = 0x00;
  2372  0501  0024               	movlb	4	; select bank4
  2373  0502  0190               	clrf	16	;volatile
  2374  0503                     l2295:
  2375                           
  2376                           ;mcc_generated_files/pin_manager.c: 35:     WPUB = 0x00;
  2377  0503  018D               	clrf	13	;volatile
  2378  0504                     l2297:
  2379                           
  2380                           ;mcc_generated_files/pin_manager.c: 36:     OPTION_REGbits.nWPUEN = 1;
  2381  0504  0021               	movlb	1	; select bank1
  2382  0505  1795               	bsf	21,7	;volatile
  2383  0506                     l2299:
  2384                           
  2385                           ;mcc_generated_files/pin_manager.c: 41:     APFCON = 0x00;
  2386  0506  0022               	movlb	2	; select bank2
  2387  0507  019D               	clrf	29	;volatile
  2388  0508                     l39:
  2389  0508  0008               	return
  2390  0509                     __end_of_PIN_MANAGER_Initialize:
  2391                           
  2392                           	psect	text6
  2393  03E5                     __ptext6:	
  2394 ;; *************** function _OSCILLATOR_Initialize *****************
  2395 ;; Defined at:
  2396 ;;		line 13 in file "mcc_generated_files/mcc.c"
  2397 ;; Parameters:    Size  Location     Type
  2398 ;;		None
  2399 ;; Auto vars:     Size  Location     Type
  2400 ;;		None
  2401 ;; Return value:  Size  Location     Type
  2402 ;;                  1    wreg      void 
  2403 ;; Registers used:
  2404 ;;		wreg, status,2
  2405 ;; Tracked objects:
  2406 ;;		On entry : 0/0
  2407 ;;		On exit  : 0/0
  2408 ;;		Unchanged: 0/0
  2409 ;; Data sizes:     COMMON   BANK0   BANK1   BANK2   BANK3   BANK4   BANK5   BANK6   BANK7   BANK8   BANK9  BANK10  BANK1
      +1  BANK12
  2410 ;;      Params:         0       0       0       0       0       0       0       0       0       0       0       0       
      +0       0
  2411 ;;      Locals:         0       0       0       0       0       0       0       0       0       0       0       0       
      +0       0
  2412 ;;      Temps:          0       0       0       0       0       0       0       0       0       0       0       0       
      +0       0
  2413 ;;      Totals:         0       0       0       0       0       0       0       0       0       0       0       0       
      +0       0
  2414 ;;Total ram usage:        0 bytes
  2415 ;; Hardware stack levels used: 1
  2416 ;; This function calls:
  2417 ;;		Nothing
  2418 ;; This function is called by:
  2419 ;;		_SYSTEM_Initialize
  2420 ;; This function uses a non-reentrant model
  2421 ;;
  2422                           
  2423  03E5                     _OSCILLATOR_Initialize:	
  2424                           ;psect for function _OSCILLATOR_Initialize
  2425                           
  2426  03E5                     l2369:	
  2427                           ;incstack = 0
  2428                           ; Regs used in _OSCILLATOR_Initialize: [wreg+status,2]
  2429                           
  2430                           
  2431                           ;mcc_generated_files/mcc.c: 16:     OSCCON = 0x70;
  2432  03E5  3070               	movlw	112
  2433  03E6  0021               	movlb	1	; select bank1
  2434  03E7  0099               	movwf	25	;volatile
  2435  03E8                     l2371:
  2436                           
  2437                           ;mcc_generated_files/mcc.c: 18:     OSCTUNE = 0x00;
  2438  03E8  0198               	clrf	24	;volatile
  2439  03E9                     l2373:
  2440                           
  2441                           ;mcc_generated_files/mcc.c: 20:     BORCON = 0x00;
  2442  03E9  0022               	movlb	2	; select bank2
  2443  03EA  0196               	clrf	22	;volatile
  2444  03EB                     l507:	
  2445                           ;mcc_generated_files/mcc.c: 23:     {;mcc_generated_files/mcc.c: 24:     }
  2446                           
  2447                           
  2448                           ;mcc_generated_files/mcc.c: 22:     while(PLLR == 0)
  2449  03EB  0021               	movlb	1	; select bank1
  2450  03EC  1F1A               	btfss	26,6	;volatile
  2451  03ED  2BEF               	goto	u721
  2452  03EE  2BF0               	goto	u720
  2453  03EF                     u721:
  2454  03EF  2BEB               	goto	l507
  2455  03F0                     u720:
  2456  03F0                     l510:
  2457  03F0  0008               	return
  2458  03F1                     __end_of_OSCILLATOR_Initialize:
  2459                           
  2460                           	psect	text7
  2461  03DC                     __ptext7:	
  2462 ;; *************** function _I2C_Initialize *****************
  2463 ;; Defined at:
  2464 ;;		line 121 in file "mcc_generated_files/i2c_master.c"
  2465 ;; Parameters:    Size  Location     Type
  2466 ;;		None
  2467 ;; Auto vars:     Size  Location     Type
  2468 ;;		None
  2469 ;; Return value:  Size  Location     Type
  2470 ;;                  1    wreg      void 
  2471 ;; Registers used:
  2472 ;;		wreg, status,2
  2473 ;; Tracked objects:
  2474 ;;		On entry : 0/0
  2475 ;;		On exit  : 0/0
  2476 ;;		Unchanged: 0/0
  2477 ;; Data sizes:     COMMON   BANK0   BANK1   BANK2   BANK3   BANK4   BANK5   BANK6   BANK7   BANK8   BANK9  BANK10  BANK1
      +1  BANK12
  2478 ;;      Params:         0       0       0       0       0       0       0       0       0       0       0       0       
      +0       0
  2479 ;;      Locals:         0       0       0       0       0       0       0       0       0       0       0       0       
      +0       0
  2480 ;;      Temps:          0       0       0       0       0       0       0       0       0       0       0       0       
      +0       0
  2481 ;;      Totals:         0       0       0       0       0       0       0       0       0       0       0       0       
      +0       0
  2482 ;;Total ram usage:        0 bytes
  2483 ;; Hardware stack levels used: 1
  2484 ;; This function calls:
  2485 ;;		Nothing
  2486 ;; This function is called by:
  2487 ;;		_SYSTEM_Initialize
  2488 ;; This function uses a non-reentrant model
  2489 ;;
  2490                           
  2491  03DC                     _I2C_Initialize:	
  2492                           ;psect for function _I2C_Initialize
  2493                           
  2494  03DC                     l2301:	
  2495                           ;incstack = 0
  2496                           ; Regs used in _I2C_Initialize: [wreg+status,2]
  2497                           
  2498                           
  2499                           ;mcc_generated_files/i2c_master.c: 123:     SSPSTAT = 0x00;
  2500  03DC  0024               	movlb	4	; select bank4
  2501  03DD  0194               	clrf	20	;volatile
  2502  03DE                     l2303:
  2503                           
  2504                           ;mcc_generated_files/i2c_master.c: 124:     SSPCON1 = 0x08;
  2505  03DE  3008               	movlw	8
  2506  03DF  0095               	movwf	21	;volatile
  2507  03E0                     l2305:
  2508                           
  2509                           ;mcc_generated_files/i2c_master.c: 125:     SSPCON2 = 0x00;
  2510  03E0  0196               	clrf	22	;volatile
  2511                           
  2512                           ;mcc_generated_files/i2c_master.c: 126:     SSPADD = 0x4F;
  2513  03E1  304F               	movlw	79
  2514  03E2  0092               	movwf	18	;volatile
  2515  03E3                     l2307:
  2516                           
  2517                           ;mcc_generated_files/i2c_master.c: 127:     SSPCON1bits.SSPEN = 0;
  2518  03E3  1295               	bcf	21,5	;volatile
  2519  03E4                     l157:
  2520  03E4  0008               	return
  2521  03E5                     __end_of_I2C_Initialize:
  2522                           
  2523                           	psect	text8
  2524  0509                     __ptext8:	
  2525 ;; *************** function _I2C_Wr *****************
  2526 ;; Defined at:
  2527 ;;		line 755 in file "mcc_generated_files/i2c_master.c"
  2528 ;; Parameters:    Size  Location     Type
  2529 ;;  address         1    wreg     unsigned char 
  2530 ;;  data            1   10[COMMON] unsigned char 
  2531 ;; Auto vars:     Size  Location     Type
  2532 ;;  address         1   11[COMMON] unsigned char 
  2533 ;; Return value:  Size  Location     Type
  2534 ;;                  1    wreg      unsigned char 
  2535 ;; Registers used:
  2536 ;;		wreg, fsr0l, fsr0h, fsr1l, fsr1h, status,2, status,0, pclath, cstack
  2537 ;; Tracked objects:
  2538 ;;		On entry : 0/0
  2539 ;;		On exit  : 0/0
  2540 ;;		Unchanged: 0/0
  2541 ;; Data sizes:     COMMON   BANK0   BANK1   BANK2   BANK3   BANK4   BANK5   BANK6   BANK7   BANK8   BANK9  BANK10  BANK1
      +1  BANK12
  2542 ;;      Params:         1       0       0       0       0       0       0       0       0       0       0       0       
      +0       0
  2543 ;;      Locals:         1       0       0       0       0       0       0       0       0       0       0       0       
      +0       0
  2544 ;;      Temps:          0       0       0       0       0       0       0       0       0       0       0       0       
      +0       0
  2545 ;;      Totals:         2       0       0       0       0       0       0       0       0       0       0       0       
      +0       0
  2546 ;;Total ram usage:        2 bytes
  2547 ;; Hardware stack levels used: 1
  2548 ;; Hardware stack levels required when called: 8
  2549 ;; This function calls:
  2550 ;;		_I2C_Close
  2551 ;;		_I2C_MasterWrite
  2552 ;;		_I2C_Open
  2553 ;;		_I2C_SetAddressNackCallback
  2554 ;;		_I2C_SetBuffer
  2555 ;; This function is called by:
  2556 ;;		_main
  2557 ;; This function uses a non-reentrant model
  2558 ;;
  2559                           
  2560  0509                     _I2C_Wr:	
  2561                           ;psect for function _I2C_Wr
  2562                           
  2563                           
  2564                           ;incstack = 0
  2565                           ; Regs used in _I2C_Wr: [wreg-fsr1h+status,2+status,0+pclath+cstack]
  2566                           ;I2C_Wr@address stored from wreg
  2567  0509  00FB               	movwf	I2C_Wr@address
  2568  050A                     l2377:
  2569  050A                     l2379:	
  2570                           ;mcc_generated_files/i2c_master.c: 756:     while(!I2C_Open(address));
  2571                           
  2572  050A  087B               	movf	I2C_Wr@address,w
  2573  050B  3185  25DA  3185   	fcall	_I2C_Open
  2574  050E  3A00               	xorlw	0
  2575  050F  1903               	skipnz
  2576  0510  2D12               	goto	u731
  2577  0511  2D13               	goto	u730
  2578  0512                     u731:
  2579  0512  2D0A               	goto	l2379
  2580  0513                     u730:
  2581  0513                     l2381:
  2582                           
  2583                           ;mcc_generated_files/i2c_master.c: 757:     I2C_SetBuffer(&data,1);
  2584  0513  3001               	movlw	1
  2585  0514  00F0               	movwf	I2C_SetBuffer@bufferSize
  2586  0515  3000               	movlw	0
  2587  0516  00F1               	movwf	I2C_SetBuffer@bufferSize+1
  2588  0517  307A               	movlw	(low (I2C_Wr@data| 0))& (0+255)
  2589  0518  3184  2432  3185   	fcall	_I2C_SetBuffer
  2590  051B                     l2383:
  2591                           
  2592                           ;mcc_generated_files/i2c_master.c: 758:     I2C_SetAddressNackCallback(((void*)0),((void
      +                          *)0));
  2593  051B  3000               	movlw	0
  2594  051C  00F5               	movwf	I2C_SetAddressNackCallback@cb
  2595  051D  00F6               	movwf	I2C_SetAddressNackCallback@cb+1
  2596  051E  01F7               	clrf	I2C_SetAddressNackCallback@ptr
  2597  051F  3184  2418  3185   	fcall	_I2C_SetAddressNackCallback
  2598  0522                     l2385:
  2599                           
  2600                           ;mcc_generated_files/i2c_master.c: 759:     I2C_MasterWrite();
  2601  0522  3183  23AD  3185   	fcall	_I2C_MasterWrite
  2602  0525                     l2387:	
  2603                           ;mcc_generated_files/i2c_master.c: 760:     while(I2C_BUSY == I2C_Close());
  2604                           
  2605  0525  3184  248D  3185   	fcall	_I2C_Close
  2606  0528  3A01               	xorlw	1
  2607  0529  1903               	skipnz
  2608  052A  2D2C               	goto	u741
  2609  052B  2D2D               	goto	u740
  2610  052C                     u741:
  2611  052C  2D25               	goto	l2387
  2612  052D                     u740:
  2613  052D                     l474:
  2614  052D  0008               	return
  2615  052E                     __end_of_I2C_Wr:
  2616                           
  2617                           	psect	text9
  2618  0418                     __ptext9:	
  2619 ;; *************** function _I2C_SetAddressNackCallback *****************
  2620 ;; Defined at:
  2621 ;;		line 237 in file "mcc_generated_files/i2c_master.c"
  2622 ;; Parameters:    Size  Location     Type
  2623 ;;  cb              2    5[COMMON] PTR FTN(PTR void ,)enum 
  2624 ;;		 -> Absolute function(1), 
  2625 ;;  ptr             1    7[COMMON] PTR void 
  2626 ;;		 -> NULL(0), 
  2627 ;; Auto vars:     Size  Location     Type
  2628 ;;		None
  2629 ;; Return value:  Size  Location     Type
  2630 ;;                  1    wreg      void 
  2631 ;; Registers used:
  2632 ;;		wreg, fsr1l, fsr1h, status,2, status,0, pclath, cstack
  2633 ;; Tracked objects:
  2634 ;;		On entry : 0/0
  2635 ;;		On exit  : 0/0
  2636 ;;		Unchanged: 0/0
  2637 ;; Data sizes:     COMMON   BANK0   BANK1   BANK2   BANK3   BANK4   BANK5   BANK6   BANK7   BANK8   BANK9  BANK10  BANK1
      +1  BANK12
  2638 ;;      Params:         3       0       0       0       0       0       0       0       0       0       0       0       
      +0       0
  2639 ;;      Locals:         0       0       0       0       0       0       0       0       0       0       0       0       
      +0       0
  2640 ;;      Temps:          1       0       0       0       0       0       0       0       0       0       0       0       
      +0       0
  2641 ;;      Totals:         4       0       0       0       0       0       0       0       0       0       0       0       
      +0       0
  2642 ;;Total ram usage:        4 bytes
  2643 ;; Hardware stack levels used: 1
  2644 ;; Hardware stack levels required when called: 1
  2645 ;; This function calls:
  2646 ;;		_I2C_SetCallback
  2647 ;; This function is called by:
  2648 ;;		_I2C_Wr
  2649 ;;		_I2C_Read1ByteRegister
  2650 ;;		_I2C_Read2ByteRegister
  2651 ;;		_I2C_Write1ByteRegister
  2652 ;;		_I2C_Write2ByteRegister
  2653 ;;		_I2C_WriteNBytes
  2654 ;;		_I2C_ReadDataBlock
  2655 ;; This function uses a non-reentrant model
  2656 ;;
  2657                           
  2658  0418                     _I2C_SetAddressNackCallback:	
  2659                           ;psect for function _I2C_SetAddressNackCallback
  2660                           
  2661  0418                     l2367:	
  2662                           ;incstack = 0
  2663                           ; Regs used in _I2C_SetAddressNackCallback: [wreg+fsr1l+fsr1h+status,2+status,0+pclath+c
      +                          stack]
  2664                           
  2665                           
  2666                           ;mcc_generated_files/i2c_master.c: 237: void I2C_SetAddressNackCallback(i2c_callback_t c
      +                          b, void *ptr);mcc_generated_files/i2c_master.c: 238: {;mcc_generated_files/i2c_master.c:
      +                           239:     I2C_SetCallback(I2C_ADDR_NACK, cb, ptr);
  2667  0418  0876               	movf	I2C_SetAddressNackCallback@cb+1,w
  2668  0419  00F1               	movwf	I2C_SetCallback@cb+1
  2669  041A  0875               	movf	I2C_SetAddressNackCallback@cb,w
  2670  041B  00F0               	movwf	I2C_SetCallback@cb
  2671  041C  0877               	movf	I2C_SetAddressNackCallback@ptr,w
  2672  041D  00F8               	movwf	??_I2C_SetAddressNackCallback
  2673  041E  0878               	movf	??_I2C_SetAddressNackCallback,w
  2674  041F  00F2               	movwf	I2C_SetCallback@ptr
  2675  0420  3002               	movlw	2
  2676  0421  3185  252E  3184   	fcall	_I2C_SetCallback
  2677  0424                     l193:
  2678  0424  0008               	return
  2679  0425                     __end_of_I2C_SetAddressNackCallback:
  2680                           
  2681                           	psect	text10
  2682  03AD                     __ptext10:	
  2683 ;; *************** function _I2C_MasterWrite *****************
  2684 ;; Defined at:
  2685 ;;		line 205 in file "mcc_generated_files/i2c_master.c"
  2686 ;; Parameters:    Size  Location     Type
  2687 ;;		None
  2688 ;; Auto vars:     Size  Location     Type
  2689 ;;		None
  2690 ;; Return value:  Size  Location     Type
  2691 ;;                  1    wreg      enum E355
  2692 ;; Registers used:
  2693 ;;		wreg, fsr0l, fsr0h, fsr1l, fsr1h, status,2, status,0, pclath, cstack
  2694 ;; Tracked objects:
  2695 ;;		On entry : 0/0
  2696 ;;		On exit  : 0/0
  2697 ;;		Unchanged: 0/0
  2698 ;; Data sizes:     COMMON   BANK0   BANK1   BANK2   BANK3   BANK4   BANK5   BANK6   BANK7   BANK8   BANK9  BANK10  BANK1
      +1  BANK12
  2699 ;;      Params:         0       0       0       0       0       0       0       0       0       0       0       0       
      +0       0
  2700 ;;      Locals:         0       0       0       0       0       0       0       0       0       0       0       0       
      +0       0
  2701 ;;      Temps:          0       0       0       0       0       0       0       0       0       0       0       0       
      +0       0
  2702 ;;      Totals:         0       0       0       0       0       0       0       0       0       0       0       0       
      +0       0
  2703 ;;Total ram usage:        0 bytes
  2704 ;; Hardware stack levels used: 1
  2705 ;; Hardware stack levels required when called: 7
  2706 ;; This function calls:
  2707 ;;		_I2C_MasterOperation
  2708 ;; This function is called by:
  2709 ;;		_I2C_Wr
  2710 ;;		_I2C_Read1ByteRegister
  2711 ;;		_I2C_Read2ByteRegister
  2712 ;;		_I2C_Write1ByteRegister
  2713 ;;		_I2C_Write2ByteRegister
  2714 ;;		_I2C_WriteNBytes
  2715 ;;		_I2C_ReadDataBlock
  2716 ;; This function uses a non-reentrant model
  2717 ;;
  2718                           
  2719  03AD                     _I2C_MasterWrite:	
  2720                           ;psect for function _I2C_MasterWrite
  2721                           
  2722  03AD                     l2363:	
  2723                           ;incstack = 0
  2724                           ; Regs used in _I2C_MasterWrite: [wreg-fsr1h+status,2+status,0+pclath+cstack]
  2725                           
  2726                           
  2727                           ;mcc_generated_files/i2c_master.c: 207:     return I2C_MasterOperation(0);;	Return value
      +                           of _I2C_MasterWrite is never used
  2728  03AD  3000               	movlw	0
  2729  03AE  3184  24A9  3183   	fcall	_I2C_MasterOperation
  2730  03B1                     l177:
  2731  03B1  0008               	return
  2732  03B2                     __end_of_I2C_MasterWrite:
  2733                           
  2734                           	psect	text11
  2735  04C7                     __ptext11:	
  2736 ;; *************** function _I2C_Rd *****************
  2737 ;; Defined at:
  2738 ;;		line 763 in file "mcc_generated_files/i2c_master.c"
  2739 ;; Parameters:    Size  Location     Type
  2740 ;;  address         1    wreg     unsigned char 
  2741 ;; Auto vars:     Size  Location     Type
  2742 ;;  address         1   10[COMMON] unsigned char 
  2743 ;;  returnValue     1   11[COMMON] unsigned char 
  2744 ;; Return value:  Size  Location     Type
  2745 ;;                  1    wreg      unsigned char 
  2746 ;; Registers used:
  2747 ;;		wreg, fsr0l, fsr0h, fsr1l, fsr1h, status,2, status,0, pclath, cstack
  2748 ;; Tracked objects:
  2749 ;;		On entry : 0/0
  2750 ;;		On exit  : 0/0
  2751 ;;		Unchanged: 0/0
  2752 ;; Data sizes:     COMMON   BANK0   BANK1   BANK2   BANK3   BANK4   BANK5   BANK6   BANK7   BANK8   BANK9  BANK10  BANK1
      +1  BANK12
  2753 ;;      Params:         0       0       0       0       0       0       0       0       0       0       0       0       
      +0       0
  2754 ;;      Locals:         2       0       0       0       0       0       0       0       0       0       0       0       
      +0       0
  2755 ;;      Temps:          0       0       0       0       0       0       0       0       0       0       0       0       
      +0       0
  2756 ;;      Totals:         2       0       0       0       0       0       0       0       0       0       0       0       
      +0       0
  2757 ;;Total ram usage:        2 bytes
  2758 ;; Hardware stack levels used: 1
  2759 ;; Hardware stack levels required when called: 8
  2760 ;; This function calls:
  2761 ;;		_I2C_Close
  2762 ;;		_I2C_MasterRead
  2763 ;;		_I2C_Open
  2764 ;;		_I2C_SetBuffer
  2765 ;; This function is called by:
  2766 ;;		_main
  2767 ;; This function uses a non-reentrant model
  2768 ;;
  2769                           
  2770  04C7                     _I2C_Rd:	
  2771                           ;psect for function _I2C_Rd
  2772                           
  2773                           
  2774                           ;incstack = 0
  2775                           ; Regs used in _I2C_Rd: [wreg-fsr1h+status,2+status,0+pclath+cstack]
  2776                           ;I2C_Rd@address stored from wreg
  2777  04C7  00FA               	movwf	I2C_Rd@address
  2778  04C8                     l2389:
  2779                           
  2780                           ;mcc_generated_files/i2c_master.c: 764:     uint8_t returnValue = 0x00;
  2781  04C8  01FB               	clrf	I2C_Rd@returnValue
  2782  04C9                     l2391:	
  2783                           ;mcc_generated_files/i2c_master.c: 766:     while(!I2C_Open(address));
  2784                           
  2785  04C9  087A               	movf	I2C_Rd@address,w
  2786  04CA  3185  25DA  3184   	fcall	_I2C_Open
  2787  04CD  3A00               	xorlw	0
  2788  04CE  1903               	skipnz
  2789  04CF  2CD1               	goto	u751
  2790  04D0  2CD2               	goto	u750
  2791  04D1                     u751:
  2792  04D1  2CC9               	goto	l2391
  2793  04D2                     u750:
  2794  04D2                     l2393:
  2795                           
  2796                           ;mcc_generated_files/i2c_master.c: 767:     I2C_SetBuffer(&returnValue,1);
  2797  04D2  3001               	movlw	1
  2798  04D3  00F0               	movwf	I2C_SetBuffer@bufferSize
  2799  04D4  3000               	movlw	0
  2800  04D5  00F1               	movwf	I2C_SetBuffer@bufferSize+1
  2801  04D6  307B               	movlw	(low (I2C_Rd@returnValue| 0))& (0+255)
  2802  04D7  3184  2432  3184   	fcall	_I2C_SetBuffer
  2803  04DA                     l2395:
  2804                           
  2805                           ;mcc_generated_files/i2c_master.c: 768:     I2C_MasterRead();
  2806  04DA  3183  23A8  3184   	fcall	_I2C_MasterRead
  2807  04DD                     l2397:	
  2808                           ;mcc_generated_files/i2c_master.c: 769:     while(I2C_BUSY == I2C_Close());
  2809                           
  2810  04DD  3184  248D  3184   	fcall	_I2C_Close
  2811  04E0  3A01               	xorlw	1
  2812  04E1  1903               	skipnz
  2813  04E2  2CE4               	goto	u761
  2814  04E3  2CE5               	goto	u760
  2815  04E4                     u761:
  2816  04E4  2CDD               	goto	l2397
  2817  04E5                     u760:
  2818  04E5                     l2399:
  2819                           
  2820                           ;mcc_generated_files/i2c_master.c: 771:     return returnValue;
  2821  04E5  087B               	movf	I2C_Rd@returnValue,w
  2822  04E6                     l483:
  2823  04E6  0008               	return
  2824  04E7                     __end_of_I2C_Rd:
  2825                           
  2826                           	psect	text12
  2827  05DA                     __ptext12:	
  2828 ;; *************** function _I2C_Open *****************
  2829 ;; Defined at:
  2830 ;;		line 130 in file "mcc_generated_files/i2c_master.c"
  2831 ;; Parameters:    Size  Location     Type
  2832 ;;  address         1    wreg     unsigned char 
  2833 ;; Auto vars:     Size  Location     Type
  2834 ;;  address         1    1[COMMON] unsigned char 
  2835 ;;  returnValue     1    2[COMMON] enum E355
  2836 ;; Return value:  Size  Location     Type
  2837 ;;                  1    wreg      enum E355
  2838 ;; Registers used:
  2839 ;;		wreg, status,2, status,0, pclath, cstack
  2840 ;; Tracked objects:
  2841 ;;		On entry : 0/0
  2842 ;;		On exit  : 0/0
  2843 ;;		Unchanged: 0/0
  2844 ;; Data sizes:     COMMON   BANK0   BANK1   BANK2   BANK3   BANK4   BANK5   BANK6   BANK7   BANK8   BANK9  BANK10  BANK1
      +1  BANK12
  2845 ;;      Params:         0       0       0       0       0       0       0       0       0       0       0       0       
      +0       0
  2846 ;;      Locals:         2       0       0       0       0       0       0       0       0       0       0       0       
      +0       0
  2847 ;;      Temps:          1       0       0       0       0       0       0       0       0       0       0       0       
      +0       0
  2848 ;;      Totals:         3       0       0       0       0       0       0       0       0       0       0       0       
      +0       0
  2849 ;;Total ram usage:        3 bytes
  2850 ;; Hardware stack levels used: 1
  2851 ;; Hardware stack levels required when called: 1
  2852 ;; This function calls:
  2853 ;;		_I2C_MasterClearIrq
  2854 ;;		_I2C_MasterOpen
  2855 ;; This function is called by:
  2856 ;;		_I2C_Wr
  2857 ;;		_I2C_Rd
  2858 ;;		_I2C_Read1ByteRegister
  2859 ;;		_I2C_Read2ByteRegister
  2860 ;;		_I2C_Write1ByteRegister
  2861 ;;		_I2C_Write2ByteRegister
  2862 ;;		_I2C_WriteNBytes
  2863 ;;		_I2C_ReadNBytes
  2864 ;;		_I2C_ReadDataBlock
  2865 ;; This function uses a non-reentrant model
  2866 ;;
  2867                           
  2868  05DA                     _I2C_Open:	
  2869                           ;psect for function _I2C_Open
  2870                           
  2871                           
  2872                           ;incstack = 0
  2873                           ; Regs used in _I2C_Open: [wreg+status,2+status,0+pclath+cstack]
  2874                           ;I2C_Open@address stored from wreg
  2875  05DA  00F1               	movwf	I2C_Open@address
  2876  05DB                     l2309:
  2877                           
  2878                           ;mcc_generated_files/i2c_master.c: 130: i2c_error_t I2C_Open(i2c_address_t address);mcc_
      +                          generated_files/i2c_master.c: 131: {;mcc_generated_files/i2c_master.c: 132:     i2c_erro
      +                          r_t returnValue = I2C_BUSY;
  2879  05DB  01F2               	clrf	I2C_Open@returnValue
  2880  05DC  0AF2               	incf	I2C_Open@returnValue,f
  2881                           
  2882                           ;mcc_generated_files/i2c_master.c: 134:     if(!I2C_Status.inUse)
  2883  05DD  0020               	movlb	0	; select bank0
  2884  05DE  193C               	btfsc	_I2C_Status+28,2
  2885  05DF  2DE1               	goto	u701
  2886  05E0  2DE2               	goto	u700
  2887  05E1                     u701:
  2888  05E1  2E12               	goto	l160
  2889  05E2                     u700:
  2890  05E2                     l2311:
  2891                           
  2892                           ;mcc_generated_files/i2c_master.c: 135:     {;mcc_generated_files/i2c_master.c: 136:    
      +                               I2C_Status.address = address;
  2893  05E2  0871               	movf	I2C_Open@address,w
  2894  05E3  00F0               	movwf	??_I2C_Open
  2895  05E4  0870               	movf	??_I2C_Open,w
  2896  05E5  00B6               	movwf	_I2C_Status+22
  2897  05E6                     l2313:
  2898                           
  2899                           ;mcc_generated_files/i2c_master.c: 137:         I2C_Status.busy = 0;
  2900  05E6  10BC               	bcf	_I2C_Status+28,1
  2901  05E7                     l2315:
  2902                           
  2903                           ;mcc_generated_files/i2c_master.c: 138:         I2C_Status.inUse = 1;
  2904  05E7  153C               	bsf	_I2C_Status+28,2
  2905  05E8                     l2317:
  2906                           
  2907                           ;mcc_generated_files/i2c_master.c: 139:         I2C_Status.addressNackCheck = 0;
  2908  05E8  103C               	bcf	_I2C_Status+28,0
  2909                           
  2910                           ;mcc_generated_files/i2c_master.c: 140:         I2C_Status.state = I2C_RESET;
  2911  05E9  300E               	movlw	14
  2912  05EA  00F0               	movwf	??_I2C_Open
  2913  05EB  0870               	movf	??_I2C_Open,w
  2914  05EC  00BA               	movwf	_I2C_Status+26
  2915                           
  2916                           ;mcc_generated_files/i2c_master.c: 141:         I2C_Status.time_out_value = 500;
  2917  05ED  30F4               	movlw	244
  2918  05EE  00B4               	movwf	_I2C_Status+20
  2919  05EF  3001               	movlw	1
  2920  05F0  00B5               	movwf	_I2C_Status+21
  2921  05F1                     l2319:
  2922                           
  2923                           ;mcc_generated_files/i2c_master.c: 142:         I2C_Status.bufferFree = 1;
  2924  05F1  15BC               	bsf	_I2C_Status+28,3
  2925                           
  2926                           ;mcc_generated_files/i2c_master.c: 145:         I2C_Status.callbackTable[I2C_DATA_COMPLE
      +                          TE]=I2C_CallbackReturnStop;
  2927  05F2  304B               	movlw	low _I2C_CallbackReturnStop
  2928  05F3  00A0               	movwf	_I2C_Status
  2929  05F4  3003               	movlw	high _I2C_CallbackReturnStop
  2930  05F5  00A1               	movwf	_I2C_Status+1
  2931  05F6                     l2321:
  2932                           
  2933                           ;mcc_generated_files/i2c_master.c: 146:         I2C_Status.callbackPayload[I2C_DATA_COMP
      +                          LETE] = ((void*)0);
  2934  05F6  01AC               	clrf	low ((_I2C_Status| 0+12))
  2935  05F7                     l2323:
  2936                           
  2937                           ;mcc_generated_files/i2c_master.c: 147:         I2C_Status.callbackTable[I2C_WRITE_COLLI
      +                          SION]=I2C_CallbackReturnStop;
  2938  05F7  304B               	movlw	low _I2C_CallbackReturnStop
  2939  05F8  00A2               	movwf	low ((_I2C_Status| 0+2))
  2940  05F9  3003               	movlw	high _I2C_CallbackReturnStop
  2941  05FA  00A3               	movwf	(low ((_I2C_Status| 0+2))+1)
  2942                           
  2943                           ;mcc_generated_files/i2c_master.c: 148:         I2C_Status.callbackPayload[I2C_WRITE_COL
      +                          LISION] = ((void*)0);
  2944  05FB  01AD               	clrf	low ((_I2C_Status| 0+13))
  2945  05FC                     l2325:
  2946                           
  2947                           ;mcc_generated_files/i2c_master.c: 149:         I2C_Status.callbackTable[I2C_ADDR_NACK]=
      +                          I2C_CallbackReturnStop;
  2948  05FC  304B               	movlw	low _I2C_CallbackReturnStop
  2949  05FD  00A4               	movwf	low ((_I2C_Status| 0+4))
  2950  05FE  3003               	movlw	high _I2C_CallbackReturnStop
  2951  05FF  00A5               	movwf	(low ((_I2C_Status| 0+4))+1)
  2952  0600                     l2327:
  2953                           
  2954                           ;mcc_generated_files/i2c_master.c: 150:         I2C_Status.callbackPayload[I2C_ADDR_NACK
      +                          ] = ((void*)0);
  2955  0600  01AE               	clrf	low ((_I2C_Status| 0+14))
  2956                           
  2957                           ;mcc_generated_files/i2c_master.c: 151:         I2C_Status.callbackTable[I2C_DATA_NACK]=
      +                          I2C_CallbackReturnStop;
  2958  0601  304B               	movlw	low _I2C_CallbackReturnStop
  2959  0602  00A6               	movwf	low ((_I2C_Status| 0+6))
  2960  0603  3003               	movlw	high _I2C_CallbackReturnStop
  2961  0604  00A7               	movwf	(low ((_I2C_Status| 0+6))+1)
  2962  0605                     l2329:
  2963                           
  2964                           ;mcc_generated_files/i2c_master.c: 152:         I2C_Status.callbackPayload[I2C_DATA_NACK
      +                          ] = ((void*)0);
  2965  0605  01AF               	clrf	low ((_I2C_Status| 0+15))
  2966  0606                     l2331:
  2967                           
  2968                           ;mcc_generated_files/i2c_master.c: 153:         I2C_Status.callbackTable[I2C_TIMEOUT]=I2
      +                          C_CallbackReturnReset;
  2969  0606  304D               	movlw	low _I2C_CallbackReturnReset
  2970  0607  00A8               	movwf	low ((_I2C_Status| 0+8))
  2971  0608  3003               	movlw	high _I2C_CallbackReturnReset
  2972  0609  00A9               	movwf	(low ((_I2C_Status| 0+8))+1)
  2973                           
  2974                           ;mcc_generated_files/i2c_master.c: 154:         I2C_Status.callbackPayload[I2C_TIMEOUT] 
      +                          = ((void*)0);
  2975  060A  01B0               	clrf	low ((_I2C_Status| 0+16))
  2976  060B                     l2333:
  2977                           
  2978                           ;mcc_generated_files/i2c_master.c: 156:         I2C_MasterClearIrq();
  2979  060B  3183  234F  3185   	fcall	_I2C_MasterClearIrq
  2980  060E                     l2335:
  2981                           
  2982                           ;mcc_generated_files/i2c_master.c: 157:         I2C_MasterOpen();
  2983  060E  3184  240B  3185   	fcall	_I2C_MasterOpen
  2984  0611                     l2337:
  2985                           
  2986                           ;mcc_generated_files/i2c_master.c: 158:         returnValue = I2C_NOERR;
  2987  0611  01F2               	clrf	I2C_Open@returnValue
  2988  0612                     l160:	
  2989                           ;mcc_generated_files/i2c_master.c: 159:     }
  2990                           
  2991                           
  2992                           ;mcc_generated_files/i2c_master.c: 160:     return returnValue;
  2993  0612  0872               	movf	I2C_Open@returnValue,w
  2994  0613                     l161:
  2995  0613  0008               	return
  2996  0614                     __end_of_I2C_Open:
  2997                           
  2998                           	psect	text13
  2999  040B                     __ptext13:	
  3000 ;; *************** function _I2C_MasterOpen *****************
  3001 ;; Defined at:
  3002 ;;		line 497 in file "mcc_generated_files/i2c_master.c"
  3003 ;; Parameters:    Size  Location     Type
  3004 ;;		None
  3005 ;; Auto vars:     Size  Location     Type
  3006 ;;		None
  3007 ;; Return value:  Size  Location     Type
  3008 ;;                  1    wreg      _Bool 
  3009 ;; Registers used:
  3010 ;;		wreg, status,2
  3011 ;; Tracked objects:
  3012 ;;		On entry : 0/0
  3013 ;;		On exit  : 0/0
  3014 ;;		Unchanged: 0/0
  3015 ;; Data sizes:     COMMON   BANK0   BANK1   BANK2   BANK3   BANK4   BANK5   BANK6   BANK7   BANK8   BANK9  BANK10  BANK1
      +1  BANK12
  3016 ;;      Params:         0       0       0       0       0       0       0       0       0       0       0       0       
      +0       0
  3017 ;;      Locals:         0       0       0       0       0       0       0       0       0       0       0       0       
      +0       0
  3018 ;;      Temps:          0       0       0       0       0       0       0       0       0       0       0       0       
      +0       0
  3019 ;;      Totals:         0       0       0       0       0       0       0       0       0       0       0       0       
      +0       0
  3020 ;;Total ram usage:        0 bytes
  3021 ;; Hardware stack levels used: 1
  3022 ;; This function calls:
  3023 ;;		Nothing
  3024 ;; This function is called by:
  3025 ;;		_I2C_Open
  3026 ;; This function uses a non-reentrant model
  3027 ;;
  3028                           
  3029  040B                     _I2C_MasterOpen:	
  3030                           ;psect for function _I2C_MasterOpen
  3031                           
  3032  040B                     l2237:	
  3033                           ;incstack = 0
  3034                           ; Regs used in _I2C_MasterOpen: [wreg+status,2]
  3035                           
  3036                           
  3037                           ;mcc_generated_files/i2c_master.c: 499:     if(!SSPCON1bits.SSPEN)
  3038  040B  0024               	movlb	4	; select bank4
  3039  040C  1A95               	btfsc	21,5	;volatile
  3040  040D  2C0F               	goto	u671
  3041  040E  2C10               	goto	u670
  3042  040F                     u671:
  3043  040F  2C17               	goto	l326
  3044  0410                     u670:
  3045  0410                     l2239:
  3046                           
  3047                           ;mcc_generated_files/i2c_master.c: 500:     {;mcc_generated_files/i2c_master.c: 501:    
      +                               SSPSTAT = 0x00;
  3048  0410  0194               	clrf	20	;volatile
  3049  0411                     l2241:
  3050                           
  3051                           ;mcc_generated_files/i2c_master.c: 502:         SSPCON1 = 0x08;
  3052  0411  3008               	movlw	8
  3053  0412  0095               	movwf	21	;volatile
  3054  0413                     l2243:
  3055                           
  3056                           ;mcc_generated_files/i2c_master.c: 503:         SSPCON2 = 0x00;
  3057  0413  0196               	clrf	22	;volatile
  3058                           
  3059                           ;mcc_generated_files/i2c_master.c: 504:         SSPADD = 0x4F;
  3060  0414  304F               	movlw	79
  3061  0415  0092               	movwf	18	;volatile
  3062  0416                     l2245:
  3063                           
  3064                           ;mcc_generated_files/i2c_master.c: 505:         SSPCON1bits.SSPEN = 1;
  3065  0416  1695               	bsf	21,5	;volatile
  3066  0417                     l326:
  3067  0417  0008               	return
  3068  0418                     __end_of_I2C_MasterOpen:
  3069                           
  3070                           	psect	text14
  3071  03A8                     __ptext14:	
  3072 ;; *************** function _I2C_MasterRead *****************
  3073 ;; Defined at:
  3074 ;;		line 200 in file "mcc_generated_files/i2c_master.c"
  3075 ;; Parameters:    Size  Location     Type
  3076 ;;		None
  3077 ;; Auto vars:     Size  Location     Type
  3078 ;;		None
  3079 ;; Return value:  Size  Location     Type
  3080 ;;                  1    wreg      enum E355
  3081 ;; Registers used:
  3082 ;;		wreg, fsr0l, fsr0h, fsr1l, fsr1h, status,2, status,0, pclath, cstack
  3083 ;; Tracked objects:
  3084 ;;		On entry : 0/0
  3085 ;;		On exit  : 0/0
  3086 ;;		Unchanged: 0/0
  3087 ;; Data sizes:     COMMON   BANK0   BANK1   BANK2   BANK3   BANK4   BANK5   BANK6   BANK7   BANK8   BANK9  BANK10  BANK1
      +1  BANK12
  3088 ;;      Params:         0       0       0       0       0       0       0       0       0       0       0       0       
      +0       0
  3089 ;;      Locals:         0       0       0       0       0       0       0       0       0       0       0       0       
      +0       0
  3090 ;;      Temps:          0       0       0       0       0       0       0       0       0       0       0       0       
      +0       0
  3091 ;;      Totals:         0       0       0       0       0       0       0       0       0       0       0       0       
      +0       0
  3092 ;;Total ram usage:        0 bytes
  3093 ;; Hardware stack levels used: 1
  3094 ;; Hardware stack levels required when called: 7
  3095 ;; This function calls:
  3096 ;;		_I2C_MasterOperation
  3097 ;; This function is called by:
  3098 ;;		_I2C_Rd
  3099 ;;		_I2C_ReadNBytes
  3100 ;; This function uses a non-reentrant model
  3101 ;;
  3102                           
  3103  03A8                     _I2C_MasterRead:	
  3104                           ;psect for function _I2C_MasterRead
  3105                           
  3106  03A8                     l2359:	
  3107                           ;incstack = 0
  3108                           ; Regs used in _I2C_MasterRead: [wreg-fsr1h+status,2+status,0+pclath+cstack]
  3109                           
  3110                           
  3111                           ;mcc_generated_files/i2c_master.c: 202:     return I2C_MasterOperation(1);;	Return value
      +                           of _I2C_MasterRead is never used
  3112  03A8  3001               	movlw	1
  3113  03A9  3184  24A9  3183   	fcall	_I2C_MasterOperation
  3114  03AC                     l174:
  3115  03AC  0008               	return
  3116  03AD                     __end_of_I2C_MasterRead:
  3117                           
  3118                           	psect	text15
  3119  04A9                     __ptext15:	
  3120 ;; *************** function _I2C_MasterOperation *****************
  3121 ;; Defined at:
  3122 ;;		line 178 in file "mcc_generated_files/i2c_master.c"
  3123 ;; Parameters:    Size  Location     Type
  3124 ;;  read            1    wreg     _Bool 
  3125 ;; Auto vars:     Size  Location     Type
  3126 ;;  read            1    8[COMMON] _Bool 
  3127 ;;  returnValue     1    9[COMMON] enum E355
  3128 ;; Return value:  Size  Location     Type
  3129 ;;                  1    wreg      enum E355
  3130 ;; Registers used:
  3131 ;;		wreg, fsr0l, fsr0h, fsr1l, fsr1h, status,2, status,0, pclath, cstack
  3132 ;; Tracked objects:
  3133 ;;		On entry : 0/0
  3134 ;;		On exit  : 0/0
  3135 ;;		Unchanged: 0/0
  3136 ;; Data sizes:     COMMON   BANK0   BANK1   BANK2   BANK3   BANK4   BANK5   BANK6   BANK7   BANK8   BANK9  BANK10  BANK1
      +1  BANK12
  3137 ;;      Params:         0       0       0       0       0       0       0       0       0       0       0       0       
      +0       0
  3138 ;;      Locals:         2       0       0       0       0       0       0       0       0       0       0       0       
      +0       0
  3139 ;;      Temps:          1       0       0       0       0       0       0       0       0       0       0       0       
      +0       0
  3140 ;;      Totals:         3       0       0       0       0       0       0       0       0       0       0       0       
      +0       0
  3141 ;;Total ram usage:        3 bytes
  3142 ;; Hardware stack levels used: 1
  3143 ;; Hardware stack levels required when called: 6
  3144 ;; This function calls:
  3145 ;;		_I2C_MasterStart
  3146 ;;		_I2C_Poller
  3147 ;; This function is called by:
  3148 ;;		_I2C_MasterRead
  3149 ;;		_I2C_MasterWrite
  3150 ;; This function uses a non-reentrant model
  3151 ;;
  3152                           
  3153  04A9                     _I2C_MasterOperation:	
  3154                           ;psect for function _I2C_MasterOperation
  3155                           
  3156                           
  3157                           ;incstack = 0
  3158                           ; Regs used in _I2C_MasterOperation: [wreg-fsr1h+status,2+status,0+pclath+cstack]
  3159                           ;I2C_MasterOperation@read stored from wreg
  3160  04A9  00F8               	movwf	I2C_MasterOperation@read
  3161  04AA                     l2253:
  3162                           
  3163                           ;mcc_generated_files/i2c_master.c: 178: i2c_error_t I2C_MasterOperation(_Bool read);mcc_
      +                          generated_files/i2c_master.c: 179: {;mcc_generated_files/i2c_master.c: 180:     i2c_erro
      +                          r_t returnValue = I2C_BUSY;
  3164  04AA  01F9               	clrf	I2C_MasterOperation@returnValue
  3165  04AB  0AF9               	incf	I2C_MasterOperation@returnValue,f
  3166                           
  3167                           ;mcc_generated_files/i2c_master.c: 181:     if(!I2C_Status.busy)
  3168  04AC  0020               	movlb	0	; select bank0
  3169  04AD  18BC               	btfsc	_I2C_Status+28,1
  3170  04AE  2CB0               	goto	u681
  3171  04AF  2CB1               	goto	u680
  3172  04B0                     u681:
  3173  04B0  2CC5               	goto	l2269
  3174  04B1                     u680:
  3175  04B1                     l2255:
  3176                           
  3177                           ;mcc_generated_files/i2c_master.c: 182:     {;mcc_generated_files/i2c_master.c: 183:    
      +                               I2C_Status.busy = 1;
  3178  04B1  14BC               	bsf	_I2C_Status+28,1
  3179  04B2                     l2257:
  3180                           
  3181                           ;mcc_generated_files/i2c_master.c: 184:         returnValue = I2C_NOERR;
  3182  04B2  01F9               	clrf	I2C_MasterOperation@returnValue
  3183  04B3                     l2259:
  3184                           
  3185                           ;mcc_generated_files/i2c_master.c: 186:         if(read)
  3186  04B3  0878               	movf	I2C_MasterOperation@read,w
  3187  04B4  1903               	btfsc	3,2
  3188  04B5  2CB7               	goto	u691
  3189  04B6  2CB8               	goto	u690
  3190  04B7                     u691:
  3191  04B7  2CBB               	goto	l2263
  3192  04B8                     u690:
  3193  04B8                     l2261:
  3194                           
  3195                           ;mcc_generated_files/i2c_master.c: 187:         {;mcc_generated_files/i2c_master.c: 188:
      +                                       I2C_Status.state = I2C_SEND_ADR_READ;
  3196  04B8  01BA               	clrf	_I2C_Status+26
  3197  04B9  0ABA               	incf	_I2C_Status+26,f
  3198                           
  3199                           ;mcc_generated_files/i2c_master.c: 189:         }
  3200  04BA  2CBF               	goto	l2265
  3201  04BB                     l2263:
  3202                           
  3203                           ;mcc_generated_files/i2c_master.c: 191:         {;mcc_generated_files/i2c_master.c: 192:
      +                                       I2C_Status.state = I2C_SEND_ADR_WRITE;
  3204  04BB  3002               	movlw	2
  3205  04BC  00F7               	movwf	??_I2C_MasterOperation
  3206  04BD  0877               	movf	??_I2C_MasterOperation,w
  3207  04BE  00BA               	movwf	_I2C_Status+26
  3208  04BF                     l2265:
  3209                           
  3210                           ;mcc_generated_files/i2c_master.c: 194:         I2C_MasterStart();
  3211  04BF  3183  2358  3184   	fcall	_I2C_MasterStart
  3212  04C2                     l2267:
  3213                           
  3214                           ;mcc_generated_files/i2c_master.c: 195:         I2C_Poller();
  3215  04C2  3183  23FE  3184   	fcall	_I2C_Poller
  3216  04C5                     l2269:
  3217                           
  3218                           ;mcc_generated_files/i2c_master.c: 197:     return returnValue;
  3219  04C5  0879               	movf	I2C_MasterOperation@returnValue,w
  3220  04C6                     l171:
  3221  04C6  0008               	return
  3222  04C7                     __end_of_I2C_MasterOperation:
  3223                           
  3224                           	psect	text16
  3225  03FE                     __ptext16:	
  3226 ;; *************** function _I2C_Poller *****************
  3227 ;; Defined at:
  3228 ;;		line 266 in file "mcc_generated_files/i2c_master.c"
  3229 ;; Parameters:    Size  Location     Type
  3230 ;;		None
  3231 ;; Auto vars:     Size  Location     Type
  3232 ;;		None
  3233 ;; Return value:  Size  Location     Type
  3234 ;;                  1    wreg      void 
  3235 ;; Registers used:
  3236 ;;		wreg, fsr0l, fsr0h, fsr1l, fsr1h, status,2, status,0, pclath, cstack
  3237 ;; Tracked objects:
  3238 ;;		On entry : 0/0
  3239 ;;		On exit  : 0/0
  3240 ;;		Unchanged: 0/0
  3241 ;; Data sizes:     COMMON   BANK0   BANK1   BANK2   BANK3   BANK4   BANK5   BANK6   BANK7   BANK8   BANK9  BANK10  BANK1
      +1  BANK12
  3242 ;;      Params:         0       0       0       0       0       0       0       0       0       0       0       0       
      +0       0
  3243 ;;      Locals:         0       0       0       0       0       0       0       0       0       0       0       0       
      +0       0
  3244 ;;      Temps:          0       0       0       0       0       0       0       0       0       0       0       0       
      +0       0
  3245 ;;      Totals:         0       0       0       0       0       0       0       0       0       0       0       0       
      +0       0
  3246 ;;Total ram usage:        0 bytes
  3247 ;; Hardware stack levels used: 1
  3248 ;; Hardware stack levels required when called: 5
  3249 ;; This function calls:
  3250 ;;		_I2C_MasterFsm
  3251 ;;		_I2C_MasterWaitForEvent
  3252 ;; This function is called by:
  3253 ;;		_I2C_MasterOperation
  3254 ;; This function uses a non-reentrant model
  3255 ;;
  3256                           
  3257  03FE                     _I2C_Poller:	
  3258                           ;psect for function _I2C_Poller
  3259                           
  3260  03FE                     l2229:	
  3261                           ;incstack = 0
  3262                           ; Regs used in _I2C_Poller: [wreg-fsr1h+status,2+status,0+pclath+cstack]
  3263                           
  3264                           
  3265                           ;mcc_generated_files/i2c_master.c: 268:     while(I2C_Status.busy)
  3266  03FE  2C05               	goto	l2235
  3267  03FF                     l2231:
  3268                           
  3269                           ;mcc_generated_files/i2c_master.c: 269:     {;mcc_generated_files/i2c_master.c: 270:    
      +                               I2C_MasterWaitForEvent();
  3270  03FF  3183  23B8  3183   	fcall	_I2C_MasterWaitForEvent
  3271  0402                     l2233:
  3272                           
  3273                           ;mcc_generated_files/i2c_master.c: 271:         I2C_MasterFsm();
  3274  0402  3185  2554  3183   	fcall	_I2C_MasterFsm
  3275  0405                     l2235:
  3276                           
  3277                           ;mcc_generated_files/i2c_master.c: 268:     while(I2C_Status.busy)
  3278  0405  0020               	movlb	0	; select bank0
  3279  0406  18BC               	btfsc	_I2C_Status+28,1
  3280  0407  2C09               	goto	u661
  3281  0408  2C0A               	goto	u660
  3282  0409                     u661:
  3283  0409  2BFF               	goto	l2231
  3284  040A                     u660:
  3285  040A                     l210:
  3286  040A  0008               	return
  3287  040B                     __end_of_I2C_Poller:
  3288                           
  3289                           	psect	text17
  3290  03B8                     __ptext17:	
  3291 ;; *************** function _I2C_MasterWaitForEvent *****************
  3292 ;; Defined at:
  3293 ;;		line 604 in file "mcc_generated_files/i2c_master.c"
  3294 ;; Parameters:    Size  Location     Type
  3295 ;;		None
  3296 ;; Auto vars:     Size  Location     Type
  3297 ;;		None
  3298 ;; Return value:  Size  Location     Type
  3299 ;;                  1    wreg      void 
  3300 ;; Registers used:
  3301 ;;		None
  3302 ;; Tracked objects:
  3303 ;;		On entry : 0/0
  3304 ;;		On exit  : 0/0
  3305 ;;		Unchanged: 0/0
  3306 ;; Data sizes:     COMMON   BANK0   BANK1   BANK2   BANK3   BANK4   BANK5   BANK6   BANK7   BANK8   BANK9  BANK10  BANK1
      +1  BANK12
  3307 ;;      Params:         0       0       0       0       0       0       0       0       0       0       0       0       
      +0       0
  3308 ;;      Locals:         0       0       0       0       0       0       0       0       0       0       0       0       
      +0       0
  3309 ;;      Temps:          0       0       0       0       0       0       0       0       0       0       0       0       
      +0       0
  3310 ;;      Totals:         0       0       0       0       0       0       0       0       0       0       0       0       
      +0       0
  3311 ;;Total ram usage:        0 bytes
  3312 ;; Hardware stack levels used: 1
  3313 ;; This function calls:
  3314 ;;		Nothing
  3315 ;; This function is called by:
  3316 ;;		_I2C_Poller
  3317 ;; This function uses a non-reentrant model
  3318 ;;
  3319                           
  3320  03B8                     _I2C_MasterWaitForEvent:	
  3321                           ;psect for function _I2C_MasterWaitForEvent
  3322                           
  3323  03B8                     l383:	
  3324                           ;incstack = 0
  3325                           ; Regs used in _I2C_MasterWaitForEvent: []
  3326                           ;mcc_generated_files/i2c_master.c: 606:     while(1)
  3327                           
  3328                           
  3329                           ;mcc_generated_files/i2c_master.c: 607:     {;mcc_generated_files/i2c_master.c: 608:    
      +                               if(PIR1bits.SSPIF)
  3330  03B8  0020               	movlb	0	; select bank0
  3331  03B9  1D91               	btfss	17,3	;volatile
  3332  03BA  2BBC               	goto	u631
  3333  03BB  2BBD               	goto	u630
  3334  03BC                     u631:
  3335  03BC  2BB8               	goto	l383
  3336  03BD                     u630:
  3337  03BD                     l387:
  3338  03BD  0008               	return
  3339  03BE                     __end_of_I2C_MasterWaitForEvent:
  3340                           
  3341                           	psect	text18
  3342  0554                     __ptext18:	
  3343 ;; *************** function _I2C_MasterFsm *****************
  3344 ;; Defined at:
  3345 ;;		line 275 in file "mcc_generated_files/i2c_master.c"
  3346 ;; Parameters:    Size  Location     Type
  3347 ;;		None
  3348 ;; Auto vars:     Size  Location     Type
  3349 ;;		None
  3350 ;; Return value:  Size  Location     Type
  3351 ;;                  1    wreg      void 
  3352 ;; Registers used:
  3353 ;;		wreg, fsr0l, fsr0h, fsr1l, fsr1h, status,2, status,0, pclath, cstack
  3354 ;; Tracked objects:
  3355 ;;		On entry : 0/0
  3356 ;;		On exit  : 0/0
  3357 ;;		Unchanged: 0/0
  3358 ;; Data sizes:     COMMON   BANK0   BANK1   BANK2   BANK3   BANK4   BANK5   BANK6   BANK7   BANK8   BANK9  BANK10  BANK1
      +1  BANK12
  3359 ;;      Params:         0       0       0       0       0       0       0       0       0       0       0       0       
      +0       0
  3360 ;;      Locals:         0       0       0       0       0       0       0       0       0       0       0       0       
      +0       0
  3361 ;;      Temps:          3       0       0       0       0       0       0       0       0       0       0       0       
      +0       0
  3362 ;;      Totals:         3       0       0       0       0       0       0       0       0       0       0       0       
      +0       0
  3363 ;;Total ram usage:        3 bytes
  3364 ;; Hardware stack levels used: 1
  3365 ;; Hardware stack levels required when called: 4
  3366 ;; This function calls:
  3367 ;;		_I2C_DO_ADDRESS_NACK
  3368 ;;		_I2C_DO_IDLE
  3369 ;;		_I2C_DO_RCEN
  3370 ;;		_I2C_DO_RESET
  3371 ;;		_I2C_DO_RX
  3372 ;;		_I2C_DO_RX_ACK
  3373 ;;		_I2C_DO_RX_NACK_RESTART
  3374 ;;		_I2C_DO_RX_NACK_STOP
  3375 ;;		_I2C_DO_SEND_ADR_READ
  3376 ;;		_I2C_DO_SEND_ADR_WRITE
  3377 ;;		_I2C_DO_SEND_RESTART
  3378 ;;		_I2C_DO_SEND_RESTART_READ
  3379 ;;		_I2C_DO_SEND_RESTART_WRITE
  3380 ;;		_I2C_DO_SEND_STOP
  3381 ;;		_I2C_DO_TX
  3382 ;;		_I2C_DO_TX_EMPTY
  3383 ;;		_I2C_MasterClearIrq
  3384 ;;		_I2C_MasterIsNack
  3385 ;; This function is called by:
  3386 ;;		_I2C_Poller
  3387 ;; This function uses a non-reentrant model
  3388 ;;
  3389                           
  3390  0554                     _I2C_MasterFsm:	
  3391                           ;psect for function _I2C_MasterFsm
  3392                           
  3393  0554                     l2217:	
  3394                           ;incstack = 0
  3395                           ; Regs used in _I2C_MasterFsm: [wreg-fsr1h+status,2+status,0+pclath+cstack]
  3396                           
  3397                           
  3398                           ;mcc_generated_files/i2c_master.c: 277:     I2C_MasterClearIrq();
  3399  0554  3183  234F  3185   	fcall	_I2C_MasterClearIrq
  3400  0557                     l2219:
  3401                           
  3402                           ;mcc_generated_files/i2c_master.c: 279:     if(I2C_Status.addressNackCheck && I2C_Master
      +                          IsNack())
  3403  0557  0020               	movlb	0	; select bank0
  3404  0558  1C3C               	btfss	_I2C_Status+28,0
  3405  0559  2D5B               	goto	u641
  3406  055A  2D5C               	goto	u640
  3407  055B                     u641:
  3408  055B  2D69               	goto	l2225
  3409  055C                     u640:
  3410  055C                     l2221:
  3411  055C  3183  23B2  3185   	fcall	_I2C_MasterIsNack
  3412  055F  3A00               	xorlw	0
  3413  0560  1903               	skipnz
  3414  0561  2D63               	goto	u651
  3415  0562  2D64               	goto	u650
  3416  0563                     u651:
  3417  0563  2D69               	goto	l2225
  3418  0564                     u650:
  3419  0564                     l2223:
  3420                           
  3421                           ;mcc_generated_files/i2c_master.c: 280:     {;mcc_generated_files/i2c_master.c: 281:    
      +                               I2C_Status.state = I2C_ADDRESS_NACK;
  3422  0564  300F               	movlw	15
  3423  0565  00F4               	movwf	??_I2C_MasterFsm
  3424  0566  0874               	movf	??_I2C_MasterFsm,w
  3425  0567  0020               	movlb	0	; select bank0
  3426  0568  00BA               	movwf	_I2C_Status+26
  3427  0569                     l2225:
  3428                           
  3429                           ;mcc_generated_files/i2c_master.c: 283:     I2C_Status.state = i2c_fsmStateTable[I2C_Sta
      +                          tus.state]();
  3430  0569  0020               	movlb	0	; select bank0
  3431  056A  083A               	movf	_I2C_Status+26,w
  3432  056B  00F4               	movwf	??_I2C_MasterFsm
  3433  056C  01F5               	clrf	??_I2C_MasterFsm+1
  3434  056D  35F4               	lslf	??_I2C_MasterFsm,f
  3435  056E  0DF5               	rlf	??_I2C_MasterFsm+1,f
  3436  056F  3000               	movlw	low (_i2c_fsmStateTable| (0+32768))
  3437  0570  0774               	addwf	??_I2C_MasterFsm,w
  3438  0571  0084               	movwf	4
  3439  0572  3088               	movlw	high (_i2c_fsmStateTable| (0+32768))
  3440  0573  3D75               	addwfc	??_I2C_MasterFsm+1,w
  3441  0574  0085               	movwf	5
  3442  0575  3F01               	moviw [1]fsr0
  3443  0576  008A               	movwf	10
  3444  0577  3F00               	moviw [0]fsr0
  3445  0578  000A               	callw
  3446  0579  3185               	pagesel	$
  3447  057A  00F6               	movwf	??_I2C_MasterFsm+2
  3448  057B  0876               	movf	??_I2C_MasterFsm+2,w
  3449  057C  0020               	movlb	0	; select bank0
  3450  057D  00BA               	movwf	_I2C_Status+26
  3451  057E                     l214:
  3452  057E  0008               	return
  3453  057F                     __end_of_I2C_MasterFsm:
  3454                           
  3455                           	psect	text19
  3456  057F                     __ptext19:	
  3457 ;; *************** function _I2C_DO_ADDRESS_NACK *****************
  3458 ;; Defined at:
  3459 ;;		line 454 in file "mcc_generated_files/i2c_master.c"
  3460 ;; Parameters:    Size  Location     Type
  3461 ;;		None
  3462 ;; Auto vars:     Size  Location     Type
  3463 ;;		None
  3464 ;; Return value:  Size  Location     Type
  3465 ;;                  1    wreg      enum E3373
  3466 ;; Registers used:
  3467 ;;		wreg, fsr0l, fsr0h, fsr1l, fsr1h, status,2, status,0, pclath, cstack
  3468 ;; Tracked objects:
  3469 ;;		On entry : 0/0
  3470 ;;		On exit  : 0/0
  3471 ;;		Unchanged: 0/0
  3472 ;; Data sizes:     COMMON   BANK0   BANK1   BANK2   BANK3   BANK4   BANK5   BANK6   BANK7   BANK8   BANK9  BANK10  BANK1
      +1  BANK12
  3473 ;;      Params:         0       0       0       0       0       0       0       0       0       0       0       0       
      +0       0
  3474 ;;      Locals:         0       0       0       0       0       0       0       0       0       0       0       0       
      +0       0
  3475 ;;      Temps:          3       0       0       0       0       0       0       0       0       0       0       0       
      +0       0
  3476 ;;      Totals:         3       0       0       0       0       0       0       0       0       0       0       0       
      +0       0
  3477 ;;Total ram usage:        3 bytes
  3478 ;; Hardware stack levels used: 1
  3479 ;; Hardware stack levels required when called: 3
  3480 ;; This function calls:
  3481 ;;		Absolute function
  3482 ;;		_I2C_CallbackReturnReset
  3483 ;;		_I2C_CallbackReturnStop
  3484 ;;		_I2C_DO_SEND_RESTART
  3485 ;;		_I2C_DO_SEND_STOP
  3486 ;;		_rd1RegCompleteHandler
  3487 ;;		_rdBlkRegCompleteHandler
  3488 ;;		_wr1RegCompleteHandler
  3489 ;;		_wr2RegCompleteHandler
  3490 ;; This function is called by:
  3491 ;;		_I2C_MasterFsm
  3492 ;; This function uses a non-reentrant model
  3493 ;;
  3494                           
  3495  057F                     _I2C_DO_ADDRESS_NACK:	
  3496                           ;psect for function _I2C_DO_ADDRESS_NACK
  3497                           
  3498  057F                     l2195:	
  3499                           ;incstack = 0
  3500                           ; Regs used in _I2C_DO_ADDRESS_NACK: [wreg-fsr1h+status,2+status,0+pclath+cstack]
  3501                           
  3502                           
  3503                           ;mcc_generated_files/i2c_master.c: 456:     I2C_Status.addressNackCheck = 0;
  3504  057F  0020               	movlb	0	; select bank0
  3505  0580  103C               	bcf	_I2C_Status+28,0
  3506  0581                     l2197:
  3507                           
  3508                           ;mcc_generated_files/i2c_master.c: 457:     I2C_Status.error = I2C_FAIL;
  3509  0581  3002               	movlw	2
  3510  0582  00F0               	movwf	??_I2C_DO_ADDRESS_NACK
  3511  0583  0870               	movf	??_I2C_DO_ADDRESS_NACK,w
  3512  0584  00BB               	movwf	_I2C_Status+27
  3513                           
  3514                           ;mcc_generated_files/i2c_master.c: 458:     switch(I2C_Status.callbackTable[I2C_ADDR_NAC
      +                          K](I2C_Status.callbackPayload[I2C_ADDR_NACK]))
  3515  0585  2D8E               	goto	l2209
  3516  0586                     l2199:
  3517                           
  3518                           ;mcc_generated_files/i2c_master.c: 462:             return I2C_DO_SEND_RESTART();
  3519  0586  3183  238A  3185   	fcall	_I2C_DO_SEND_RESTART
  3520  0589  2DAA               	goto	l305
  3521  058A                     l2203:
  3522                           
  3523                           ;mcc_generated_files/i2c_master.c: 464:             return I2C_DO_SEND_STOP();
  3524  058A  3183  238F  3185   	fcall	_I2C_DO_SEND_STOP
  3525  058D  2DAA               	goto	l305
  3526  058E                     l2209:
  3527  058E  082E               	movf	low ((_I2C_Status| 0+14)),w
  3528  058F  00F0               	movwf	??_I2C_DO_ADDRESS_NACK
  3529  0590  0870               	movf	??_I2C_DO_ADDRESS_NACK,w
  3530  0591  00F9               	movwf	rdBlkRegCompleteHandler@ptr
  3531  0592  3004               	movlw	4
  3532  0593  3E20               	addlw	(low (_I2C_Status| 0))& (0+255)
  3533  0594  0086               	movwf	6
  3534  0595  0187               	clrf	7
  3535  0596  3F41               	moviw [1]fsr1
  3536  0597  008A               	movwf	10
  3537  0598  3F40               	moviw [0]fsr1
  3538  0599  000A               	callw
  3539  059A  3185               	pagesel	$
  3540  059B  00F1               	movwf	??_I2C_DO_ADDRESS_NACK+1
  3541  059C  01F2               	clrf	??_I2C_DO_ADDRESS_NACK+2
  3542                           
  3543                           ; Switch on 2 bytes has been partitioned into a top level switch of size 1, and 1 sub-sw
      +                          itches
  3544                           ; Switch size 1, requested type "simple"
  3545                           ; Number of cases is 1, Range of values is 0 to 0
  3546                           ; switch strategies available:
  3547                           ; Name         Instructions Cycles
  3548                           ; simple_byte            4     3 (average)
  3549                           ; direct_byte            8     6 (fixed)
  3550                           ; jumptable            260     6 (fixed)
  3551                           ;	Chosen strategy is simple_byte
  3552  059D  0872               	movf	??_I2C_DO_ADDRESS_NACK+2,w
  3553  059E  3A00               	xorlw	0	; case 0
  3554  059F  1903               	skipnz
  3555  05A0  2DA2               	goto	l2725
  3556  05A1  2D8A               	goto	l2203
  3557  05A2                     l2725:
  3558                           
  3559                           ; Switch size 1, requested type "simple"
  3560                           ; Number of cases is 2, Range of values is 2 to 3
  3561                           ; switch strategies available:
  3562                           ; Name         Instructions Cycles
  3563                           ; simple_byte            7     4 (average)
  3564                           ; direct_byte           13     9 (fixed)
  3565                           ; jumptable            263     9 (fixed)
  3566                           ;	Chosen strategy is simple_byte
  3567  05A2  0871               	movf	??_I2C_DO_ADDRESS_NACK+1,w
  3568  05A3  3A02               	xorlw	2	; case 2
  3569  05A4  1903               	skipnz
  3570  05A5  2D86               	goto	l2199
  3571  05A6  3A01               	xorlw	1	; case 3
  3572  05A7  1903               	skipnz
  3573  05A8  2D86               	goto	l2199
  3574  05A9  2D8A               	goto	l2203
  3575  05AA                     l305:
  3576  05AA  0008               	return
  3577  05AB                     __end_of_I2C_DO_ADDRESS_NACK:
  3578                           
  3579                           	psect	text20
  3580  03A3                     __ptext20:	
  3581 ;; *************** function _I2C_DO_RESET *****************
  3582 ;; Defined at:
  3583 ;;		line 448 in file "mcc_generated_files/i2c_master.c"
  3584 ;; Parameters:    Size  Location     Type
  3585 ;;		None
  3586 ;; Auto vars:     Size  Location     Type
  3587 ;;		None
  3588 ;; Return value:  Size  Location     Type
  3589 ;;                  1    wreg      enum E3373
  3590 ;; Registers used:
  3591 ;;		wreg, status,2
  3592 ;; Tracked objects:
  3593 ;;		On entry : 0/0
  3594 ;;		On exit  : 0/0
  3595 ;;		Unchanged: 0/0
  3596 ;; Data sizes:     COMMON   BANK0   BANK1   BANK2   BANK3   BANK4   BANK5   BANK6   BANK7   BANK8   BANK9  BANK10  BANK1
      +1  BANK12
  3597 ;;      Params:         0       0       0       0       0       0       0       0       0       0       0       0       
      +0       0
  3598 ;;      Locals:         0       0       0       0       0       0       0       0       0       0       0       0       
      +0       0
  3599 ;;      Temps:          0       0       0       0       0       0       0       0       0       0       0       0       
      +0       0
  3600 ;;      Totals:         0       0       0       0       0       0       0       0       0       0       0       0       
      +0       0
  3601 ;;Total ram usage:        0 bytes
  3602 ;; Hardware stack levels used: 1
  3603 ;; This function calls:
  3604 ;;		Nothing
  3605 ;; This function is called by:
  3606 ;;		_I2C_MasterFsm
  3607 ;; This function uses a non-reentrant model
  3608 ;;
  3609                           
  3610  03A3                     _I2C_DO_RESET:	
  3611                           ;psect for function _I2C_DO_RESET
  3612                           
  3613  03A3                     l2187:	
  3614                           ;incstack = 0
  3615                           ; Regs used in _I2C_DO_RESET: [wreg+status,2]
  3616                           
  3617                           
  3618                           ;mcc_generated_files/i2c_master.c: 450:     I2C_Status.busy = 0;
  3619  03A3  0020               	movlb	0	; select bank0
  3620  03A4  10BC               	bcf	_I2C_Status+28,1
  3621  03A5                     l2189:
  3622                           
  3623                           ;mcc_generated_files/i2c_master.c: 451:     I2C_Status.error = I2C_NOERR;
  3624  03A5  01BB               	clrf	_I2C_Status+27
  3625  03A6                     l2191:
  3626                           
  3627                           ;mcc_generated_files/i2c_master.c: 452:     return I2C_RESET;
  3628  03A6  300E               	movlw	14
  3629  03A7                     l299:
  3630  03A7  0008               	return
  3631  03A8                     __end_of_I2C_DO_RESET:
  3632                           
  3633                           	psect	text21
  3634  039E                     __ptext21:	
  3635 ;; *************** function _I2C_DO_RX_NACK_RESTART *****************
  3636 ;; Defined at:
  3637 ;;		line 442 in file "mcc_generated_files/i2c_master.c"
  3638 ;; Parameters:    Size  Location     Type
  3639 ;;		None
  3640 ;; Auto vars:     Size  Location     Type
  3641 ;;		None
  3642 ;; Return value:  Size  Location     Type
  3643 ;;                  1    wreg      enum E3373
  3644 ;; Registers used:
  3645 ;;		wreg, status,2, status,0, pclath, cstack
  3646 ;; Tracked objects:
  3647 ;;		On entry : 0/0
  3648 ;;		On exit  : 0/0
  3649 ;;		Unchanged: 0/0
  3650 ;; Data sizes:     COMMON   BANK0   BANK1   BANK2   BANK3   BANK4   BANK5   BANK6   BANK7   BANK8   BANK9  BANK10  BANK1
      +1  BANK12
  3651 ;;      Params:         0       0       0       0       0       0       0       0       0       0       0       0       
      +0       0
  3652 ;;      Locals:         0       0       0       0       0       0       0       0       0       0       0       0       
      +0       0
  3653 ;;      Temps:          0       0       0       0       0       0       0       0       0       0       0       0       
      +0       0
  3654 ;;      Totals:         0       0       0       0       0       0       0       0       0       0       0       0       
      +0       0
  3655 ;;Total ram usage:        0 bytes
  3656 ;; Hardware stack levels used: 1
  3657 ;; Hardware stack levels required when called: 1
  3658 ;; This function calls:
  3659 ;;		_I2C_MasterSendNack
  3660 ;; This function is called by:
  3661 ;;		_I2C_DO_RX
  3662 ;;		_I2C_MasterFsm
  3663 ;; This function uses a non-reentrant model
  3664 ;;
  3665                           
  3666  039E                     _I2C_DO_RX_NACK_RESTART:	
  3667                           ;psect for function _I2C_DO_RX_NACK_RESTART
  3668                           
  3669  039E                     l1999:	
  3670                           ;incstack = 0
  3671                           ; Regs used in _I2C_DO_RX_NACK_RESTART: [wreg+status,2+status,0+pclath+cstack]
  3672                           
  3673                           
  3674                           ;mcc_generated_files/i2c_master.c: 444:     I2C_MasterSendNack();
  3675  039E  3183  236A  3183   	fcall	_I2C_MasterSendNack
  3676  03A1                     l2001:
  3677                           
  3678                           ;mcc_generated_files/i2c_master.c: 445:     return I2C_SEND_RESTART;
  3679  03A1  3009               	movlw	9
  3680  03A2                     l296:
  3681  03A2  0008               	return
  3682  03A3                     __end_of_I2C_DO_RX_NACK_RESTART:
  3683                           
  3684                           	psect	text22
  3685  0399                     __ptext22:	
  3686 ;; *************** function _I2C_DO_RX_NACK_STOP *****************
  3687 ;; Defined at:
  3688 ;;		line 436 in file "mcc_generated_files/i2c_master.c"
  3689 ;; Parameters:    Size  Location     Type
  3690 ;;		None
  3691 ;; Auto vars:     Size  Location     Type
  3692 ;;		None
  3693 ;; Return value:  Size  Location     Type
  3694 ;;                  1    wreg      enum E3373
  3695 ;; Registers used:
  3696 ;;		wreg, status,2, status,0, pclath, cstack
  3697 ;; Tracked objects:
  3698 ;;		On entry : 0/0
  3699 ;;		On exit  : 0/0
  3700 ;;		Unchanged: 0/0
  3701 ;; Data sizes:     COMMON   BANK0   BANK1   BANK2   BANK3   BANK4   BANK5   BANK6   BANK7   BANK8   BANK9  BANK10  BANK1
      +1  BANK12
  3702 ;;      Params:         0       0       0       0       0       0       0       0       0       0       0       0       
      +0       0
  3703 ;;      Locals:         0       0       0       0       0       0       0       0       0       0       0       0       
      +0       0
  3704 ;;      Temps:          0       0       0       0       0       0       0       0       0       0       0       0       
      +0       0
  3705 ;;      Totals:         0       0       0       0       0       0       0       0       0       0       0       0       
      +0       0
  3706 ;;Total ram usage:        0 bytes
  3707 ;; Hardware stack levels used: 1
  3708 ;; Hardware stack levels required when called: 1
  3709 ;; This function calls:
  3710 ;;		_I2C_MasterSendNack
  3711 ;; This function is called by:
  3712 ;;		_I2C_DO_RX
  3713 ;;		_I2C_MasterFsm
  3714 ;; This function uses a non-reentrant model
  3715 ;;
  3716                           
  3717  0399                     _I2C_DO_RX_NACK_STOP:	
  3718                           ;psect for function _I2C_DO_RX_NACK_STOP
  3719                           
  3720  0399                     l2005:	
  3721                           ;incstack = 0
  3722                           ; Regs used in _I2C_DO_RX_NACK_STOP: [wreg+status,2+status,0+pclath+cstack]
  3723                           
  3724                           
  3725                           ;mcc_generated_files/i2c_master.c: 438:     I2C_MasterSendNack();
  3726  0399  3183  236A  3183   	fcall	_I2C_MasterSendNack
  3727  039C                     l2007:
  3728                           
  3729                           ;mcc_generated_files/i2c_master.c: 439:     return I2C_SEND_STOP;
  3730  039C  300A               	movlw	10
  3731  039D                     l293:
  3732  039D  0008               	return
  3733  039E                     __end_of_I2C_DO_RX_NACK_STOP:
  3734                           
  3735                           	psect	text23
  3736  0394                     __ptext23:	
  3737 ;; *************** function _I2C_DO_RX_ACK *****************
  3738 ;; Defined at:
  3739 ;;		line 429 in file "mcc_generated_files/i2c_master.c"
  3740 ;; Parameters:    Size  Location     Type
  3741 ;;		None
  3742 ;; Auto vars:     Size  Location     Type
  3743 ;;		None
  3744 ;; Return value:  Size  Location     Type
  3745 ;;                  1    wreg      enum E3373
  3746 ;; Registers used:
  3747 ;;		wreg, status,2, status,0, pclath, cstack
  3748 ;; Tracked objects:
  3749 ;;		On entry : 0/0
  3750 ;;		On exit  : 0/0
  3751 ;;		Unchanged: 0/0
  3752 ;; Data sizes:     COMMON   BANK0   BANK1   BANK2   BANK3   BANK4   BANK5   BANK6   BANK7   BANK8   BANK9  BANK10  BANK1
      +1  BANK12
  3753 ;;      Params:         0       0       0       0       0       0       0       0       0       0       0       0       
      +0       0
  3754 ;;      Locals:         0       0       0       0       0       0       0       0       0       0       0       0       
      +0       0
  3755 ;;      Temps:          0       0       0       0       0       0       0       0       0       0       0       0       
      +0       0
  3756 ;;      Totals:         0       0       0       0       0       0       0       0       0       0       0       0       
      +0       0
  3757 ;;Total ram usage:        0 bytes
  3758 ;; Hardware stack levels used: 1
  3759 ;; Hardware stack levels required when called: 1
  3760 ;; This function calls:
  3761 ;;		_I2C_MasterSendAck
  3762 ;; This function is called by:
  3763 ;;		_I2C_MasterFsm
  3764 ;; This function uses a non-reentrant model
  3765 ;;
  3766                           
  3767  0394                     _I2C_DO_RX_ACK:	
  3768                           ;psect for function _I2C_DO_RX_ACK
  3769                           
  3770  0394                     l2181:	
  3771                           ;incstack = 0
  3772                           ; Regs used in _I2C_DO_RX_ACK: [wreg+status,2+status,0+pclath+cstack]
  3773                           
  3774                           
  3775                           ;mcc_generated_files/i2c_master.c: 431:     I2C_MasterSendAck();
  3776  0394  3183  236E  3183   	fcall	_I2C_MasterSendAck
  3777  0397                     l2183:
  3778                           
  3779                           ;mcc_generated_files/i2c_master.c: 432:     return I2C_RCEN;
  3780  0397  3005               	movlw	5
  3781  0398                     l290:
  3782  0398  0008               	return
  3783  0399                     __end_of_I2C_DO_RX_ACK:
  3784                           
  3785                           	psect	text24
  3786  038F                     __ptext24:	
  3787 ;; *************** function _I2C_DO_SEND_STOP *****************
  3788 ;; Defined at:
  3789 ;;		line 423 in file "mcc_generated_files/i2c_master.c"
  3790 ;; Parameters:    Size  Location     Type
  3791 ;;		None
  3792 ;; Auto vars:     Size  Location     Type
  3793 ;;		None
  3794 ;; Return value:  Size  Location     Type
  3795 ;;                  1    wreg      enum E3373
  3796 ;; Registers used:
  3797 ;;		wreg, status,2, status,0, pclath, cstack
  3798 ;; Tracked objects:
  3799 ;;		On entry : 0/0
  3800 ;;		On exit  : 0/0
  3801 ;;		Unchanged: 0/0
  3802 ;; Data sizes:     COMMON   BANK0   BANK1   BANK2   BANK3   BANK4   BANK5   BANK6   BANK7   BANK8   BANK9  BANK10  BANK1
      +1  BANK12
  3803 ;;      Params:         0       0       0       0       0       0       0       0       0       0       0       0       
      +0       0
  3804 ;;      Locals:         0       0       0       0       0       0       0       0       0       0       0       0       
      +0       0
  3805 ;;      Temps:          0       0       0       0       0       0       0       0       0       0       0       0       
      +0       0
  3806 ;;      Totals:         0       0       0       0       0       0       0       0       0       0       0       0       
      +0       0
  3807 ;;Total ram usage:        0 bytes
  3808 ;; Hardware stack levels used: 1
  3809 ;; Hardware stack levels required when called: 1
  3810 ;; This function calls:
  3811 ;;		_I2C_MasterStop
  3812 ;; This function is called by:
  3813 ;;		_I2C_DO_TX
  3814 ;;		_I2C_DO_TX_EMPTY
  3815 ;;		_I2C_DO_ADDRESS_NACK
  3816 ;;		_I2C_MasterFsm
  3817 ;; This function uses a non-reentrant model
  3818 ;;
  3819                           
  3820  038F                     _I2C_DO_SEND_STOP:	
  3821                           ;psect for function _I2C_DO_SEND_STOP
  3822                           
  3823  038F                     l1987:	
  3824                           ;incstack = 0
  3825                           ; Regs used in _I2C_DO_SEND_STOP: [wreg+status,2+status,0+pclath+cstack]
  3826                           
  3827                           
  3828                           ;mcc_generated_files/i2c_master.c: 425:     I2C_MasterStop();
  3829  038F  3183  235E  3183   	fcall	_I2C_MasterStop
  3830  0392                     l1989:
  3831                           
  3832                           ;mcc_generated_files/i2c_master.c: 426:     return I2C_IDLE;
  3833  0392  3000               	movlw	0
  3834  0393                     l287:
  3835  0393  0008               	return
  3836  0394                     __end_of_I2C_DO_SEND_STOP:
  3837                           
  3838                           	psect	text25
  3839  038A                     __ptext25:	
  3840 ;; *************** function _I2C_DO_SEND_RESTART *****************
  3841 ;; Defined at:
  3842 ;;		line 417 in file "mcc_generated_files/i2c_master.c"
  3843 ;; Parameters:    Size  Location     Type
  3844 ;;		None
  3845 ;; Auto vars:     Size  Location     Type
  3846 ;;		None
  3847 ;; Return value:  Size  Location     Type
  3848 ;;                  1    wreg      enum E3373
  3849 ;; Registers used:
  3850 ;;		wreg, status,2, status,0, pclath, cstack
  3851 ;; Tracked objects:
  3852 ;;		On entry : 0/0
  3853 ;;		On exit  : 0/0
  3854 ;;		Unchanged: 0/0
  3855 ;; Data sizes:     COMMON   BANK0   BANK1   BANK2   BANK3   BANK4   BANK5   BANK6   BANK7   BANK8   BANK9  BANK10  BANK1
      +1  BANK12
  3856 ;;      Params:         0       0       0       0       0       0       0       0       0       0       0       0       
      +0       0
  3857 ;;      Locals:         0       0       0       0       0       0       0       0       0       0       0       0       
      +0       0
  3858 ;;      Temps:          0       0       0       0       0       0       0       0       0       0       0       0       
      +0       0
  3859 ;;      Totals:         0       0       0       0       0       0       0       0       0       0       0       0       
      +0       0
  3860 ;;Total ram usage:        0 bytes
  3861 ;; Hardware stack levels used: 1
  3862 ;; Hardware stack levels required when called: 1
  3863 ;; This function calls:
  3864 ;;		_I2C_MasterEnableRestart
  3865 ;; This function is called by:
  3866 ;;		_I2C_DO_TX_EMPTY
  3867 ;;		_I2C_DO_ADDRESS_NACK
  3868 ;;		_I2C_MasterFsm
  3869 ;; This function uses a non-reentrant model
  3870 ;;
  3871                           
  3872  038A                     _I2C_DO_SEND_RESTART:	
  3873                           ;psect for function _I2C_DO_SEND_RESTART
  3874                           
  3875  038A                     l2013:	
  3876                           ;incstack = 0
  3877                           ; Regs used in _I2C_DO_SEND_RESTART: [wreg+status,2+status,0+pclath+cstack]
  3878                           
  3879                           
  3880                           ;mcc_generated_files/i2c_master.c: 419:     I2C_MasterEnableRestart();
  3881  038A  3183  235B  3183   	fcall	_I2C_MasterEnableRestart
  3882  038D                     l2015:
  3883                           
  3884                           ;mcc_generated_files/i2c_master.c: 420:     return I2C_SEND_ADR_READ;
  3885  038D  3001               	movlw	1
  3886  038E                     l284:
  3887  038E  0008               	return
  3888  038F                     __end_of_I2C_DO_SEND_RESTART:
  3889                           
  3890                           	psect	text26
  3891  0385                     __ptext26:	
  3892 ;; *************** function _I2C_DO_SEND_RESTART_WRITE *****************
  3893 ;; Defined at:
  3894 ;;		line 410 in file "mcc_generated_files/i2c_master.c"
  3895 ;; Parameters:    Size  Location     Type
  3896 ;;		None
  3897 ;; Auto vars:     Size  Location     Type
  3898 ;;		None
  3899 ;; Return value:  Size  Location     Type
  3900 ;;                  1    wreg      enum E3373
  3901 ;; Registers used:
  3902 ;;		wreg, status,2, status,0, pclath, cstack
  3903 ;; Tracked objects:
  3904 ;;		On entry : 0/0
  3905 ;;		On exit  : 0/0
  3906 ;;		Unchanged: 0/0
  3907 ;; Data sizes:     COMMON   BANK0   BANK1   BANK2   BANK3   BANK4   BANK5   BANK6   BANK7   BANK8   BANK9  BANK10  BANK1
      +1  BANK12
  3908 ;;      Params:         0       0       0       0       0       0       0       0       0       0       0       0       
      +0       0
  3909 ;;      Locals:         0       0       0       0       0       0       0       0       0       0       0       0       
      +0       0
  3910 ;;      Temps:          0       0       0       0       0       0       0       0       0       0       0       0       
      +0       0
  3911 ;;      Totals:         0       0       0       0       0       0       0       0       0       0       0       0       
      +0       0
  3912 ;;Total ram usage:        0 bytes
  3913 ;; Hardware stack levels used: 1
  3914 ;; Hardware stack levels required when called: 1
  3915 ;; This function calls:
  3916 ;;		_I2C_MasterEnableRestart
  3917 ;; This function is called by:
  3918 ;;		_I2C_DO_TX
  3919 ;;		_I2C_MasterFsm
  3920 ;; This function uses a non-reentrant model
  3921 ;;
  3922                           
  3923  0385                     _I2C_DO_SEND_RESTART_WRITE:	
  3924                           ;psect for function _I2C_DO_SEND_RESTART_WRITE
  3925                           
  3926  0385                     l1981:	
  3927                           ;incstack = 0
  3928                           ; Regs used in _I2C_DO_SEND_RESTART_WRITE: [wreg+status,2+status,0+pclath+cstack]
  3929                           
  3930                           
  3931                           ;mcc_generated_files/i2c_master.c: 412:     I2C_MasterEnableRestart();
  3932  0385  3183  235B  3183   	fcall	_I2C_MasterEnableRestart
  3933  0388                     l1983:
  3934                           
  3935                           ;mcc_generated_files/i2c_master.c: 413:     return I2C_SEND_ADR_WRITE;
  3936  0388  3002               	movlw	2
  3937  0389                     l281:
  3938  0389  0008               	return
  3939  038A                     __end_of_I2C_DO_SEND_RESTART_WRITE:
  3940                           
  3941                           	psect	text27
  3942  0380                     __ptext27:	
  3943 ;; *************** function _I2C_DO_SEND_RESTART_READ *****************
  3944 ;; Defined at:
  3945 ;;		line 404 in file "mcc_generated_files/i2c_master.c"
  3946 ;; Parameters:    Size  Location     Type
  3947 ;;		None
  3948 ;; Auto vars:     Size  Location     Type
  3949 ;;		None
  3950 ;; Return value:  Size  Location     Type
  3951 ;;                  1    wreg      enum E3373
  3952 ;; Registers used:
  3953 ;;		wreg, status,2, status,0, pclath, cstack
  3954 ;; Tracked objects:
  3955 ;;		On entry : 0/0
  3956 ;;		On exit  : 0/0
  3957 ;;		Unchanged: 0/0
  3958 ;; Data sizes:     COMMON   BANK0   BANK1   BANK2   BANK3   BANK4   BANK5   BANK6   BANK7   BANK8   BANK9  BANK10  BANK1
      +1  BANK12
  3959 ;;      Params:         0       0       0       0       0       0       0       0       0       0       0       0       
      +0       0
  3960 ;;      Locals:         0       0       0       0       0       0       0       0       0       0       0       0       
      +0       0
  3961 ;;      Temps:          0       0       0       0       0       0       0       0       0       0       0       0       
      +0       0
  3962 ;;      Totals:         0       0       0       0       0       0       0       0       0       0       0       0       
      +0       0
  3963 ;;Total ram usage:        0 bytes
  3964 ;; Hardware stack levels used: 1
  3965 ;; Hardware stack levels required when called: 1
  3966 ;; This function calls:
  3967 ;;		_I2C_MasterEnableRestart
  3968 ;; This function is called by:
  3969 ;;		_I2C_DO_TX
  3970 ;;		_I2C_MasterFsm
  3971 ;; This function uses a non-reentrant model
  3972 ;;
  3973                           
  3974  0380                     _I2C_DO_SEND_RESTART_READ:	
  3975                           ;psect for function _I2C_DO_SEND_RESTART_READ
  3976                           
  3977  0380                     l1975:	
  3978                           ;incstack = 0
  3979                           ; Regs used in _I2C_DO_SEND_RESTART_READ: [wreg+status,2+status,0+pclath+cstack]
  3980                           
  3981                           
  3982                           ;mcc_generated_files/i2c_master.c: 406:     I2C_MasterEnableRestart();
  3983  0380  3183  235B  3183   	fcall	_I2C_MasterEnableRestart
  3984  0383                     l1977:
  3985                           
  3986                           ;mcc_generated_files/i2c_master.c: 407:     return I2C_SEND_ADR_READ;
  3987  0383  3001               	movlw	1
  3988  0384                     l278:
  3989  0384  0008               	return
  3990  0385                     __end_of_I2C_DO_SEND_RESTART_READ:
  3991                           
  3992                           	psect	text28
  3993  03C4                     __ptext28:	
  3994 ;; *************** function _I2C_DO_RCEN *****************
  3995 ;; Defined at:
  3996 ;;		line 356 in file "mcc_generated_files/i2c_master.c"
  3997 ;; Parameters:    Size  Location     Type
  3998 ;;		None
  3999 ;; Auto vars:     Size  Location     Type
  4000 ;;		None
  4001 ;; Return value:  Size  Location     Type
  4002 ;;                  1    wreg      enum E3373
  4003 ;; Registers used:
  4004 ;;		wreg, status,2, status,0, pclath, cstack
  4005 ;; Tracked objects:
  4006 ;;		On entry : 0/0
  4007 ;;		On exit  : 0/0
  4008 ;;		Unchanged: 0/0
  4009 ;; Data sizes:     COMMON   BANK0   BANK1   BANK2   BANK3   BANK4   BANK5   BANK6   BANK7   BANK8   BANK9  BANK10  BANK1
      +1  BANK12
  4010 ;;      Params:         0       0       0       0       0       0       0       0       0       0       0       0       
      +0       0
  4011 ;;      Locals:         0       0       0       0       0       0       0       0       0       0       0       0       
      +0       0
  4012 ;;      Temps:          0       0       0       0       0       0       0       0       0       0       0       0       
      +0       0
  4013 ;;      Totals:         0       0       0       0       0       0       0       0       0       0       0       0       
      +0       0
  4014 ;;Total ram usage:        0 bytes
  4015 ;; Hardware stack levels used: 1
  4016 ;; Hardware stack levels required when called: 1
  4017 ;; This function calls:
  4018 ;;		_I2C_MasterStartRx
  4019 ;; This function is called by:
  4020 ;;		_I2C_MasterFsm
  4021 ;; This function uses a non-reentrant model
  4022 ;;
  4023                           
  4024  03C4                     _I2C_DO_RCEN:	
  4025                           ;psect for function _I2C_DO_RCEN
  4026                           
  4027  03C4                     l2149:	
  4028                           ;incstack = 0
  4029                           ; Regs used in _I2C_DO_RCEN: [wreg+status,2+status,0+pclath+cstack]
  4030                           
  4031                           
  4032                           ;mcc_generated_files/i2c_master.c: 358:     I2C_Status.addressNackCheck = 0;
  4033  03C4  0020               	movlb	0	; select bank0
  4034  03C5  103C               	bcf	_I2C_Status+28,0
  4035  03C6                     l2151:
  4036                           
  4037                           ;mcc_generated_files/i2c_master.c: 359:     I2C_MasterStartRx();
  4038  03C6  3183  2361  3183   	fcall	_I2C_MasterStartRx
  4039  03C9                     l2153:
  4040                           
  4041                           ;mcc_generated_files/i2c_master.c: 360:     return I2C_RX;
  4042  03C9  3004               	movlw	4
  4043  03CA                     l254:
  4044  03CA  0008               	return
  4045  03CB                     __end_of_I2C_DO_RCEN:
  4046                           
  4047                           	psect	text29
  4048  0614                     __ptext29:	
  4049 ;; *************** function _I2C_DO_RX *****************
  4050 ;; Defined at:
  4051 ;;		line 332 in file "mcc_generated_files/i2c_master.c"
  4052 ;; Parameters:    Size  Location     Type
  4053 ;;		None
  4054 ;; Auto vars:     Size  Location     Type
  4055 ;;		None
  4056 ;; Return value:  Size  Location     Type
  4057 ;;                  1    wreg      enum E3373
  4058 ;; Registers used:
  4059 ;;		wreg, fsr0l, fsr0h, fsr1l, fsr1h, status,2, status,0, pclath, cstack
  4060 ;; Tracked objects:
  4061 ;;		On entry : 0/0
  4062 ;;		On exit  : 0/0
  4063 ;;		Unchanged: 0/0
  4064 ;; Data sizes:     COMMON   BANK0   BANK1   BANK2   BANK3   BANK4   BANK5   BANK6   BANK7   BANK8   BANK9  BANK10  BANK1
      +1  BANK12
  4065 ;;      Params:         0       0       0       0       0       0       0       0       0       0       0       0       
      +0       0
  4066 ;;      Locals:         0       0       0       0       0       0       0       0       0       0       0       0       
      +0       0
  4067 ;;      Temps:          3       0       0       0       0       0       0       0       0       0       0       0       
      +0       0
  4068 ;;      Totals:         3       0       0       0       0       0       0       0       0       0       0       0       
      +0       0
  4069 ;;Total ram usage:        3 bytes
  4070 ;; Hardware stack levels used: 1
  4071 ;; Hardware stack levels required when called: 3
  4072 ;; This function calls:
  4073 ;;		Absolute function
  4074 ;;		_I2C_CallbackReturnReset
  4075 ;;		_I2C_CallbackReturnStop
  4076 ;;		_I2C_DO_RX_NACK_RESTART
  4077 ;;		_I2C_DO_RX_NACK_STOP
  4078 ;;		_I2C_MasterGetRxData
  4079 ;;		_I2C_MasterSendAck
  4080 ;;		_rd1RegCompleteHandler
  4081 ;;		_rdBlkRegCompleteHandler
  4082 ;;		_wr1RegCompleteHandler
  4083 ;;		_wr2RegCompleteHandler
  4084 ;; This function is called by:
  4085 ;;		_I2C_MasterFsm
  4086 ;; This function uses a non-reentrant model
  4087 ;;
  4088                           
  4089  0614                     _I2C_DO_RX:	
  4090                           ;psect for function _I2C_DO_RX
  4091                           
  4092  0614                     l2119:	
  4093                           ;incstack = 0
  4094                           ; Regs used in _I2C_DO_RX: [wreg-fsr1h+status,2+status,0+pclath+cstack]
  4095                           
  4096                           
  4097                           ;mcc_generated_files/i2c_master.c: 334:     *I2C_Status.data_ptr++ = I2C_MasterGetRxData
      +                          ();
  4098  0614  3183  2364  3186   	fcall	_I2C_MasterGetRxData
  4099  0617  00F0               	movwf	??_I2C_DO_RX
  4100  0618  0020               	movlb	0	; select bank0
  4101  0619  0837               	movf	low ((_I2C_Status| 0+23)),w
  4102  061A  0086               	movwf	6
  4103  061B  0187               	clrf	7
  4104  061C  0870               	movf	??_I2C_DO_RX,w
  4105  061D  0081               	movwf	1
  4106  061E                     l2121:
  4107  061E  3001               	movlw	1
  4108  061F  00F0               	movwf	??_I2C_DO_RX
  4109  0620  0870               	movf	??_I2C_DO_RX,w
  4110  0621  07B7               	addwf	low ((_I2C_Status| 0+23)),f
  4111  0622                     l2123:
  4112                           
  4113                           ;mcc_generated_files/i2c_master.c: 335:     if(--I2C_Status.data_length)
  4114  0622  3001               	movlw	1
  4115  0623  02B8               	subwf	_I2C_Status+24,f
  4116  0624  3000               	movlw	0
  4117  0625  3BB9               	subwfb	_I2C_Status+25,f
  4118  0626  0838               	movf	_I2C_Status+24,w
  4119  0627  0439               	iorwf	_I2C_Status+25,w
  4120  0628  1903               	btfsc	3,2
  4121  0629  2E2B               	goto	u621
  4122  062A  2E2C               	goto	u620
  4123  062B                     u621:
  4124  062B  2E31               	goto	l242
  4125  062C                     u620:
  4126  062C                     l2125:
  4127                           
  4128                           ;mcc_generated_files/i2c_master.c: 336:     {;mcc_generated_files/i2c_master.c: 337:    
      +                               I2C_MasterSendAck();
  4129  062C  3183  236E  3186   	fcall	_I2C_MasterSendAck
  4130  062F                     l2127:
  4131                           
  4132                           ;mcc_generated_files/i2c_master.c: 338:         return I2C_RCEN;
  4133  062F  3005               	movlw	5
  4134  0630  2E59               	goto	l243
  4135  0631                     l242:	
  4136                           ;mcc_generated_files/i2c_master.c: 340:     else
  4137                           
  4138                           
  4139                           ;mcc_generated_files/i2c_master.c: 341:     {;mcc_generated_files/i2c_master.c: 342:    
      +                               I2C_Status.bufferFree = 1;
  4140  0631  15BC               	bsf	_I2C_Status+28,3
  4141                           
  4142                           ;mcc_generated_files/i2c_master.c: 343:         switch(I2C_Status.callbackTable[I2C_DATA
      +                          _COMPLETE](I2C_Status.callbackPayload[I2C_DATA_COMPLETE]))
  4143  0632  2E3B               	goto	l2143
  4144  0633                     l2133:
  4145                           
  4146                           ;mcc_generated_files/i2c_master.c: 347:                 return I2C_DO_RX_NACK_RESTART();
  4147  0633  3183  239E  3186   	fcall	_I2C_DO_RX_NACK_RESTART
  4148  0636  2E59               	goto	l243
  4149  0637                     l2137:
  4150                           
  4151                           ;mcc_generated_files/i2c_master.c: 351:                 return I2C_DO_RX_NACK_STOP();
  4152  0637  3183  2399  3186   	fcall	_I2C_DO_RX_NACK_STOP
  4153  063A  2E59               	goto	l243
  4154  063B                     l2143:
  4155  063B  082C               	movf	low ((_I2C_Status| 0+12)),w
  4156  063C  00F0               	movwf	??_I2C_DO_RX
  4157  063D  0870               	movf	??_I2C_DO_RX,w
  4158  063E  00F9               	movwf	rdBlkRegCompleteHandler@ptr
  4159  063F  0821               	movf	_I2C_Status+1,w
  4160  0640  008A               	movwf	10
  4161  0641  0820               	movf	_I2C_Status,w
  4162  0642  000A               	callw
  4163  0643  3186               	pagesel	$
  4164  0644  00F1               	movwf	??_I2C_DO_RX+1
  4165  0645  01F2               	clrf	??_I2C_DO_RX+2
  4166                           
  4167                           ; Switch on 2 bytes has been partitioned into a top level switch of size 1, and 1 sub-sw
      +                          itches
  4168                           ; Switch size 1, requested type "simple"
  4169                           ; Number of cases is 1, Range of values is 0 to 0
  4170                           ; switch strategies available:
  4171                           ; Name         Instructions Cycles
  4172                           ; simple_byte            4     3 (average)
  4173                           ; direct_byte            8     6 (fixed)
  4174                           ; jumptable            260     6 (fixed)
  4175                           ;	Chosen strategy is simple_byte
  4176  0646  0872               	movf	??_I2C_DO_RX+2,w
  4177  0647  3A00               	xorlw	0	; case 0
  4178  0648  1903               	skipnz
  4179  0649  2E4B               	goto	l2727
  4180  064A  2E37               	goto	l2137
  4181  064B                     l2727:
  4182                           
  4183                           ; Switch size 1, requested type "simple"
  4184                           ; Number of cases is 4, Range of values is 1 to 4
  4185                           ; switch strategies available:
  4186                           ; Name         Instructions Cycles
  4187                           ; simple_byte           13     7 (average)
  4188                           ; direct_byte           17     9 (fixed)
  4189                           ; jumptable            263     9 (fixed)
  4190                           ;	Chosen strategy is simple_byte
  4191  064B  0871               	movf	??_I2C_DO_RX+1,w
  4192  064C  3A01               	xorlw	1	; case 1
  4193  064D  1903               	skipnz
  4194  064E  2E37               	goto	l2137
  4195  064F  3A03               	xorlw	3	; case 2
  4196  0650  1903               	skipnz
  4197  0651  2E33               	goto	l2133
  4198  0652  3A01               	xorlw	1	; case 3
  4199  0653  1903               	skipnz
  4200  0654  2E33               	goto	l2133
  4201  0655  3A07               	xorlw	7	; case 4
  4202  0656  1903               	skipnz
  4203  0657  2E37               	goto	l2137
  4204  0658  2E37               	goto	l2137
  4205  0659                     l243:
  4206  0659  0008               	return
  4207  065A                     __end_of_I2C_DO_RX:
  4208                           
  4209                           	psect	text30
  4210  06AD                     __ptext30:	
  4211 ;; *************** function _I2C_DO_TX *****************
  4212 ;; Defined at:
  4213 ;;		line 308 in file "mcc_generated_files/i2c_master.c"
  4214 ;; Parameters:    Size  Location     Type
  4215 ;;		None
  4216 ;; Auto vars:     Size  Location     Type
  4217 ;;		None
  4218 ;; Return value:  Size  Location     Type
  4219 ;;                  1    wreg      enum E3373
  4220 ;; Registers used:
  4221 ;;		wreg, fsr0l, fsr0h, fsr1l, fsr1h, status,2, status,0, pclath, cstack
  4222 ;; Tracked objects:
  4223 ;;		On entry : 0/0
  4224 ;;		On exit  : 0/0
  4225 ;;		Unchanged: 0/0
  4226 ;; Data sizes:     COMMON   BANK0   BANK1   BANK2   BANK3   BANK4   BANK5   BANK6   BANK7   BANK8   BANK9  BANK10  BANK1
      +1  BANK12
  4227 ;;      Params:         0       0       0       0       0       0       0       0       0       0       0       0       
      +0       0
  4228 ;;      Locals:         0       0       0       0       0       0       0       0       0       0       0       0       
      +0       0
  4229 ;;      Temps:          3       0       0       0       0       0       0       0       0       0       0       0       
      +0       0
  4230 ;;      Totals:         3       0       0       0       0       0       0       0       0       0       0       0       
      +0       0
  4231 ;;Total ram usage:        3 bytes
  4232 ;; Hardware stack levels used: 1
  4233 ;; Hardware stack levels required when called: 3
  4234 ;; This function calls:
  4235 ;;		Absolute function
  4236 ;;		_I2C_CallbackReturnReset
  4237 ;;		_I2C_CallbackReturnStop
  4238 ;;		_I2C_DO_SEND_RESTART_READ
  4239 ;;		_I2C_DO_SEND_RESTART_WRITE
  4240 ;;		_I2C_DO_SEND_STOP
  4241 ;;		_I2C_MasterIsNack
  4242 ;;		_I2C_MasterSendTxData
  4243 ;;		_rd1RegCompleteHandler
  4244 ;;		_rdBlkRegCompleteHandler
  4245 ;;		_wr1RegCompleteHandler
  4246 ;;		_wr2RegCompleteHandler
  4247 ;; This function is called by:
  4248 ;;		_I2C_MasterFsm
  4249 ;; This function uses a non-reentrant model
  4250 ;;
  4251                           
  4252  06AD                     _I2C_DO_TX:	
  4253                           ;psect for function _I2C_DO_TX
  4254                           
  4255  06AD                     l2085:	
  4256                           ;incstack = 0
  4257                           ; Regs used in _I2C_DO_TX: [wreg-fsr1h+status,2+status,0+pclath+cstack]
  4258                           
  4259                           
  4260                           ;mcc_generated_files/i2c_master.c: 310:     if(I2C_MasterIsNack())
  4261  06AD  3183  23B2  3186   	fcall	_I2C_MasterIsNack
  4262  06B0  3A00               	xorlw	0
  4263  06B1  1903               	skipnz
  4264  06B2  2EB4               	goto	u601
  4265  06B3  2EB5               	goto	u600
  4266  06B4                     u601:
  4267  06B4  2EE5               	goto	l226
  4268  06B5                     u600:
  4269  06B5  2EC2               	goto	l2103
  4270  06B6                     l2089:
  4271                           
  4272                           ;mcc_generated_files/i2c_master.c: 315:                 return I2C_DO_SEND_RESTART_READ(
      +                          );
  4273  06B6  3183  2380  3186   	fcall	_I2C_DO_SEND_RESTART_READ
  4274  06B9  2F01               	goto	l229
  4275  06BA                     l2093:
  4276                           
  4277                           ;mcc_generated_files/i2c_master.c: 317:                   return I2C_DO_SEND_RESTART_WRI
      +                          TE();
  4278  06BA  3183  2385  3186   	fcall	_I2C_DO_SEND_RESTART_WRITE
  4279  06BD  2F01               	goto	l229
  4280  06BE                     l2097:
  4281                           
  4282                           ;mcc_generated_files/i2c_master.c: 321:                 return I2C_DO_SEND_STOP();
  4283  06BE  3183  238F  3186   	fcall	_I2C_DO_SEND_STOP
  4284  06C1  2F01               	goto	l229
  4285  06C2                     l2103:
  4286  06C2  0020               	movlb	0	; select bank0
  4287  06C3  082F               	movf	low ((_I2C_Status| 0+15)),w
  4288  06C4  00F1               	movwf	??_I2C_DO_TX
  4289  06C5  0871               	movf	??_I2C_DO_TX,w
  4290  06C6  00F9               	movwf	rdBlkRegCompleteHandler@ptr
  4291  06C7  3006               	movlw	6
  4292  06C8  3E20               	addlw	(low (_I2C_Status| 0))& (0+255)
  4293  06C9  0086               	movwf	6
  4294  06CA  0187               	clrf	7
  4295  06CB  3F41               	moviw [1]fsr1
  4296  06CC  008A               	movwf	10
  4297  06CD  3F40               	moviw [0]fsr1
  4298  06CE  000A               	callw
  4299  06CF  3186               	pagesel	$
  4300  06D0  00F2               	movwf	??_I2C_DO_TX+1
  4301  06D1  01F3               	clrf	??_I2C_DO_TX+2
  4302                           
  4303                           ; Switch on 2 bytes has been partitioned into a top level switch of size 1, and 1 sub-sw
      +                          itches
  4304                           ; Switch size 1, requested type "simple"
  4305                           ; Number of cases is 1, Range of values is 0 to 0
  4306                           ; switch strategies available:
  4307                           ; Name         Instructions Cycles
  4308                           ; simple_byte            4     3 (average)
  4309                           ; direct_byte            8     6 (fixed)
  4310                           ; jumptable            260     6 (fixed)
  4311                           ;	Chosen strategy is simple_byte
  4312  06D2  0873               	movf	??_I2C_DO_TX+2,w
  4313  06D3  3A00               	xorlw	0	; case 0
  4314  06D4  1903               	skipnz
  4315  06D5  2ED7               	goto	l2729
  4316  06D6  2EBE               	goto	l2097
  4317  06D7                     l2729:
  4318                           
  4319                           ; Switch size 1, requested type "simple"
  4320                           ; Number of cases is 4, Range of values is 1 to 4
  4321                           ; switch strategies available:
  4322                           ; Name         Instructions Cycles
  4323                           ; simple_byte           13     7 (average)
  4324                           ; direct_byte           17     9 (fixed)
  4325                           ; jumptable            263     9 (fixed)
  4326                           ;	Chosen strategy is simple_byte
  4327  06D7  0872               	movf	??_I2C_DO_TX+1,w
  4328  06D8  3A01               	xorlw	1	; case 1
  4329  06D9  1903               	skipnz
  4330  06DA  2EBE               	goto	l2097
  4331  06DB  3A03               	xorlw	3	; case 2
  4332  06DC  1903               	skipnz
  4333  06DD  2EB6               	goto	l2089
  4334  06DE  3A01               	xorlw	1	; case 3
  4335  06DF  1903               	skipnz
  4336  06E0  2EBA               	goto	l2093
  4337  06E1  3A07               	xorlw	7	; case 4
  4338  06E2  1903               	skipnz
  4339  06E3  2EBE               	goto	l2097
  4340  06E4  2EBE               	goto	l2097
  4341  06E5                     l226:	
  4342                           ;mcc_generated_files/i2c_master.c: 324:     else
  4343                           
  4344                           
  4345                           ;mcc_generated_files/i2c_master.c: 325:     {;mcc_generated_files/i2c_master.c: 326:    
      +                               I2C_Status.addressNackCheck = 0;
  4346  06E5  0020               	movlb	0	; select bank0
  4347  06E6  103C               	bcf	_I2C_Status+28,0
  4348  06E7                     l2105:
  4349                           
  4350                           ;mcc_generated_files/i2c_master.c: 327:         I2C_MasterSendTxData(*I2C_Status.data_pt
      +                          r++);
  4351  06E7  3017               	movlw	23
  4352  06E8  3E20               	addlw	(low (_I2C_Status| 0))& (0+255)
  4353  06E9  0086               	movwf	6
  4354  06EA  0187               	clrf	7
  4355  06EB  3F40               	moviw [0]fsr1
  4356  06EC  0084               	movwf	4
  4357  06ED  0185               	clrf	5
  4358  06EE  0A81               	incf	1,f
  4359  06EF  0800               	movf	0,w
  4360  06F0  3183  2376  3186   	fcall	_I2C_MasterSendTxData
  4361  06F3                     l2107:
  4362                           
  4363                           ;mcc_generated_files/i2c_master.c: 328:         return (--I2C_Status.data_length)?I2C_TX
      +                          :I2C_TX_EMPTY;
  4364  06F3  3001               	movlw	1
  4365  06F4  0020               	movlb	0	; select bank0
  4366  06F5  02B8               	subwf	_I2C_Status+24,f
  4367  06F6  3000               	movlw	0
  4368  06F7  3BB9               	subwfb	_I2C_Status+25,f
  4369  06F8  0838               	movf	_I2C_Status+24,w
  4370  06F9  0439               	iorwf	_I2C_Status+25,w
  4371  06FA  1D03               	btfss	3,2
  4372  06FB  2EFD               	goto	u611
  4373  06FC  2EFE               	goto	u610
  4374  06FD                     u611:
  4375  06FD  2F00               	goto	l2111
  4376  06FE                     u610:
  4377  06FE                     l2109:
  4378  06FE  3006               	movlw	6
  4379  06FF  2F01               	goto	l229
  4380  0700                     l2111:
  4381  0700  3003               	movlw	3
  4382  0701                     l229:
  4383  0701  0008               	return
  4384  0702                     __end_of_I2C_DO_TX:
  4385                           
  4386                           	psect	text31
  4387  03CB                     __ptext31:	
  4388 ;; *************** function _I2C_DO_SEND_ADR_WRITE *****************
  4389 ;; Defined at:
  4390 ;;		line 301 in file "mcc_generated_files/i2c_master.c"
  4391 ;; Parameters:    Size  Location     Type
  4392 ;;		None
  4393 ;; Auto vars:     Size  Location     Type
  4394 ;;		None
  4395 ;; Return value:  Size  Location     Type
  4396 ;;                  1    wreg      enum E3373
  4397 ;; Registers used:
  4398 ;;		wreg, status,2, status,0, pclath, cstack
  4399 ;; Tracked objects:
  4400 ;;		On entry : 0/0
  4401 ;;		On exit  : 0/0
  4402 ;;		Unchanged: 0/0
  4403 ;; Data sizes:     COMMON   BANK0   BANK1   BANK2   BANK3   BANK4   BANK5   BANK6   BANK7   BANK8   BANK9  BANK10  BANK1
      +1  BANK12
  4404 ;;      Params:         0       0       0       0       0       0       0       0       0       0       0       0       
      +0       0
  4405 ;;      Locals:         0       0       0       0       0       0       0       0       0       0       0       0       
      +0       0
  4406 ;;      Temps:          0       0       0       0       0       0       0       0       0       0       0       0       
      +0       0
  4407 ;;      Totals:         0       0       0       0       0       0       0       0       0       0       0       0       
      +0       0
  4408 ;;Total ram usage:        0 bytes
  4409 ;; Hardware stack levels used: 1
  4410 ;; Hardware stack levels required when called: 1
  4411 ;; This function calls:
  4412 ;;		_I2C_MasterSendTxData
  4413 ;; This function is called by:
  4414 ;;		_I2C_MasterFsm
  4415 ;; This function uses a non-reentrant model
  4416 ;;
  4417                           
  4418  03CB                     _I2C_DO_SEND_ADR_WRITE:	
  4419                           ;psect for function _I2C_DO_SEND_ADR_WRITE
  4420                           
  4421  03CB                     l2077:	
  4422                           ;incstack = 0
  4423                           ; Regs used in _I2C_DO_SEND_ADR_WRITE: [wreg+status,2+status,0+pclath+cstack]
  4424                           
  4425                           
  4426                           ;mcc_generated_files/i2c_master.c: 303:     I2C_Status.addressNackCheck = 1;
  4427  03CB  0020               	movlb	0	; select bank0
  4428  03CC  143C               	bsf	_I2C_Status+28,0
  4429  03CD                     l2079:
  4430                           
  4431                           ;mcc_generated_files/i2c_master.c: 304:     I2C_MasterSendTxData((uint8_t) (I2C_Status.a
      +                          ddress << 1));
  4432  03CD  3536               	lslf	_I2C_Status+22,w
  4433  03CE  3183  2376  3183   	fcall	_I2C_MasterSendTxData
  4434  03D1                     l2081:
  4435                           
  4436                           ;mcc_generated_files/i2c_master.c: 305:     return I2C_TX;
  4437  03D1  3003               	movlw	3
  4438  03D2                     l223:
  4439  03D2  0008               	return
  4440  03D3                     __end_of_I2C_DO_SEND_ADR_WRITE:
  4441                           
  4442                           	psect	text32
  4443  03D3                     __ptext32:	
  4444 ;; *************** function _I2C_DO_SEND_ADR_READ *****************
  4445 ;; Defined at:
  4446 ;;		line 294 in file "mcc_generated_files/i2c_master.c"
  4447 ;; Parameters:    Size  Location     Type
  4448 ;;		None
  4449 ;; Auto vars:     Size  Location     Type
  4450 ;;		None
  4451 ;; Return value:  Size  Location     Type
  4452 ;;                  1    wreg      enum E3373
  4453 ;; Registers used:
  4454 ;;		wreg, status,2, status,0, pclath, cstack
  4455 ;; Tracked objects:
  4456 ;;		On entry : 0/0
  4457 ;;		On exit  : 0/0
  4458 ;;		Unchanged: 0/0
  4459 ;; Data sizes:     COMMON   BANK0   BANK1   BANK2   BANK3   BANK4   BANK5   BANK6   BANK7   BANK8   BANK9  BANK10  BANK1
      +1  BANK12
  4460 ;;      Params:         0       0       0       0       0       0       0       0       0       0       0       0       
      +0       0
  4461 ;;      Locals:         0       0       0       0       0       0       0       0       0       0       0       0       
      +0       0
  4462 ;;      Temps:          0       0       0       0       0       0       0       0       0       0       0       0       
      +0       0
  4463 ;;      Totals:         0       0       0       0       0       0       0       0       0       0       0       0       
      +0       0
  4464 ;;Total ram usage:        0 bytes
  4465 ;; Hardware stack levels used: 1
  4466 ;; Hardware stack levels required when called: 1
  4467 ;; This function calls:
  4468 ;;		_I2C_MasterSendTxData
  4469 ;; This function is called by:
  4470 ;;		_I2C_MasterFsm
  4471 ;; This function uses a non-reentrant model
  4472 ;;
  4473                           
  4474  03D3                     _I2C_DO_SEND_ADR_READ:	
  4475                           ;psect for function _I2C_DO_SEND_ADR_READ
  4476                           
  4477  03D3                     l2069:	
  4478                           ;incstack = 0
  4479                           ; Regs used in _I2C_DO_SEND_ADR_READ: [wreg+status,2+status,0+pclath+cstack]
  4480                           
  4481                           
  4482                           ;mcc_generated_files/i2c_master.c: 296:     I2C_Status.addressNackCheck = 1;
  4483  03D3  0020               	movlb	0	; select bank0
  4484  03D4  143C               	bsf	_I2C_Status+28,0
  4485  03D5                     l2071:
  4486                           
  4487                           ;mcc_generated_files/i2c_master.c: 297:     I2C_MasterSendTxData((uint8_t) (I2C_Status.a
      +                          ddress << 1 | 1));
  4488  03D5  1403               	setc
  4489  03D6  0D36               	rlf	_I2C_Status+22,w
  4490  03D7  3183  2376  3183   	fcall	_I2C_MasterSendTxData
  4491  03DA                     l2073:
  4492                           
  4493                           ;mcc_generated_files/i2c_master.c: 298:     return I2C_RCEN;
  4494  03DA  3005               	movlw	5
  4495  03DB                     l220:
  4496  03DB  0008               	return
  4497  03DC                     __end_of_I2C_DO_SEND_ADR_READ:
  4498                           
  4499                           	psect	text33
  4500  037B                     __ptext33:	
  4501 ;; *************** function _I2C_DO_IDLE *****************
  4502 ;; Defined at:
  4503 ;;		line 287 in file "mcc_generated_files/i2c_master.c"
  4504 ;; Parameters:    Size  Location     Type
  4505 ;;		None
  4506 ;; Auto vars:     Size  Location     Type
  4507 ;;		None
  4508 ;; Return value:  Size  Location     Type
  4509 ;;                  1    wreg      enum E3373
  4510 ;; Registers used:
  4511 ;;		wreg, status,2
  4512 ;; Tracked objects:
  4513 ;;		On entry : 0/0
  4514 ;;		On exit  : 0/0
  4515 ;;		Unchanged: 0/0
  4516 ;; Data sizes:     COMMON   BANK0   BANK1   BANK2   BANK3   BANK4   BANK5   BANK6   BANK7   BANK8   BANK9  BANK10  BANK1
      +1  BANK12
  4517 ;;      Params:         0       0       0       0       0       0       0       0       0       0       0       0       
      +0       0
  4518 ;;      Locals:         0       0       0       0       0       0       0       0       0       0       0       0       
      +0       0
  4519 ;;      Temps:          0       0       0       0       0       0       0       0       0       0       0       0       
      +0       0
  4520 ;;      Totals:         0       0       0       0       0       0       0       0       0       0       0       0       
      +0       0
  4521 ;;Total ram usage:        0 bytes
  4522 ;; Hardware stack levels used: 1
  4523 ;; This function calls:
  4524 ;;		Nothing
  4525 ;; This function is called by:
  4526 ;;		_I2C_MasterFsm
  4527 ;; This function uses a non-reentrant model
  4528 ;;
  4529                           
  4530  037B                     _I2C_DO_IDLE:	
  4531                           ;psect for function _I2C_DO_IDLE
  4532                           
  4533  037B                     l2061:	
  4534                           ;incstack = 0
  4535                           ; Regs used in _I2C_DO_IDLE: [wreg+status,2]
  4536                           
  4537                           
  4538                           ;mcc_generated_files/i2c_master.c: 289:     I2C_Status.busy = 0;
  4539  037B  0020               	movlb	0	; select bank0
  4540  037C  10BC               	bcf	_I2C_Status+28,1
  4541  037D                     l2063:
  4542                           
  4543                           ;mcc_generated_files/i2c_master.c: 290:     I2C_Status.error = I2C_NOERR;
  4544  037D  01BB               	clrf	_I2C_Status+27
  4545  037E                     l2065:
  4546                           
  4547                           ;mcc_generated_files/i2c_master.c: 291:     return I2C_RESET;
  4548  037E  300E               	movlw	14
  4549  037F                     l217:
  4550  037F  0008               	return
  4551  0380                     __end_of_I2C_DO_IDLE:
  4552                           
  4553                           	psect	text34
  4554  05AB                     __ptext34:	
  4555 ;; *************** function _I2C_DO_TX_EMPTY *****************
  4556 ;; Defined at:
  4557 ;;		line 363 in file "mcc_generated_files/i2c_master.c"
  4558 ;; Parameters:    Size  Location     Type
  4559 ;;		None
  4560 ;; Auto vars:     Size  Location     Type
  4561 ;;		None
  4562 ;; Return value:  Size  Location     Type
  4563 ;;                  1    wreg      enum E3373
  4564 ;; Registers used:
  4565 ;;		wreg, fsr0l, fsr0h, fsr1l, fsr1h, status,2, status,0, pclath, cstack
  4566 ;; Tracked objects:
  4567 ;;		On entry : 0/0
  4568 ;;		On exit  : 0/0
  4569 ;;		Unchanged: 0/0
  4570 ;; Data sizes:     COMMON   BANK0   BANK1   BANK2   BANK3   BANK4   BANK5   BANK6   BANK7   BANK8   BANK9  BANK10  BANK1
      +1  BANK12
  4571 ;;      Params:         0       0       0       0       0       0       0       0       0       0       0       0       
      +0       0
  4572 ;;      Locals:         0       0       0       0       0       0       0       0       0       0       0       0       
      +0       0
  4573 ;;      Temps:          3       0       0       0       0       0       0       0       0       0       0       0       
      +0       0
  4574 ;;      Totals:         3       0       0       0       0       0       0       0       0       0       0       0       
      +0       0
  4575 ;;Total ram usage:        3 bytes
  4576 ;; Hardware stack levels used: 1
  4577 ;; Hardware stack levels required when called: 3
  4578 ;; This function calls:
  4579 ;;		Absolute function
  4580 ;;		_I2C_CallbackReturnReset
  4581 ;;		_I2C_CallbackReturnStop
  4582 ;;		_I2C_DO_SEND_RESTART
  4583 ;;		_I2C_DO_SEND_STOP
  4584 ;;		_I2C_MasterSetIrq
  4585 ;;		_rd1RegCompleteHandler
  4586 ;;		_rdBlkRegCompleteHandler
  4587 ;;		_wr1RegCompleteHandler
  4588 ;;		_wr2RegCompleteHandler
  4589 ;; This function is called by:
  4590 ;;		_I2C_MasterFsm
  4591 ;; This function uses a non-reentrant model
  4592 ;;
  4593                           
  4594  05AB                     _I2C_DO_TX_EMPTY:	
  4595                           ;psect for function _I2C_DO_TX_EMPTY
  4596                           
  4597  05AB                     l2157:	
  4598                           ;incstack = 0
  4599                           ; Regs used in _I2C_DO_TX_EMPTY: [wreg-fsr1h+status,2+status,0+pclath+cstack]
  4600                           
  4601                           
  4602                           ;mcc_generated_files/i2c_master.c: 365:     I2C_Status.bufferFree = 1;
  4603  05AB  0020               	movlb	0	; select bank0
  4604  05AC  15BC               	bsf	_I2C_Status+28,3
  4605                           
  4606                           ;mcc_generated_files/i2c_master.c: 366:     switch(I2C_Status.callbackTable[I2C_DATA_COM
      +                          PLETE](I2C_Status.callbackPayload[I2C_DATA_COMPLETE]))
  4607  05AD  2DBB               	goto	l2175
  4608  05AE                     l2159:
  4609                           
  4610                           ;mcc_generated_files/i2c_master.c: 370:             return I2C_DO_SEND_RESTART();
  4611  05AE  3183  238A  3185   	fcall	_I2C_DO_SEND_RESTART
  4612  05B1  2DD9               	goto	l260
  4613  05B2                     l2163:
  4614                           
  4615                           ;mcc_generated_files/i2c_master.c: 372:             I2C_MasterSetIrq();
  4616  05B2  3183  2367  3185   	fcall	_I2C_MasterSetIrq
  4617  05B5                     l2165:
  4618                           
  4619                           ;mcc_generated_files/i2c_master.c: 373:             return I2C_TX;
  4620  05B5  3003               	movlw	3
  4621  05B6  2DD9               	goto	l260
  4622  05B7                     l2169:
  4623                           
  4624                           ;mcc_generated_files/i2c_master.c: 376:             return I2C_DO_SEND_STOP();
  4625  05B7  3183  238F  3185   	fcall	_I2C_DO_SEND_STOP
  4626  05BA  2DD9               	goto	l260
  4627  05BB                     l2175:
  4628  05BB  082C               	movf	low ((_I2C_Status| 0+12)),w
  4629  05BC  00F0               	movwf	??_I2C_DO_TX_EMPTY
  4630  05BD  0870               	movf	??_I2C_DO_TX_EMPTY,w
  4631  05BE  00F9               	movwf	rdBlkRegCompleteHandler@ptr
  4632  05BF  0821               	movf	_I2C_Status+1,w
  4633  05C0  008A               	movwf	10
  4634  05C1  0820               	movf	_I2C_Status,w
  4635  05C2  000A               	callw
  4636  05C3  3185               	pagesel	$
  4637  05C4  00F1               	movwf	??_I2C_DO_TX_EMPTY+1
  4638  05C5  01F2               	clrf	??_I2C_DO_TX_EMPTY+2
  4639                           
  4640                           ; Switch on 2 bytes has been partitioned into a top level switch of size 1, and 1 sub-sw
      +                          itches
  4641                           ; Switch size 1, requested type "simple"
  4642                           ; Number of cases is 1, Range of values is 0 to 0
  4643                           ; switch strategies available:
  4644                           ; Name         Instructions Cycles
  4645                           ; simple_byte            4     3 (average)
  4646                           ; direct_byte            8     6 (fixed)
  4647                           ; jumptable            260     6 (fixed)
  4648                           ;	Chosen strategy is simple_byte
  4649  05C6  0872               	movf	??_I2C_DO_TX_EMPTY+2,w
  4650  05C7  3A00               	xorlw	0	; case 0
  4651  05C8  1903               	skipnz
  4652  05C9  2DCB               	goto	l2731
  4653  05CA  2DB7               	goto	l2169
  4654  05CB                     l2731:
  4655                           
  4656                           ; Switch size 1, requested type "simple"
  4657                           ; Number of cases is 4, Range of values is 1 to 4
  4658                           ; switch strategies available:
  4659                           ; Name         Instructions Cycles
  4660                           ; simple_byte           13     7 (average)
  4661                           ; direct_byte           17     9 (fixed)
  4662                           ; jumptable            263     9 (fixed)
  4663                           ;	Chosen strategy is simple_byte
  4664  05CB  0871               	movf	??_I2C_DO_TX_EMPTY+1,w
  4665  05CC  3A01               	xorlw	1	; case 1
  4666  05CD  1903               	skipnz
  4667  05CE  2DB7               	goto	l2169
  4668  05CF  3A03               	xorlw	3	; case 2
  4669  05D0  1903               	skipnz
  4670  05D1  2DAE               	goto	l2159
  4671  05D2  3A01               	xorlw	1	; case 3
  4672  05D3  1903               	skipnz
  4673  05D4  2DAE               	goto	l2159
  4674  05D5  3A07               	xorlw	7	; case 4
  4675  05D6  1903               	skipnz
  4676  05D7  2DB2               	goto	l2163
  4677  05D8  2DB7               	goto	l2169
  4678  05D9                     l260:
  4679  05D9  0008               	return
  4680  05DA                     __end_of_I2C_DO_TX_EMPTY:
  4681                           
  4682                           	psect	text35
  4683  0367                     __ptext35:	
  4684 ;; *************** function _I2C_MasterSetIrq *****************
  4685 ;; Defined at:
  4686 ;;		line 599 in file "mcc_generated_files/i2c_master.c"
  4687 ;; Parameters:    Size  Location     Type
  4688 ;;		None
  4689 ;; Auto vars:     Size  Location     Type
  4690 ;;		None
  4691 ;; Return value:  Size  Location     Type
  4692 ;;                  1    wreg      void 
  4693 ;; Registers used:
  4694 ;;		None
  4695 ;; Tracked objects:
  4696 ;;		On entry : 0/0
  4697 ;;		On exit  : 0/0
  4698 ;;		Unchanged: 0/0
  4699 ;; Data sizes:     COMMON   BANK0   BANK1   BANK2   BANK3   BANK4   BANK5   BANK6   BANK7   BANK8   BANK9  BANK10  BANK1
      +1  BANK12
  4700 ;;      Params:         0       0       0       0       0       0       0       0       0       0       0       0       
      +0       0
  4701 ;;      Locals:         0       0       0       0       0       0       0       0       0       0       0       0       
      +0       0
  4702 ;;      Temps:          0       0       0       0       0       0       0       0       0       0       0       0       
      +0       0
  4703 ;;      Totals:         0       0       0       0       0       0       0       0       0       0       0       0       
      +0       0
  4704 ;;Total ram usage:        0 bytes
  4705 ;; Hardware stack levels used: 1
  4706 ;; This function calls:
  4707 ;;		Nothing
  4708 ;; This function is called by:
  4709 ;;		_I2C_DO_TX_EMPTY
  4710 ;; This function uses a non-reentrant model
  4711 ;;
  4712                           
  4713  0367                     _I2C_MasterSetIrq:	
  4714                           ;psect for function _I2C_MasterSetIrq
  4715                           
  4716  0367                     l2019:	
  4717                           ;incstack = 0
  4718                           ; Regs used in _I2C_MasterSetIrq: []
  4719                           
  4720                           
  4721                           ;mcc_generated_files/i2c_master.c: 601:     PIR1bits.SSPIF = 1;
  4722  0367  0020               	movlb	0	; select bank0
  4723  0368  1591               	bsf	17,3	;volatile
  4724  0369                     l380:
  4725  0369  0008               	return
  4726  036A                     __end_of_I2C_MasterSetIrq:
  4727                           
  4728                           	psect	text36
  4729  03B2                     __ptext36:	
  4730 ;; *************** function _I2C_MasterIsNack *****************
  4731 ;; Defined at:
  4732 ;;		line 552 in file "mcc_generated_files/i2c_master.c"
  4733 ;; Parameters:    Size  Location     Type
  4734 ;;		None
  4735 ;; Auto vars:     Size  Location     Type
  4736 ;;		None
  4737 ;; Return value:  Size  Location     Type
  4738 ;;                  1    wreg      _Bool 
  4739 ;; Registers used:
  4740 ;;		wreg, status,2, status,0
  4741 ;; Tracked objects:
  4742 ;;		On entry : 0/0
  4743 ;;		On exit  : 0/0
  4744 ;;		Unchanged: 0/0
  4745 ;; Data sizes:     COMMON   BANK0   BANK1   BANK2   BANK3   BANK4   BANK5   BANK6   BANK7   BANK8   BANK9  BANK10  BANK1
      +1  BANK12
  4746 ;;      Params:         0       0       0       0       0       0       0       0       0       0       0       0       
      +0       0
  4747 ;;      Locals:         0       0       0       0       0       0       0       0       0       0       0       0       
      +0       0
  4748 ;;      Temps:          0       0       0       0       0       0       0       0       0       0       0       0       
      +0       0
  4749 ;;      Totals:         0       0       0       0       0       0       0       0       0       0       0       0       
      +0       0
  4750 ;;Total ram usage:        0 bytes
  4751 ;; Hardware stack levels used: 1
  4752 ;; This function calls:
  4753 ;;		Nothing
  4754 ;; This function is called by:
  4755 ;;		_I2C_MasterFsm
  4756 ;;		_I2C_DO_TX
  4757 ;; This function uses a non-reentrant model
  4758 ;;
  4759                           
  4760  03B2                     _I2C_MasterIsNack:	
  4761                           ;psect for function _I2C_MasterIsNack
  4762                           
  4763  03B2                     l1969:	
  4764                           ;incstack = 0
  4765                           ; Regs used in _I2C_MasterIsNack: [wreg+status,2+status,0]
  4766                           
  4767                           
  4768                           ;mcc_generated_files/i2c_master.c: 554:     return SSPCON2bits.ACKSTAT;
  4769  03B2  0024               	movlb	4	; select bank4
  4770  03B3  0E16               	swapf	22,w	;volatile
  4771  03B4  0C89               	rrf	9,f
  4772  03B5  0C89               	rrf	9,f
  4773  03B6  3901               	andlw	1
  4774  03B7                     l353:
  4775  03B7  0008               	return
  4776  03B8                     __end_of_I2C_MasterIsNack:
  4777                           
  4778                           	psect	text37
  4779  0376                     __ptext37:	
  4780 ;; *************** function _I2C_MasterSendTxData *****************
  4781 ;; Defined at:
  4782 ;;		line 522 in file "mcc_generated_files/i2c_master.c"
  4783 ;; Parameters:    Size  Location     Type
  4784 ;;  data            1    wreg     unsigned char 
  4785 ;; Auto vars:     Size  Location     Type
  4786 ;;  data            1    0[COMMON] unsigned char 
  4787 ;; Return value:  Size  Location     Type
  4788 ;;                  1    wreg      void 
  4789 ;; Registers used:
  4790 ;;		wreg
  4791 ;; Tracked objects:
  4792 ;;		On entry : 0/0
  4793 ;;		On exit  : 0/0
  4794 ;;		Unchanged: 0/0
  4795 ;; Data sizes:     COMMON   BANK0   BANK1   BANK2   BANK3   BANK4   BANK5   BANK6   BANK7   BANK8   BANK9  BANK10  BANK1
      +1  BANK12
  4796 ;;      Params:         0       0       0       0       0       0       0       0       0       0       0       0       
      +0       0
  4797 ;;      Locals:         1       0       0       0       0       0       0       0       0       0       0       0       
      +0       0
  4798 ;;      Temps:          0       0       0       0       0       0       0       0       0       0       0       0       
      +0       0
  4799 ;;      Totals:         1       0       0       0       0       0       0       0       0       0       0       0       
      +0       0
  4800 ;;Total ram usage:        1 bytes
  4801 ;; Hardware stack levels used: 1
  4802 ;; This function calls:
  4803 ;;		Nothing
  4804 ;; This function is called by:
  4805 ;;		_I2C_DO_SEND_ADR_READ
  4806 ;;		_I2C_DO_SEND_ADR_WRITE
  4807 ;;		_I2C_DO_TX
  4808 ;; This function uses a non-reentrant model
  4809 ;;
  4810                           
  4811  0376                     _I2C_MasterSendTxData:	
  4812                           ;psect for function _I2C_MasterSendTxData
  4813                           
  4814                           
  4815                           ;incstack = 0
  4816                           ; Regs used in _I2C_MasterSendTxData: [wreg]
  4817                           ;I2C_MasterSendTxData@data stored from wreg
  4818  0376  00F0               	movwf	I2C_MasterSendTxData@data
  4819  0377                     l1973:
  4820                           
  4821                           ;mcc_generated_files/i2c_master.c: 522: static __attribute__((inline)) void I2C_MasterSe
      +                          ndTxData(uint8_t data);mcc_generated_files/i2c_master.c: 523: {;mcc_generated_files/i2c_
      +                          master.c: 524:     SSPBUF = data;
  4822  0377  0870               	movf	I2C_MasterSendTxData@data,w
  4823  0378  0024               	movlb	4	; select bank4
  4824  0379  0091               	movwf	17	;volatile
  4825  037A                     l335:
  4826  037A  0008               	return
  4827  037B                     __end_of_I2C_MasterSendTxData:
  4828                           
  4829                           	psect	text38
  4830  036E                     __ptext38:	
  4831 ;; *************** function _I2C_MasterSendAck *****************
  4832 ;; Defined at:
  4833 ;;		line 557 in file "mcc_generated_files/i2c_master.c"
  4834 ;; Parameters:    Size  Location     Type
  4835 ;;		None
  4836 ;; Auto vars:     Size  Location     Type
  4837 ;;		None
  4838 ;; Return value:  Size  Location     Type
  4839 ;;                  1    wreg      void 
  4840 ;; Registers used:
  4841 ;;		None
  4842 ;; Tracked objects:
  4843 ;;		On entry : 0/0
  4844 ;;		On exit  : 0/0
  4845 ;;		Unchanged: 0/0
  4846 ;; Data sizes:     COMMON   BANK0   BANK1   BANK2   BANK3   BANK4   BANK5   BANK6   BANK7   BANK8   BANK9  BANK10  BANK1
      +1  BANK12
  4847 ;;      Params:         0       0       0       0       0       0       0       0       0       0       0       0       
      +0       0
  4848 ;;      Locals:         0       0       0       0       0       0       0       0       0       0       0       0       
      +0       0
  4849 ;;      Temps:          0       0       0       0       0       0       0       0       0       0       0       0       
      +0       0
  4850 ;;      Totals:         0       0       0       0       0       0       0       0       0       0       0       0       
      +0       0
  4851 ;;Total ram usage:        0 bytes
  4852 ;; Hardware stack levels used: 1
  4853 ;; This function calls:
  4854 ;;		Nothing
  4855 ;; This function is called by:
  4856 ;;		_I2C_DO_RX
  4857 ;;		_I2C_DO_RX_ACK
  4858 ;; This function uses a non-reentrant model
  4859 ;;
  4860                           
  4861  036E                     _I2C_MasterSendAck:	
  4862                           ;psect for function _I2C_MasterSendAck
  4863                           
  4864  036E                     l1997:	
  4865                           ;incstack = 0
  4866                           ; Regs used in _I2C_MasterSendAck: []
  4867                           
  4868                           
  4869                           ;mcc_generated_files/i2c_master.c: 559:     SSPCON2bits.ACKDT = 0;
  4870  036E  0024               	movlb	4	; select bank4
  4871  036F  1296               	bcf	22,5	;volatile
  4872                           
  4873                           ;mcc_generated_files/i2c_master.c: 560:     SSPCON2bits.ACKEN = 1;
  4874  0370  1616               	bsf	22,4	;volatile
  4875  0371                     l356:
  4876  0371  0008               	return
  4877  0372                     __end_of_I2C_MasterSendAck:
  4878                           
  4879                           	psect	text39
  4880  0364                     __ptext39:	
  4881 ;; *************** function _I2C_MasterGetRxData *****************
  4882 ;; Defined at:
  4883 ;;		line 517 in file "mcc_generated_files/i2c_master.c"
  4884 ;; Parameters:    Size  Location     Type
  4885 ;;		None
  4886 ;; Auto vars:     Size  Location     Type
  4887 ;;		None
  4888 ;; Return value:  Size  Location     Type
  4889 ;;                  1    wreg      unsigned char 
  4890 ;; Registers used:
  4891 ;;		wreg
  4892 ;; Tracked objects:
  4893 ;;		On entry : 0/0
  4894 ;;		On exit  : 0/0
  4895 ;;		Unchanged: 0/0
  4896 ;; Data sizes:     COMMON   BANK0   BANK1   BANK2   BANK3   BANK4   BANK5   BANK6   BANK7   BANK8   BANK9  BANK10  BANK1
      +1  BANK12
  4897 ;;      Params:         0       0       0       0       0       0       0       0       0       0       0       0       
      +0       0
  4898 ;;      Locals:         0       0       0       0       0       0       0       0       0       0       0       0       
      +0       0
  4899 ;;      Temps:          0       0       0       0       0       0       0       0       0       0       0       0       
      +0       0
  4900 ;;      Totals:         0       0       0       0       0       0       0       0       0       0       0       0       
      +0       0
  4901 ;;Total ram usage:        0 bytes
  4902 ;; Hardware stack levels used: 1
  4903 ;; This function calls:
  4904 ;;		Nothing
  4905 ;; This function is called by:
  4906 ;;		_I2C_DO_RX
  4907 ;; This function uses a non-reentrant model
  4908 ;;
  4909                           
  4910  0364                     _I2C_MasterGetRxData:	
  4911                           ;psect for function _I2C_MasterGetRxData
  4912                           
  4913  0364                     l1993:	
  4914                           ;incstack = 0
  4915                           ; Regs used in _I2C_MasterGetRxData: [wreg]
  4916                           
  4917                           
  4918                           ;mcc_generated_files/i2c_master.c: 519:     return SSPBUF;
  4919  0364  0024               	movlb	4	; select bank4
  4920  0365  0811               	movf	17,w	;volatile
  4921  0366                     l332:
  4922  0366  0008               	return
  4923  0367                     __end_of_I2C_MasterGetRxData:
  4924                           
  4925                           	psect	text40
  4926  036A                     __ptext40:	
  4927 ;; *************** function _I2C_MasterSendNack *****************
  4928 ;; Defined at:
  4929 ;;		line 563 in file "mcc_generated_files/i2c_master.c"
  4930 ;; Parameters:    Size  Location     Type
  4931 ;;		None
  4932 ;; Auto vars:     Size  Location     Type
  4933 ;;		None
  4934 ;; Return value:  Size  Location     Type
  4935 ;;                  1    wreg      void 
  4936 ;; Registers used:
  4937 ;;		None
  4938 ;; Tracked objects:
  4939 ;;		On entry : 0/0
  4940 ;;		On exit  : 0/0
  4941 ;;		Unchanged: 0/0
  4942 ;; Data sizes:     COMMON   BANK0   BANK1   BANK2   BANK3   BANK4   BANK5   BANK6   BANK7   BANK8   BANK9  BANK10  BANK1
      +1  BANK12
  4943 ;;      Params:         0       0       0       0       0       0       0       0       0       0       0       0       
      +0       0
  4944 ;;      Locals:         0       0       0       0       0       0       0       0       0       0       0       0       
      +0       0
  4945 ;;      Temps:          0       0       0       0       0       0       0       0       0       0       0       0       
      +0       0
  4946 ;;      Totals:         0       0       0       0       0       0       0       0       0       0       0       0       
      +0       0
  4947 ;;Total ram usage:        0 bytes
  4948 ;; Hardware stack levels used: 1
  4949 ;; This function calls:
  4950 ;;		Nothing
  4951 ;; This function is called by:
  4952 ;;		_I2C_DO_RX_NACK_STOP
  4953 ;;		_I2C_DO_RX_NACK_RESTART
  4954 ;; This function uses a non-reentrant model
  4955 ;;
  4956                           
  4957  036A                     _I2C_MasterSendNack:	
  4958                           ;psect for function _I2C_MasterSendNack
  4959                           
  4960  036A                     l1967:	
  4961                           ;incstack = 0
  4962                           ; Regs used in _I2C_MasterSendNack: []
  4963                           
  4964                           
  4965                           ;mcc_generated_files/i2c_master.c: 565:     SSPCON2bits.ACKDT = 1;
  4966  036A  0024               	movlb	4	; select bank4
  4967  036B  1696               	bsf	22,5	;volatile
  4968                           
  4969                           ;mcc_generated_files/i2c_master.c: 566:     SSPCON2bits.ACKEN = 1;
  4970  036C  1616               	bsf	22,4	;volatile
  4971  036D                     l359:
  4972  036D  0008               	return
  4973  036E                     __end_of_I2C_MasterSendNack:
  4974                           
  4975                           	psect	text41
  4976  0361                     __ptext41:	
  4977 ;; *************** function _I2C_MasterStartRx *****************
  4978 ;; Defined at:
  4979 ;;		line 537 in file "mcc_generated_files/i2c_master.c"
  4980 ;; Parameters:    Size  Location     Type
  4981 ;;		None
  4982 ;; Auto vars:     Size  Location     Type
  4983 ;;		None
  4984 ;; Return value:  Size  Location     Type
  4985 ;;                  1    wreg      void 
  4986 ;; Registers used:
  4987 ;;		None
  4988 ;; Tracked objects:
  4989 ;;		On entry : 0/0
  4990 ;;		On exit  : 0/0
  4991 ;;		Unchanged: 0/0
  4992 ;; Data sizes:     COMMON   BANK0   BANK1   BANK2   BANK3   BANK4   BANK5   BANK6   BANK7   BANK8   BANK9  BANK10  BANK1
      +1  BANK12
  4993 ;;      Params:         0       0       0       0       0       0       0       0       0       0       0       0       
      +0       0
  4994 ;;      Locals:         0       0       0       0       0       0       0       0       0       0       0       0       
      +0       0
  4995 ;;      Temps:          0       0       0       0       0       0       0       0       0       0       0       0       
      +0       0
  4996 ;;      Totals:         0       0       0       0       0       0       0       0       0       0       0       0       
      +0       0
  4997 ;;Total ram usage:        0 bytes
  4998 ;; Hardware stack levels used: 1
  4999 ;; This function calls:
  5000 ;;		Nothing
  5001 ;; This function is called by:
  5002 ;;		_I2C_DO_RCEN
  5003 ;; This function uses a non-reentrant model
  5004 ;;
  5005                           
  5006  0361                     _I2C_MasterStartRx:	
  5007                           ;psect for function _I2C_MasterStartRx
  5008                           
  5009  0361                     l2011:	
  5010                           ;incstack = 0
  5011                           ; Regs used in _I2C_MasterStartRx: []
  5012                           
  5013                           
  5014                           ;mcc_generated_files/i2c_master.c: 539:     SSPCON2bits.RCEN = 1;
  5015  0361  0024               	movlb	4	; select bank4
  5016  0362  1596               	bsf	22,3	;volatile
  5017  0363                     l344:
  5018  0363  0008               	return
  5019  0364                     __end_of_I2C_MasterStartRx:
  5020                           
  5021                           	psect	text42
  5022  0475                     __ptext42:	
  5023 ;; *************** function _rdBlkRegCompleteHandler *****************
  5024 ;; Defined at:
  5025 ;;		line 743 in file "mcc_generated_files/i2c_master.c"
  5026 ;; Parameters:    Size  Location     Type
  5027 ;;  ptr             1    9[COMMON] PTR void 
  5028 ;;		 -> I2C_ReadDataBlock@bufferBlock(3), I2C_Write2ByteRegister@data(2), I2C_Write1ByteRegister@data(1), I2C_Read2ByteR
      +egister@returnValue(1), 
  5029 ;;		 -> I2C_Read1ByteRegister@returnValue(1), NULL(0), 
  5030 ;; Auto vars:     Size  Location     Type
  5031 ;;		None
  5032 ;; Return value:  Size  Location     Type
  5033 ;;                  1    wreg      enum E360
  5034 ;; Registers used:
  5035 ;;		wreg, fsr1l, fsr1h, status,2, status,0, pclath, cstack
  5036 ;; Tracked objects:
  5037 ;;		On entry : 0/0
  5038 ;;		On exit  : 0/0
  5039 ;;		Unchanged: 0/0
  5040 ;; Data sizes:     COMMON   BANK0   BANK1   BANK2   BANK3   BANK4   BANK5   BANK6   BANK7   BANK8   BANK9  BANK10  BANK1
      +1  BANK12
  5041 ;;      Params:         1       0       0       0       0       0       0       0       0       0       0       0       
      +0       0
  5042 ;;      Locals:         0       0       0       0       0       0       0       0       0       0       0       0       
      +0       0
  5043 ;;      Temps:          0       0       0       0       0       0       0       0       0       0       0       0       
      +0       0
  5044 ;;      Totals:         1       0       0       0       0       0       0       0       0       0       0       0       
      +0       0
  5045 ;;Total ram usage:        1 bytes
  5046 ;; Hardware stack levels used: 1
  5047 ;; Hardware stack levels required when called: 2
  5048 ;; This function calls:
  5049 ;;		_I2C_SetBuffer
  5050 ;;		_I2C_SetDataCompleteCallback
  5051 ;; This function is called by:
  5052 ;;		_I2C_ReadDataBlock
  5053 ;;		_I2C_DO_TX
  5054 ;;		_I2C_DO_RX
  5055 ;;		_I2C_DO_TX_EMPTY
  5056 ;;		_I2C_DO_ADDRESS_NACK
  5057 ;;		_I2C_DO_RX_EMPTY
  5058 ;; This function uses a non-reentrant model
  5059 ;;
  5060                           
  5061  0475                     _rdBlkRegCompleteHandler:	
  5062                           ;psect for function _rdBlkRegCompleteHandler
  5063                           
  5064  0475                     l2053:	
  5065                           ;incstack = 0
  5066                           ; Regs used in _rdBlkRegCompleteHandler: [wreg+fsr1l+fsr1h+status,2+status,0+pclath+csta
      +                          ck]
  5067                           
  5068                           
  5069                           ;mcc_generated_files/i2c_master.c: 743: static i2c_operations_t rdBlkRegCompleteHandler(
      +                          void *ptr);mcc_generated_files/i2c_master.c: 744: {;mcc_generated_files/i2c_master.c: 74
      +                          5:     I2C_SetBuffer(((i2c_buffer_t *)ptr)->data,((i2c_buffer_t*)ptr)->len);
  5070  0475  0879               	movf	rdBlkRegCompleteHandler@ptr,w
  5071  0476  0086               	movwf	6
  5072  0477  0187               	clrf	7
  5073  0478  3F40               	moviw [0]fsr1
  5074  0479  00F0               	movwf	I2C_SetBuffer@bufferSize
  5075  047A  3F41               	moviw [1]fsr1
  5076  047B  00F1               	movwf	I2C_SetBuffer@bufferSize+1
  5077  047C  0879               	movf	rdBlkRegCompleteHandler@ptr,w
  5078  047D  3E02               	addlw	2
  5079  047E  0086               	movwf	6
  5080  047F  0187               	clrf	7
  5081  0480  0801               	movf	1,w
  5082  0481  3184  2432  3184   	fcall	_I2C_SetBuffer
  5083                           
  5084                           ;mcc_generated_files/i2c_master.c: 746:     I2C_SetDataCompleteCallback(((void*)0),((voi
      +                          d*)0));
  5085  0484  3000               	movlw	0
  5086  0485  00F5               	movwf	I2C_SetDataCompleteCallback@cb
  5087  0486  00F6               	movwf	I2C_SetDataCompleteCallback@cb+1
  5088  0487  01F7               	clrf	I2C_SetDataCompleteCallback@ptr
  5089  0488  3183  23F1  3184   	fcall	_I2C_SetDataCompleteCallback
  5090  048B                     l2055:
  5091                           
  5092                           ;mcc_generated_files/i2c_master.c: 747:     return I2C_RESTART_READ;
  5093  048B  3002               	movlw	2
  5094  048C                     l465:
  5095  048C  0008               	return
  5096  048D                     __end_of_rdBlkRegCompleteHandler:
  5097                           
  5098                           	psect	text43
  5099  0464                     __ptext43:	
  5100 ;; *************** function _wr1RegCompleteHandler *****************
  5101 ;; Defined at:
  5102 ;;		line 729 in file "mcc_generated_files/i2c_master.c"
  5103 ;; Parameters:    Size  Location     Type
  5104 ;;  ptr             1    9[COMMON] PTR void 
  5105 ;;		 -> I2C_ReadDataBlock@bufferBlock(3), I2C_Write2ByteRegister@data(2), I2C_Write1ByteRegister@data(1), I2C_Read2ByteR
      +egister@returnValue(1), 
  5106 ;;		 -> I2C_Read1ByteRegister@returnValue(1), NULL(0), 
  5107 ;; Auto vars:     Size  Location     Type
  5108 ;;		None
  5109 ;; Return value:  Size  Location     Type
  5110 ;;                  1    wreg      enum E360
  5111 ;; Registers used:
  5112 ;;		wreg, fsr1l, fsr1h, status,2, status,0, pclath, cstack
  5113 ;; Tracked objects:
  5114 ;;		On entry : 0/0
  5115 ;;		On exit  : 0/0
  5116 ;;		Unchanged: 0/0
  5117 ;; Data sizes:     COMMON   BANK0   BANK1   BANK2   BANK3   BANK4   BANK5   BANK6   BANK7   BANK8   BANK9  BANK10  BANK1
      +1  BANK12
  5118 ;;      Params:         1       0       0       0       0       0       0       0       0       0       0       0       
      +0       0
  5119 ;;      Locals:         0       0       0       0       0       0       0       0       0       0       0       0       
      +0       0
  5120 ;;      Temps:          0       0       0       0       0       0       0       0       0       0       0       0       
      +0       0
  5121 ;;      Totals:         1       0       0       0       0       0       0       0       0       0       0       0       
      +0       0
  5122 ;;Total ram usage:        1 bytes
  5123 ;; Hardware stack levels used: 1
  5124 ;; Hardware stack levels required when called: 2
  5125 ;; This function calls:
  5126 ;;		_I2C_SetBuffer
  5127 ;;		_I2C_SetDataCompleteCallback
  5128 ;; This function is called by:
  5129 ;;		_I2C_Write1ByteRegister
  5130 ;;		_I2C_DO_TX
  5131 ;;		_I2C_DO_RX
  5132 ;;		_I2C_DO_TX_EMPTY
  5133 ;;		_I2C_DO_ADDRESS_NACK
  5134 ;;		_I2C_DO_RX_EMPTY
  5135 ;; This function uses a non-reentrant model
  5136 ;;
  5137                           
  5138  0464                     _wr1RegCompleteHandler:	
  5139                           ;psect for function _wr1RegCompleteHandler
  5140                           
  5141  0464                     l2037:	
  5142                           ;incstack = 0
  5143                           ; Regs used in _wr1RegCompleteHandler: [wreg+fsr1l+fsr1h+status,2+status,0+pclath+cstack
      +                          ]
  5144                           
  5145                           
  5146                           ;mcc_generated_files/i2c_master.c: 729: static i2c_operations_t wr1RegCompleteHandler(vo
      +                          id *ptr);mcc_generated_files/i2c_master.c: 730: {;mcc_generated_files/i2c_master.c: 731:
      +                               I2C_SetBuffer(ptr,1);
  5147  0464  3001               	movlw	1
  5148  0465  00F0               	movwf	I2C_SetBuffer@bufferSize
  5149  0466  3000               	movlw	0
  5150  0467  00F1               	movwf	I2C_SetBuffer@bufferSize+1
  5151  0468  0879               	movf	wr1RegCompleteHandler@ptr,w
  5152  0469  3184  2432  3184   	fcall	_I2C_SetBuffer
  5153  046C                     l2039:
  5154                           
  5155                           ;mcc_generated_files/i2c_master.c: 732:     I2C_SetDataCompleteCallback(((void*)0),((voi
      +                          d*)0));
  5156  046C  3000               	movlw	0
  5157  046D  00F5               	movwf	I2C_SetDataCompleteCallback@cb
  5158  046E  00F6               	movwf	I2C_SetDataCompleteCallback@cb+1
  5159  046F  01F7               	clrf	I2C_SetDataCompleteCallback@ptr
  5160  0470  3183  23F1  3184   	fcall	_I2C_SetDataCompleteCallback
  5161  0473                     l2041:
  5162                           
  5163                           ;mcc_generated_files/i2c_master.c: 733:     return I2C_CONTINUE;
  5164  0473  3004               	movlw	4
  5165  0474                     l459:
  5166  0474  0008               	return
  5167  0475                     __end_of_wr1RegCompleteHandler:
  5168                           
  5169                           	psect	text44
  5170  0453                     __ptext44:	
  5171 ;; *************** function _rd1RegCompleteHandler *****************
  5172 ;; Defined at:
  5173 ;;		line 715 in file "mcc_generated_files/i2c_master.c"
  5174 ;; Parameters:    Size  Location     Type
  5175 ;;  ptr             1    9[COMMON] PTR void 
  5176 ;;		 -> I2C_ReadDataBlock@bufferBlock(3), I2C_Write2ByteRegister@data(2), I2C_Write1ByteRegister@data(1), I2C_Read2ByteR
      +egister@returnValue(1), 
  5177 ;;		 -> I2C_Read1ByteRegister@returnValue(1), NULL(0), 
  5178 ;; Auto vars:     Size  Location     Type
  5179 ;;		None
  5180 ;; Return value:  Size  Location     Type
  5181 ;;                  1    wreg      enum E360
  5182 ;; Registers used:
  5183 ;;		wreg, fsr1l, fsr1h, status,2, status,0, pclath, cstack
  5184 ;; Tracked objects:
  5185 ;;		On entry : 0/0
  5186 ;;		On exit  : 0/0
  5187 ;;		Unchanged: 0/0
  5188 ;; Data sizes:     COMMON   BANK0   BANK1   BANK2   BANK3   BANK4   BANK5   BANK6   BANK7   BANK8   BANK9  BANK10  BANK1
      +1  BANK12
  5189 ;;      Params:         1       0       0       0       0       0       0       0       0       0       0       0       
      +0       0
  5190 ;;      Locals:         0       0       0       0       0       0       0       0       0       0       0       0       
      +0       0
  5191 ;;      Temps:          0       0       0       0       0       0       0       0       0       0       0       0       
      +0       0
  5192 ;;      Totals:         1       0       0       0       0       0       0       0       0       0       0       0       
      +0       0
  5193 ;;Total ram usage:        1 bytes
  5194 ;; Hardware stack levels used: 1
  5195 ;; Hardware stack levels required when called: 2
  5196 ;; This function calls:
  5197 ;;		_I2C_SetBuffer
  5198 ;;		_I2C_SetDataCompleteCallback
  5199 ;; This function is called by:
  5200 ;;		_I2C_Read1ByteRegister
  5201 ;;		_I2C_Read2ByteRegister
  5202 ;;		_I2C_DO_TX
  5203 ;;		_I2C_DO_RX
  5204 ;;		_I2C_DO_TX_EMPTY
  5205 ;;		_I2C_DO_ADDRESS_NACK
  5206 ;;		_I2C_DO_RX_EMPTY
  5207 ;; This function uses a non-reentrant model
  5208 ;;
  5209                           
  5210  0453                     _rd1RegCompleteHandler:	
  5211                           ;psect for function _rd1RegCompleteHandler
  5212                           
  5213  0453                     l2029:	
  5214                           ;incstack = 0
  5215                           ; Regs used in _rd1RegCompleteHandler: [wreg+fsr1l+fsr1h+status,2+status,0+pclath+cstack
      +                          ]
  5216                           
  5217                           
  5218                           ;mcc_generated_files/i2c_master.c: 715: static i2c_operations_t rd1RegCompleteHandler(vo
      +                          id *ptr);mcc_generated_files/i2c_master.c: 716: {;mcc_generated_files/i2c_master.c: 717:
      +                               I2C_SetBuffer(ptr,1);
  5219  0453  3001               	movlw	1
  5220  0454  00F0               	movwf	I2C_SetBuffer@bufferSize
  5221  0455  3000               	movlw	0
  5222  0456  00F1               	movwf	I2C_SetBuffer@bufferSize+1
  5223  0457  0879               	movf	rd1RegCompleteHandler@ptr,w
  5224  0458  3184  2432  3184   	fcall	_I2C_SetBuffer
  5225  045B                     l2031:
  5226                           
  5227                           ;mcc_generated_files/i2c_master.c: 718:     I2C_SetDataCompleteCallback(((void*)0),((voi
      +                          d*)0));
  5228  045B  3000               	movlw	0
  5229  045C  00F5               	movwf	I2C_SetDataCompleteCallback@cb
  5230  045D  00F6               	movwf	I2C_SetDataCompleteCallback@cb+1
  5231  045E  01F7               	clrf	I2C_SetDataCompleteCallback@ptr
  5232  045F  3183  23F1  3184   	fcall	_I2C_SetDataCompleteCallback
  5233  0462                     l2033:
  5234                           
  5235                           ;mcc_generated_files/i2c_master.c: 719:     return I2C_RESTART_READ;
  5236  0462  3002               	movlw	2
  5237  0463                     l453:
  5238  0463  0008               	return
  5239  0464                     __end_of_rd1RegCompleteHandler:
  5240                           
  5241                           	psect	text45
  5242  034D                     __ptext45:	
  5243 ;; *************** function _I2C_CallbackReturnReset *****************
  5244 ;; Defined at:
  5245 ;;		line 479 in file "mcc_generated_files/i2c_master.c"
  5246 ;; Parameters:    Size  Location     Type
  5247 ;;  funPtr          1    9[COMMON] PTR void 
  5248 ;;		 -> I2C_ReadDataBlock@bufferBlock(3), I2C_Write2ByteRegister@data(2), I2C_Write1ByteRegister@data(1), I2C_Read2ByteR
      +egister@returnValue(1), 
  5249 ;;		 -> I2C_Read1ByteRegister@returnValue(1), NULL(0), 
  5250 ;; Auto vars:     Size  Location     Type
  5251 ;;		None
  5252 ;; Return value:  Size  Location     Type
  5253 ;;                  1    wreg      enum E360
  5254 ;; Registers used:
  5255 ;;		wreg
  5256 ;; Tracked objects:
  5257 ;;		On entry : 0/0
  5258 ;;		On exit  : 0/0
  5259 ;;		Unchanged: 0/0
  5260 ;; Data sizes:     COMMON   BANK0   BANK1   BANK2   BANK3   BANK4   BANK5   BANK6   BANK7   BANK8   BANK9  BANK10  BANK1
      +1  BANK12
  5261 ;;      Params:         1       0       0       0       0       0       0       0       0       0       0       0       
      +0       0
  5262 ;;      Locals:         0       0       0       0       0       0       0       0       0       0       0       0       
      +0       0
  5263 ;;      Temps:          0       0       0       0       0       0       0       0       0       0       0       0       
      +0       0
  5264 ;;      Totals:         1       0       0       0       0       0       0       0       0       0       0       0       
      +0       0
  5265 ;;Total ram usage:        1 bytes
  5266 ;; Hardware stack levels used: 1
  5267 ;; This function calls:
  5268 ;;		Nothing
  5269 ;; This function is called by:
  5270 ;;		_I2C_Open
  5271 ;;		_I2C_DO_TX
  5272 ;;		_I2C_DO_RX
  5273 ;;		_I2C_DO_TX_EMPTY
  5274 ;;		_I2C_DO_ADDRESS_NACK
  5275 ;;		_I2C_DO_RX_EMPTY
  5276 ;; This function uses a non-reentrant model
  5277 ;;
  5278                           
  5279  034D                     _I2C_CallbackReturnReset:	
  5280                           ;psect for function _I2C_CallbackReturnReset
  5281                           
  5282  034D                     l2025:	
  5283                           ;incstack = 0
  5284                           ; Regs used in _I2C_CallbackReturnReset: [wreg]
  5285                           
  5286                           
  5287                           ;mcc_generated_files/i2c_master.c: 479: i2c_operations_t I2C_CallbackReturnReset(void *f
      +                          unPtr);mcc_generated_files/i2c_master.c: 480: {;mcc_generated_files/i2c_master.c: 481:  
      +                             return I2C_RESET_LINK;
  5288  034D  3005               	movlw	5
  5289  034E                     l316:
  5290  034E  0008               	return
  5291  034F                     __end_of_I2C_CallbackReturnReset:
  5292                           
  5293                           	psect	text46
  5294  034B                     __ptext46:	
  5295 ;; *************** function _I2C_CallbackReturnStop *****************
  5296 ;; Defined at:
  5297 ;;		line 474 in file "mcc_generated_files/i2c_master.c"
  5298 ;; Parameters:    Size  Location     Type
  5299 ;;  funPtr          1    9[COMMON] PTR void 
  5300 ;;		 -> I2C_ReadDataBlock@bufferBlock(3), I2C_Write2ByteRegister@data(2), I2C_Write1ByteRegister@data(1), I2C_Read2ByteR
      +egister@returnValue(1), 
  5301 ;;		 -> I2C_Read1ByteRegister@returnValue(1), NULL(0), 
  5302 ;; Auto vars:     Size  Location     Type
  5303 ;;		None
  5304 ;; Return value:  Size  Location     Type
  5305 ;;                  1    wreg      enum E360
  5306 ;; Registers used:
  5307 ;;		wreg
  5308 ;; Tracked objects:
  5309 ;;		On entry : 0/0
  5310 ;;		On exit  : 0/0
  5311 ;;		Unchanged: 0/0
  5312 ;; Data sizes:     COMMON   BANK0   BANK1   BANK2   BANK3   BANK4   BANK5   BANK6   BANK7   BANK8   BANK9  BANK10  BANK1
      +1  BANK12
  5313 ;;      Params:         1       0       0       0       0       0       0       0       0       0       0       0       
      +0       0
  5314 ;;      Locals:         0       0       0       0       0       0       0       0       0       0       0       0       
      +0       0
  5315 ;;      Temps:          0       0       0       0       0       0       0       0       0       0       0       0       
      +0       0
  5316 ;;      Totals:         1       0       0       0       0       0       0       0       0       0       0       0       
      +0       0
  5317 ;;Total ram usage:        1 bytes
  5318 ;; Hardware stack levels used: 1
  5319 ;; This function calls:
  5320 ;;		Nothing
  5321 ;; This function is called by:
  5322 ;;		_I2C_Open
  5323 ;;		_I2C_SetCallback
  5324 ;;		_I2C_DO_TX
  5325 ;;		_I2C_DO_RX
  5326 ;;		_I2C_DO_TX_EMPTY
  5327 ;;		_I2C_DO_ADDRESS_NACK
  5328 ;;		_I2C_DO_RX_EMPTY
  5329 ;; This function uses a non-reentrant model
  5330 ;;
  5331                           
  5332  034B                     _I2C_CallbackReturnStop:	
  5333                           ;psect for function _I2C_CallbackReturnStop
  5334                           
  5335  034B                     l2021:	
  5336                           ;incstack = 0
  5337                           ; Regs used in _I2C_CallbackReturnStop: [wreg]
  5338                           
  5339                           
  5340                           ;mcc_generated_files/i2c_master.c: 474: i2c_operations_t I2C_CallbackReturnStop(void *fu
      +                          nPtr);mcc_generated_files/i2c_master.c: 475: {;mcc_generated_files/i2c_master.c: 476:   
      +                            return I2C_STOP;
  5341  034B  3001               	movlw	1
  5342  034C                     l313:
  5343  034C  0008               	return
  5344  034D                     __end_of_I2C_CallbackReturnStop:
  5345                           
  5346                           	psect	text47
  5347  0442                     __ptext47:	
  5348 ;; *************** function _wr2RegCompleteHandler *****************
  5349 ;; Defined at:
  5350 ;;		line 736 in file "mcc_generated_files/i2c_master.c"
  5351 ;; Parameters:    Size  Location     Type
  5352 ;;  ptr             1    9[COMMON] PTR void 
  5353 ;;		 -> I2C_ReadDataBlock@bufferBlock(3), I2C_Write2ByteRegister@data(2), I2C_Write1ByteRegister@data(1), I2C_Read2ByteR
      +egister@returnValue(1), 
  5354 ;;		 -> I2C_Read1ByteRegister@returnValue(1), NULL(0), 
  5355 ;; Auto vars:     Size  Location     Type
  5356 ;;		None
  5357 ;; Return value:  Size  Location     Type
  5358 ;;                  1    wreg      enum E360
  5359 ;; Registers used:
  5360 ;;		wreg, fsr1l, fsr1h, status,2, status,0, pclath, cstack
  5361 ;; Tracked objects:
  5362 ;;		On entry : 0/0
  5363 ;;		On exit  : 0/0
  5364 ;;		Unchanged: 0/0
  5365 ;; Data sizes:     COMMON   BANK0   BANK1   BANK2   BANK3   BANK4   BANK5   BANK6   BANK7   BANK8   BANK9  BANK10  BANK1
      +1  BANK12
  5366 ;;      Params:         1       0       0       0       0       0       0       0       0       0       0       0       
      +0       0
  5367 ;;      Locals:         0       0       0       0       0       0       0       0       0       0       0       0       
      +0       0
  5368 ;;      Temps:          0       0       0       0       0       0       0       0       0       0       0       0       
      +0       0
  5369 ;;      Totals:         1       0       0       0       0       0       0       0       0       0       0       0       
      +0       0
  5370 ;;Total ram usage:        1 bytes
  5371 ;; Hardware stack levels used: 1
  5372 ;; Hardware stack levels required when called: 2
  5373 ;; This function calls:
  5374 ;;		_I2C_SetBuffer
  5375 ;;		_I2C_SetDataCompleteCallback
  5376 ;; This function is called by:
  5377 ;;		_I2C_Write2ByteRegister
  5378 ;;		_I2C_DO_TX
  5379 ;;		_I2C_DO_RX
  5380 ;;		_I2C_DO_TX_EMPTY
  5381 ;;		_I2C_DO_ADDRESS_NACK
  5382 ;;		_I2C_DO_RX_EMPTY
  5383 ;; This function uses a non-reentrant model
  5384 ;;
  5385                           
  5386  0442                     _wr2RegCompleteHandler:	
  5387                           ;psect for function _wr2RegCompleteHandler
  5388                           
  5389  0442                     l2045:	
  5390                           ;incstack = 0
  5391                           ; Regs used in _wr2RegCompleteHandler: [wreg+fsr1l+fsr1h+status,2+status,0+pclath+cstack
      +                          ]
  5392                           
  5393                           
  5394                           ;mcc_generated_files/i2c_master.c: 736: static i2c_operations_t wr2RegCompleteHandler(vo
      +                          id *ptr);mcc_generated_files/i2c_master.c: 737: {;mcc_generated_files/i2c_master.c: 738:
      +                               I2C_SetBuffer(ptr,2);
  5395  0442  3002               	movlw	2
  5396  0443  00F0               	movwf	I2C_SetBuffer@bufferSize
  5397  0444  3000               	movlw	0
  5398  0445  00F1               	movwf	I2C_SetBuffer@bufferSize+1
  5399  0446  0879               	movf	wr2RegCompleteHandler@ptr,w
  5400  0447  3184  2432  3184   	fcall	_I2C_SetBuffer
  5401  044A                     l2047:
  5402                           
  5403                           ;mcc_generated_files/i2c_master.c: 739:     I2C_SetDataCompleteCallback(((void*)0),((voi
      +                          d*)0));
  5404  044A  3000               	movlw	0
  5405  044B  00F5               	movwf	I2C_SetDataCompleteCallback@cb
  5406  044C  00F6               	movwf	I2C_SetDataCompleteCallback@cb+1
  5407  044D  01F7               	clrf	I2C_SetDataCompleteCallback@ptr
  5408  044E  3183  23F1  3184   	fcall	_I2C_SetDataCompleteCallback
  5409  0451                     l2049:
  5410                           
  5411                           ;mcc_generated_files/i2c_master.c: 740:     return I2C_CONTINUE;
  5412  0451  3004               	movlw	4
  5413  0452                     l462:
  5414  0452  0008               	return
  5415  0453                     __end_of_wr2RegCompleteHandler:
  5416                           
  5417                           	psect	text48
  5418  03F1                     __ptext48:	
  5419 ;; *************** function _I2C_SetDataCompleteCallback *****************
  5420 ;; Defined at:
  5421 ;;		line 227 in file "mcc_generated_files/i2c_master.c"
  5422 ;; Parameters:    Size  Location     Type
  5423 ;;  cb              2    5[COMMON] PTR FTN(PTR void ,)enum 
  5424 ;;		 -> rdBlkRegCompleteHandler(1), wr2RegCompleteHandler(1), wr1RegCompleteHandler(1), rd1RegCompleteHandler(1), 
  5425 ;;		 -> Absolute function(1), 
  5426 ;;  ptr             1    7[COMMON] PTR void 
  5427 ;;		 -> I2C_ReadDataBlock@bufferBlock(3), I2C_Write2ByteRegister@data(2), I2C_Write1ByteRegister@data(1), I2C_Read2ByteR
      +egister@returnValue(1), 
  5428 ;;		 -> I2C_Read1ByteRegister@returnValue(1), NULL(0), 
  5429 ;; Auto vars:     Size  Location     Type
  5430 ;;		None
  5431 ;; Return value:  Size  Location     Type
  5432 ;;                  1    wreg      void 
  5433 ;; Registers used:
  5434 ;;		wreg, fsr1l, fsr1h, status,2, status,0, pclath, cstack
  5435 ;; Tracked objects:
  5436 ;;		On entry : 0/0
  5437 ;;		On exit  : 0/0
  5438 ;;		Unchanged: 0/0
  5439 ;; Data sizes:     COMMON   BANK0   BANK1   BANK2   BANK3   BANK4   BANK5   BANK6   BANK7   BANK8   BANK9  BANK10  BANK1
      +1  BANK12
  5440 ;;      Params:         3       0       0       0       0       0       0       0       0       0       0       0       
      +0       0
  5441 ;;      Locals:         0       0       0       0       0       0       0       0       0       0       0       0       
      +0       0
  5442 ;;      Temps:          1       0       0       0       0       0       0       0       0       0       0       0       
      +0       0
  5443 ;;      Totals:         4       0       0       0       0       0       0       0       0       0       0       0       
      +0       0
  5444 ;;Total ram usage:        4 bytes
  5445 ;; Hardware stack levels used: 1
  5446 ;; Hardware stack levels required when called: 1
  5447 ;; This function calls:
  5448 ;;		_I2C_SetCallback
  5449 ;; This function is called by:
  5450 ;;		_rd1RegCompleteHandler
  5451 ;;		_wr1RegCompleteHandler
  5452 ;;		_wr2RegCompleteHandler
  5453 ;;		_rdBlkRegCompleteHandler
  5454 ;;		_I2C_Read1ByteRegister
  5455 ;;		_I2C_Read2ByteRegister
  5456 ;;		_I2C_Write1ByteRegister
  5457 ;;		_I2C_Write2ByteRegister
  5458 ;;		_I2C_ReadDataBlock
  5459 ;;		_rd2RegCompleteHandler
  5460 ;; This function uses a non-reentrant model
  5461 ;;
  5462                           
  5463  03F1                     _I2C_SetDataCompleteCallback:	
  5464                           ;psect for function _I2C_SetDataCompleteCallback
  5465                           
  5466  03F1                     l1961:	
  5467                           ;incstack = 0
  5468                           ; Regs used in _I2C_SetDataCompleteCallback: [wreg+fsr1l+fsr1h+status,2+status,0+pclath+
      +                          cstack]
  5469                           
  5470                           
  5471                           ;mcc_generated_files/i2c_master.c: 227: void I2C_SetDataCompleteCallback(i2c_callback_t 
      +                          cb, void *ptr);mcc_generated_files/i2c_master.c: 228: {;mcc_generated_files/i2c_master.c
      +                          : 229:     I2C_SetCallback(I2C_DATA_COMPLETE, cb, ptr);
  5472  03F1  0876               	movf	I2C_SetDataCompleteCallback@cb+1,w
  5473  03F2  00F1               	movwf	I2C_SetCallback@cb+1
  5474  03F3  0875               	movf	I2C_SetDataCompleteCallback@cb,w
  5475  03F4  00F0               	movwf	I2C_SetCallback@cb
  5476  03F5  0877               	movf	I2C_SetDataCompleteCallback@ptr,w
  5477  03F6  00F8               	movwf	??_I2C_SetDataCompleteCallback
  5478  03F7  0878               	movf	??_I2C_SetDataCompleteCallback,w
  5479  03F8  00F2               	movwf	I2C_SetCallback@ptr
  5480  03F9  3000               	movlw	0
  5481  03FA  3185  252E  3183   	fcall	_I2C_SetCallback
  5482  03FD                     l187:
  5483  03FD  0008               	return
  5484  03FE                     __end_of_I2C_SetDataCompleteCallback:
  5485                           
  5486                           	psect	text49
  5487  052E                     __ptext49:	
  5488 ;; *************** function _I2C_SetCallback *****************
  5489 ;; Defined at:
  5490 ;;		line 252 in file "mcc_generated_files/i2c_master.c"
  5491 ;; Parameters:    Size  Location     Type
  5492 ;;  idx             1    wreg     enum E3391
  5493 ;;  cb              2    0[COMMON] PTR FTN(PTR void ,)enum 
  5494 ;;		 -> rdBlkRegCompleteHandler(1), wr2RegCompleteHandler(1), wr1RegCompleteHandler(1), rd1RegCompleteHandler(1), 
  5495 ;;		 -> Absolute function(1), 
  5496 ;;  ptr             1    2[COMMON] PTR void 
  5497 ;;		 -> I2C_ReadDataBlock@bufferBlock(3), I2C_Write2ByteRegister@data(2), I2C_Write1ByteRegister@data(1), I2C_Read2ByteR
      +egister@returnValue(1), 
  5498 ;;		 -> I2C_Read1ByteRegister@returnValue(1), NULL(0), 
  5499 ;; Auto vars:     Size  Location     Type
  5500 ;;  idx             1    4[COMMON] enum E3391
  5501 ;; Return value:  Size  Location     Type
  5502 ;;                  1    wreg      void 
  5503 ;; Registers used:
  5504 ;;		wreg, fsr1l, fsr1h, status,2, status,0
  5505 ;; Tracked objects:
  5506 ;;		On entry : 0/0
  5507 ;;		On exit  : 0/0
  5508 ;;		Unchanged: 0/0
  5509 ;; Data sizes:     COMMON   BANK0   BANK1   BANK2   BANK3   BANK4   BANK5   BANK6   BANK7   BANK8   BANK9  BANK10  BANK1
      +1  BANK12
  5510 ;;      Params:         3       0       0       0       0       0       0       0       0       0       0       0       
      +0       0
  5511 ;;      Locals:         1       0       0       0       0       0       0       0       0       0       0       0       
      +0       0
  5512 ;;      Temps:          1       0       0       0       0       0       0       0       0       0       0       0       
      +0       0
  5513 ;;      Totals:         5       0       0       0       0       0       0       0       0       0       0       0       
      +0       0
  5514 ;;Total ram usage:        5 bytes
  5515 ;; Hardware stack levels used: 1
  5516 ;; This function calls:
  5517 ;;		Nothing
  5518 ;; This function is called by:
  5519 ;;		_I2C_SetDataCompleteCallback
  5520 ;;		_I2C_SetAddressNackCallback
  5521 ;;		_I2C_SetWriteCollisionCallback
  5522 ;;		_I2C_SetDataNackCallback
  5523 ;;		_I2C_SetTimeoutCallback
  5524 ;; This function uses a non-reentrant model
  5525 ;;
  5526                           
  5527  052E                     _I2C_SetCallback:	
  5528                           ;psect for function _I2C_SetCallback
  5529                           
  5530                           
  5531                           ;incstack = 0
  5532                           ; Regs used in _I2C_SetCallback: [wreg+fsr1l+fsr1h+status,2+status,0]
  5533                           ;I2C_SetCallback@idx stored from wreg
  5534  052E  00F4               	movwf	I2C_SetCallback@idx
  5535  052F                     l1949:
  5536                           
  5537                           ;mcc_generated_files/i2c_master.c: 252: static void I2C_SetCallback(i2c_callbackIndex_t 
      +                          idx, i2c_callback_t cb, void *ptr);mcc_generated_files/i2c_master.c: 253: {;mcc_generate
      +                          d_files/i2c_master.c: 254:     if(cb)
  5538  052F  0870               	movf	I2C_SetCallback@cb,w
  5539  0530  0471               	iorwf	I2C_SetCallback@cb+1,w
  5540  0531  1903               	btfsc	3,2
  5541  0532  2D34               	goto	u581
  5542  0533  2D35               	goto	u580
  5543  0534                     u581:
  5544  0534  2D46               	goto	l1953
  5545  0535                     u580:
  5546  0535                     l1951:
  5547                           
  5548                           ;mcc_generated_files/i2c_master.c: 255:     {;mcc_generated_files/i2c_master.c: 256:    
      +                               I2C_Status.callbackTable[idx] = cb;
  5549  0535  3574               	lslf	I2C_SetCallback@idx,w
  5550  0536  3E20               	addlw	(low (_I2C_Status| 0))& (0+255)
  5551  0537  0086               	movwf	6
  5552  0538  0187               	clrf	7
  5553  0539  0870               	movf	I2C_SetCallback@cb,w
  5554  053A  3FC0               	movwi [0]fsr1
  5555  053B  0871               	movf	I2C_SetCallback@cb+1,w
  5556  053C  3FC1               	movwi [1]fsr1
  5557                           
  5558                           ;mcc_generated_files/i2c_master.c: 257:         I2C_Status.callbackPayload[idx] = ptr;
  5559  053D  0872               	movf	I2C_SetCallback@ptr,w
  5560  053E  00F3               	movwf	??_I2C_SetCallback
  5561  053F  0874               	movf	I2C_SetCallback@idx,w
  5562  0540  3E2C               	addlw	(low ((_I2C_Status| 0+12)))& (0+255)
  5563  0541  0086               	movwf	6
  5564  0542  0187               	clrf	7
  5565  0543  0873               	movf	??_I2C_SetCallback,w
  5566  0544  0081               	movwf	1
  5567                           
  5568                           ;mcc_generated_files/i2c_master.c: 258:     }
  5569  0545  2D53               	goto	l204
  5570  0546                     l1953:
  5571                           
  5572                           ;mcc_generated_files/i2c_master.c: 260:     {;mcc_generated_files/i2c_master.c: 261:    
      +                               I2C_Status.callbackTable[idx] = I2C_CallbackReturnStop;
  5573  0546  3574               	lslf	I2C_SetCallback@idx,w
  5574  0547  3E20               	addlw	(low (_I2C_Status| 0))& (0+255)
  5575  0548  0086               	movwf	6
  5576  0549  0187               	clrf	7
  5577  054A  304B               	movlw	low _I2C_CallbackReturnStop
  5578  054B  3FC0               	movwi [0]fsr1
  5579  054C  3003               	movlw	high _I2C_CallbackReturnStop
  5580  054D  3FC1               	movwi [1]fsr1
  5581                           
  5582                           ;mcc_generated_files/i2c_master.c: 262:         I2C_Status.callbackPayload[idx] = ((void
      +                          *)0);
  5583  054E  0874               	movf	I2C_SetCallback@idx,w
  5584  054F  3E2C               	addlw	(low ((_I2C_Status| 0+12)))& (0+255)
  5585  0550  0086               	movwf	6
  5586  0551  0187               	clrf	7
  5587  0552  0181               	clrf	1
  5588  0553                     l204:
  5589  0553  0008               	return
  5590  0554                     __end_of_I2C_SetCallback:
  5591                           
  5592                           	psect	text50
  5593  0432                     __ptext50:	
  5594 ;; *************** function _I2C_SetBuffer *****************
  5595 ;; Defined at:
  5596 ;;		line 217 in file "mcc_generated_files/i2c_master.c"
  5597 ;; Parameters:    Size  Location     Type
  5598 ;;  buffer          1    wreg     PTR void 
  5599 ;;		 -> I2C_Read1ByteRegister@returnValue.data(2), I2C_Read2ByteRegister@returnValue.data(2), I2C_Write1ByteRegister@dat
      +a.data(2), I2C_Write2ByteRegister@data.data(2), 
  5600 ;;		 -> I2C_Rd@returnValue(1), I2C_Wr@data(1), I2C_ReadDataBlock@reg(1), I2C_ReadDataBlock@bufferBlock(3), 
  5601 ;;		 -> bufferBlock.data(2), I2C_Write2ByteRegister@reg(1), I2C_Write2ByteRegister@data(2), I2C_Write1ByteRegister@reg(1
      +), 
  5602 ;;		 -> I2C_Write1ByteRegister@data(1), I2C_Read2ByteRegister@reg(1), I2C_Read2ByteRegister@returnValue(1), I2C_Read1Byt
      +eRegister@reg(1), 
  5603 ;;		 -> I2C_Read1ByteRegister@returnValue(1), NULL(0), 
  5604 ;;  bufferSize      2    0[COMMON] unsigned int 
  5605 ;; Auto vars:     Size  Location     Type
  5606 ;;  buffer          1    3[COMMON] PTR void 
  5607 ;;		 -> I2C_Read1ByteRegister@returnValue.data(2), I2C_Read2ByteRegister@returnValue.data(2), I2C_Write1ByteRegister@dat
      +a.data(2), I2C_Write2ByteRegister@data.data(2), 
  5608 ;;		 -> I2C_Rd@returnValue(1), I2C_Wr@data(1), I2C_ReadDataBlock@reg(1), I2C_ReadDataBlock@bufferBlock(3), 
  5609 ;;		 -> bufferBlock.data(2), I2C_Write2ByteRegister@reg(1), I2C_Write2ByteRegister@data(2), I2C_Write1ByteRegister@reg(1
      +), 
  5610 ;;		 -> I2C_Write1ByteRegister@data(1), I2C_Read2ByteRegister@reg(1), I2C_Read2ByteRegister@returnValue(1), I2C_Read1Byt
      +eRegister@reg(1), 
  5611 ;;		 -> I2C_Read1ByteRegister@returnValue(1), NULL(0), 
  5612 ;; Return value:  Size  Location     Type
  5613 ;;                  1    wreg      void 
  5614 ;; Registers used:
  5615 ;;		wreg
  5616 ;; Tracked objects:
  5617 ;;		On entry : 0/0
  5618 ;;		On exit  : 0/0
  5619 ;;		Unchanged: 0/0
  5620 ;; Data sizes:     COMMON   BANK0   BANK1   BANK2   BANK3   BANK4   BANK5   BANK6   BANK7   BANK8   BANK9  BANK10  BANK1
      +1  BANK12
  5621 ;;      Params:         2       0       0       0       0       0       0       0       0       0       0       0       
      +0       0
  5622 ;;      Locals:         1       0       0       0       0       0       0       0       0       0       0       0       
      +0       0
  5623 ;;      Temps:          1       0       0       0       0       0       0       0       0       0       0       0       
      +0       0
  5624 ;;      Totals:         4       0       0       0       0       0       0       0       0       0       0       0       
      +0       0
  5625 ;;Total ram usage:        4 bytes
  5626 ;; Hardware stack levels used: 1
  5627 ;; This function calls:
  5628 ;;		Nothing
  5629 ;; This function is called by:
  5630 ;;		_rd1RegCompleteHandler
  5631 ;;		_wr1RegCompleteHandler
  5632 ;;		_wr2RegCompleteHandler
  5633 ;;		_rdBlkRegCompleteHandler
  5634 ;;		_I2C_Wr
  5635 ;;		_I2C_Rd
  5636 ;;		_I2C_Read1ByteRegister
  5637 ;;		_I2C_Read2ByteRegister
  5638 ;;		_I2C_Write1ByteRegister
  5639 ;;		_I2C_Write2ByteRegister
  5640 ;;		_I2C_WriteNBytes
  5641 ;;		_I2C_ReadNBytes
  5642 ;;		_I2C_ReadDataBlock
  5643 ;;		_rd2RegCompleteHandler
  5644 ;; This function uses a non-reentrant model
  5645 ;;
  5646                           
  5647  0432                     _I2C_SetBuffer:	
  5648                           ;psect for function _I2C_SetBuffer
  5649                           
  5650                           
  5651                           ;incstack = 0
  5652                           ; Regs used in _I2C_SetBuffer: [wreg]
  5653                           ;I2C_SetBuffer@buffer stored from wreg
  5654  0432  00F3               	movwf	I2C_SetBuffer@buffer
  5655  0433                     l1955:
  5656                           
  5657                           ;mcc_generated_files/i2c_master.c: 217: void I2C_SetBuffer(void *buffer, size_t bufferSi
      +                          ze);mcc_generated_files/i2c_master.c: 218: {;mcc_generated_files/i2c_master.c: 219:     
      +                          if(I2C_Status.bufferFree)
  5658  0433  0020               	movlb	0	; select bank0
  5659  0434  1DBC               	btfss	_I2C_Status+28,3
  5660  0435  2C37               	goto	u591
  5661  0436  2C38               	goto	u590
  5662  0437                     u591:
  5663  0437  2C41               	goto	l184
  5664  0438                     u590:
  5665  0438                     l1957:
  5666                           
  5667                           ;mcc_generated_files/i2c_master.c: 220:     {;mcc_generated_files/i2c_master.c: 221:    
      +                               I2C_Status.data_ptr = buffer;
  5668  0438  0873               	movf	I2C_SetBuffer@buffer,w
  5669  0439  00F2               	movwf	??_I2C_SetBuffer
  5670  043A  0872               	movf	??_I2C_SetBuffer,w
  5671  043B  00B7               	movwf	low ((_I2C_Status| 0+23))
  5672                           
  5673                           ;mcc_generated_files/i2c_master.c: 222:         I2C_Status.data_length = bufferSize;
  5674  043C  0871               	movf	I2C_SetBuffer@bufferSize+1,w
  5675  043D  00B9               	movwf	_I2C_Status+25
  5676  043E  0870               	movf	I2C_SetBuffer@bufferSize,w
  5677  043F  00B8               	movwf	_I2C_Status+24
  5678  0440                     l1959:
  5679                           
  5680                           ;mcc_generated_files/i2c_master.c: 223:         I2C_Status.bufferFree = 0;
  5681  0440  11BC               	bcf	_I2C_Status+28,3
  5682  0441                     l184:
  5683  0441  0008               	return
  5684  0442                     __end_of_I2C_SetBuffer:
  5685                           
  5686                           	psect	text51
  5687  035E                     __ptext51:	
  5688 ;; *************** function _I2C_MasterStop *****************
  5689 ;; Defined at:
  5690 ;;		line 547 in file "mcc_generated_files/i2c_master.c"
  5691 ;; Parameters:    Size  Location     Type
  5692 ;;		None
  5693 ;; Auto vars:     Size  Location     Type
  5694 ;;		None
  5695 ;; Return value:  Size  Location     Type
  5696 ;;                  1    wreg      void 
  5697 ;; Registers used:
  5698 ;;		None
  5699 ;; Tracked objects:
  5700 ;;		On entry : 0/0
  5701 ;;		On exit  : 0/0
  5702 ;;		Unchanged: 0/0
  5703 ;; Data sizes:     COMMON   BANK0   BANK1   BANK2   BANK3   BANK4   BANK5   BANK6   BANK7   BANK8   BANK9  BANK10  BANK1
      +1  BANK12
  5704 ;;      Params:         0       0       0       0       0       0       0       0       0       0       0       0       
      +0       0
  5705 ;;      Locals:         0       0       0       0       0       0       0       0       0       0       0       0       
      +0       0
  5706 ;;      Temps:          0       0       0       0       0       0       0       0       0       0       0       0       
      +0       0
  5707 ;;      Totals:         0       0       0       0       0       0       0       0       0       0       0       0       
      +0       0
  5708 ;;Total ram usage:        0 bytes
  5709 ;; Hardware stack levels used: 1
  5710 ;; This function calls:
  5711 ;;		Nothing
  5712 ;; This function is called by:
  5713 ;;		_I2C_DO_SEND_STOP
  5714 ;; This function uses a non-reentrant model
  5715 ;;
  5716                           
  5717  035E                     _I2C_MasterStop:	
  5718                           ;psect for function _I2C_MasterStop
  5719                           
  5720  035E                     l1965:	
  5721                           ;incstack = 0
  5722                           ; Regs used in _I2C_MasterStop: []
  5723                           
  5724                           
  5725                           ;mcc_generated_files/i2c_master.c: 549:     SSPCON2bits.PEN = 1;
  5726  035E  0024               	movlb	4	; select bank4
  5727  035F  1516               	bsf	22,2	;volatile
  5728  0360                     l350:
  5729  0360  0008               	return
  5730  0361                     __end_of_I2C_MasterStop:
  5731                           
  5732                           	psect	text52
  5733  035B                     __ptext52:	
  5734 ;; *************** function _I2C_MasterEnableRestart *****************
  5735 ;; Defined at:
  5736 ;;		line 527 in file "mcc_generated_files/i2c_master.c"
  5737 ;; Parameters:    Size  Location     Type
  5738 ;;		None
  5739 ;; Auto vars:     Size  Location     Type
  5740 ;;		None
  5741 ;; Return value:  Size  Location     Type
  5742 ;;                  1    wreg      void 
  5743 ;; Registers used:
  5744 ;;		None
  5745 ;; Tracked objects:
  5746 ;;		On entry : 0/0
  5747 ;;		On exit  : 0/0
  5748 ;;		Unchanged: 0/0
  5749 ;; Data sizes:     COMMON   BANK0   BANK1   BANK2   BANK3   BANK4   BANK5   BANK6   BANK7   BANK8   BANK9  BANK10  BANK1
      +1  BANK12
  5750 ;;      Params:         0       0       0       0       0       0       0       0       0       0       0       0       
      +0       0
  5751 ;;      Locals:         0       0       0       0       0       0       0       0       0       0       0       0       
      +0       0
  5752 ;;      Temps:          0       0       0       0       0       0       0       0       0       0       0       0       
      +0       0
  5753 ;;      Totals:         0       0       0       0       0       0       0       0       0       0       0       0       
      +0       0
  5754 ;;Total ram usage:        0 bytes
  5755 ;; Hardware stack levels used: 1
  5756 ;; This function calls:
  5757 ;;		Nothing
  5758 ;; This function is called by:
  5759 ;;		_I2C_DO_SEND_RESTART_READ
  5760 ;;		_I2C_DO_SEND_RESTART_WRITE
  5761 ;;		_I2C_DO_SEND_RESTART
  5762 ;;		_I2C_DO_RX_EMPTY
  5763 ;; This function uses a non-reentrant model
  5764 ;;
  5765                           
  5766  035B                     _I2C_MasterEnableRestart:	
  5767                           ;psect for function _I2C_MasterEnableRestart
  5768                           
  5769  035B                     l1963:	
  5770                           ;incstack = 0
  5771                           ; Regs used in _I2C_MasterEnableRestart: []
  5772                           
  5773                           
  5774                           ;mcc_generated_files/i2c_master.c: 529:     SSPCON2bits.RSEN = 1;
  5775  035B  0024               	movlb	4	; select bank4
  5776  035C  1496               	bsf	22,1	;volatile
  5777  035D                     l338:
  5778  035D  0008               	return
  5779  035E                     __end_of_I2C_MasterEnableRestart:
  5780                           
  5781                           	psect	text53
  5782  0358                     __ptext53:	
  5783 ;; *************** function _I2C_MasterStart *****************
  5784 ;; Defined at:
  5785 ;;		line 542 in file "mcc_generated_files/i2c_master.c"
  5786 ;; Parameters:    Size  Location     Type
  5787 ;;		None
  5788 ;; Auto vars:     Size  Location     Type
  5789 ;;		None
  5790 ;; Return value:  Size  Location     Type
  5791 ;;                  1    wreg      void 
  5792 ;; Registers used:
  5793 ;;		None
  5794 ;; Tracked objects:
  5795 ;;		On entry : 0/0
  5796 ;;		On exit  : 0/0
  5797 ;;		Unchanged: 0/0
  5798 ;; Data sizes:     COMMON   BANK0   BANK1   BANK2   BANK3   BANK4   BANK5   BANK6   BANK7   BANK8   BANK9  BANK10  BANK1
      +1  BANK12
  5799 ;;      Params:         0       0       0       0       0       0       0       0       0       0       0       0       
      +0       0
  5800 ;;      Locals:         0       0       0       0       0       0       0       0       0       0       0       0       
      +0       0
  5801 ;;      Temps:          0       0       0       0       0       0       0       0       0       0       0       0       
      +0       0
  5802 ;;      Totals:         0       0       0       0       0       0       0       0       0       0       0       0       
      +0       0
  5803 ;;Total ram usage:        0 bytes
  5804 ;; Hardware stack levels used: 1
  5805 ;; This function calls:
  5806 ;;		Nothing
  5807 ;; This function is called by:
  5808 ;;		_I2C_MasterOperation
  5809 ;; This function uses a non-reentrant model
  5810 ;;
  5811                           
  5812  0358                     _I2C_MasterStart:	
  5813                           ;psect for function _I2C_MasterStart
  5814                           
  5815  0358                     l2227:	
  5816                           ;incstack = 0
  5817                           ; Regs used in _I2C_MasterStart: []
  5818                           
  5819                           
  5820                           ;mcc_generated_files/i2c_master.c: 544:     SSPCON2bits.SEN = 1;
  5821  0358  0024               	movlb	4	; select bank4
  5822  0359  1416               	bsf	22,0	;volatile
  5823  035A                     l347:
  5824  035A  0008               	return
  5825  035B                     __end_of_I2C_MasterStart:
  5826                           
  5827                           	psect	text54
  5828  048D                     __ptext54:	
  5829 ;; *************** function _I2C_Close *****************
  5830 ;; Defined at:
  5831 ;;		line 163 in file "mcc_generated_files/i2c_master.c"
  5832 ;; Parameters:    Size  Location     Type
  5833 ;;		None
  5834 ;; Auto vars:     Size  Location     Type
  5835 ;;  returnValue     1    1[COMMON] enum E355
  5836 ;; Return value:  Size  Location     Type
  5837 ;;                  1    wreg      enum E355
  5838 ;; Registers used:
  5839 ;;		wreg, status,2, status,0, pclath, cstack
  5840 ;; Tracked objects:
  5841 ;;		On entry : 0/0
  5842 ;;		On exit  : 0/0
  5843 ;;		Unchanged: 0/0
  5844 ;; Data sizes:     COMMON   BANK0   BANK1   BANK2   BANK3   BANK4   BANK5   BANK6   BANK7   BANK8   BANK9  BANK10  BANK1
      +1  BANK12
  5845 ;;      Params:         0       0       0       0       0       0       0       0       0       0       0       0       
      +0       0
  5846 ;;      Locals:         1       0       0       0       0       0       0       0       0       0       0       0       
      +0       0
  5847 ;;      Temps:          1       0       0       0       0       0       0       0       0       0       0       0       
      +0       0
  5848 ;;      Totals:         2       0       0       0       0       0       0       0       0       0       0       0       
      +0       0
  5849 ;;Total ram usage:        2 bytes
  5850 ;; Hardware stack levels used: 1
  5851 ;; Hardware stack levels required when called: 1
  5852 ;; This function calls:
  5853 ;;		_I2C_MasterClearIrq
  5854 ;;		_I2C_MasterClose
  5855 ;;		_I2C_MasterDisableIrq
  5856 ;; This function is called by:
  5857 ;;		_I2C_Wr
  5858 ;;		_I2C_Rd
  5859 ;;		_I2C_Read1ByteRegister
  5860 ;;		_I2C_Read2ByteRegister
  5861 ;;		_I2C_Write1ByteRegister
  5862 ;;		_I2C_Write2ByteRegister
  5863 ;;		_I2C_WriteNBytes
  5864 ;;		_I2C_ReadNBytes
  5865 ;;		_I2C_ReadDataBlock
  5866 ;; This function uses a non-reentrant model
  5867 ;;
  5868                           
  5869  048D                     _I2C_Close:	
  5870                           ;psect for function _I2C_Close
  5871                           
  5872  048D                     l2341:	
  5873                           ;incstack = 0
  5874                           ; Regs used in _I2C_Close: [wreg+status,2+status,0+pclath+cstack]
  5875                           
  5876                           
  5877                           ;mcc_generated_files/i2c_master.c: 165:     i2c_error_t returnValue = I2C_BUSY;
  5878  048D  01F1               	clrf	I2C_Close@returnValue
  5879  048E  0AF1               	incf	I2C_Close@returnValue,f
  5880                           
  5881                           ;mcc_generated_files/i2c_master.c: 166:     if(!I2C_Status.busy)
  5882  048F  0020               	movlb	0	; select bank0
  5883  0490  18BC               	btfsc	_I2C_Status+28,1
  5884  0491  2C93               	goto	u711
  5885  0492  2C94               	goto	u710
  5886  0493                     u711:
  5887  0493  2CA7               	goto	l2355
  5888  0494                     u710:
  5889  0494                     l2343:
  5890                           
  5891                           ;mcc_generated_files/i2c_master.c: 167:     {;mcc_generated_files/i2c_master.c: 168:    
      +                               I2C_Status.inUse = 0;
  5892  0494  113C               	bcf	_I2C_Status+28,2
  5893  0495                     l2345:
  5894                           
  5895                           ;mcc_generated_files/i2c_master.c: 169:         I2C_Status.address = 0xff;
  5896  0495  30FF               	movlw	255
  5897  0496  00F0               	movwf	??_I2C_Close
  5898  0497  0870               	movf	??_I2C_Close,w
  5899  0498  00B6               	movwf	_I2C_Status+22
  5900  0499                     l2347:
  5901                           
  5902                           ;mcc_generated_files/i2c_master.c: 170:         I2C_MasterClearIrq();
  5903  0499  3183  234F  3184   	fcall	_I2C_MasterClearIrq
  5904  049C                     l2349:
  5905                           
  5906                           ;mcc_generated_files/i2c_master.c: 171:         I2C_MasterDisableIrq();
  5907  049C  3183  2355  3184   	fcall	_I2C_MasterDisableIrq
  5908  049F                     l2351:
  5909                           
  5910                           ;mcc_generated_files/i2c_master.c: 172:         I2C_MasterClose();
  5911  049F  3183  2352  3184   	fcall	_I2C_MasterClose
  5912  04A2                     l2353:
  5913                           
  5914                           ;mcc_generated_files/i2c_master.c: 173:         returnValue = I2C_Status.error;
  5915  04A2  0020               	movlb	0	; select bank0
  5916  04A3  083B               	movf	_I2C_Status+27,w
  5917  04A4  00F0               	movwf	??_I2C_Close
  5918  04A5  0870               	movf	??_I2C_Close,w
  5919  04A6  00F1               	movwf	I2C_Close@returnValue
  5920  04A7                     l2355:
  5921                           
  5922                           ;mcc_generated_files/i2c_master.c: 175:     return returnValue;
  5923  04A7  0871               	movf	I2C_Close@returnValue,w
  5924  04A8                     l165:
  5925  04A8  0008               	return
  5926  04A9                     __end_of_I2C_Close:
  5927                           
  5928                           	psect	text55
  5929  0355                     __ptext55:	
  5930 ;; *************** function _I2C_MasterDisableIrq *****************
  5931 ;; Defined at:
  5932 ;;		line 589 in file "mcc_generated_files/i2c_master.c"
  5933 ;; Parameters:    Size  Location     Type
  5934 ;;		None
  5935 ;; Auto vars:     Size  Location     Type
  5936 ;;		None
  5937 ;; Return value:  Size  Location     Type
  5938 ;;                  1    wreg      void 
  5939 ;; Registers used:
  5940 ;;		None
  5941 ;; Tracked objects:
  5942 ;;		On entry : 0/0
  5943 ;;		On exit  : 0/0
  5944 ;;		Unchanged: 0/0
  5945 ;; Data sizes:     COMMON   BANK0   BANK1   BANK2   BANK3   BANK4   BANK5   BANK6   BANK7   BANK8   BANK9  BANK10  BANK1
      +1  BANK12
  5946 ;;      Params:         0       0       0       0       0       0       0       0       0       0       0       0       
      +0       0
  5947 ;;      Locals:         0       0       0       0       0       0       0       0       0       0       0       0       
      +0       0
  5948 ;;      Temps:          0       0       0       0       0       0       0       0       0       0       0       0       
      +0       0
  5949 ;;      Totals:         0       0       0       0       0       0       0       0       0       0       0       0       
      +0       0
  5950 ;;Total ram usage:        0 bytes
  5951 ;; Hardware stack levels used: 1
  5952 ;; This function calls:
  5953 ;;		Nothing
  5954 ;; This function is called by:
  5955 ;;		_I2C_Close
  5956 ;;		_I2C_SetTimeOut
  5957 ;; This function uses a non-reentrant model
  5958 ;;
  5959                           
  5960  0355                     _I2C_MasterDisableIrq:	
  5961                           ;psect for function _I2C_MasterDisableIrq
  5962                           
  5963  0355                     l2249:	
  5964                           ;incstack = 0
  5965                           ; Regs used in _I2C_MasterDisableIrq: []
  5966                           
  5967                           
  5968                           ;mcc_generated_files/i2c_master.c: 591:     PIE1bits.SSPIE = 0;
  5969  0355  0021               	movlb	1	; select bank1
  5970  0356  1191               	bcf	17,3	;volatile
  5971  0357                     l374:
  5972  0357  0008               	return
  5973  0358                     __end_of_I2C_MasterDisableIrq:
  5974                           
  5975                           	psect	text56
  5976  0352                     __ptext56:	
  5977 ;; *************** function _I2C_MasterClose *****************
  5978 ;; Defined at:
  5979 ;;		line 511 in file "mcc_generated_files/i2c_master.c"
  5980 ;; Parameters:    Size  Location     Type
  5981 ;;		None
  5982 ;; Auto vars:     Size  Location     Type
  5983 ;;		None
  5984 ;; Return value:  Size  Location     Type
  5985 ;;                  1    wreg      void 
  5986 ;; Registers used:
  5987 ;;		None
  5988 ;; Tracked objects:
  5989 ;;		On entry : 0/0
  5990 ;;		On exit  : 0/0
  5991 ;;		Unchanged: 0/0
  5992 ;; Data sizes:     COMMON   BANK0   BANK1   BANK2   BANK3   BANK4   BANK5   BANK6   BANK7   BANK8   BANK9  BANK10  BANK1
      +1  BANK12
  5993 ;;      Params:         0       0       0       0       0       0       0       0       0       0       0       0       
      +0       0
  5994 ;;      Locals:         0       0       0       0       0       0       0       0       0       0       0       0       
      +0       0
  5995 ;;      Temps:          0       0       0       0       0       0       0       0       0       0       0       0       
      +0       0
  5996 ;;      Totals:         0       0       0       0       0       0       0       0       0       0       0       0       
      +0       0
  5997 ;;Total ram usage:        0 bytes
  5998 ;; Hardware stack levels used: 1
  5999 ;; This function calls:
  6000 ;;		Nothing
  6001 ;; This function is called by:
  6002 ;;		_I2C_Close
  6003 ;; This function uses a non-reentrant model
  6004 ;;
  6005                           
  6006  0352                     _I2C_MasterClose:	
  6007                           ;psect for function _I2C_MasterClose
  6008                           
  6009  0352                     l2251:	
  6010                           ;incstack = 0
  6011                           ; Regs used in _I2C_MasterClose: []
  6012                           
  6013                           
  6014                           ;mcc_generated_files/i2c_master.c: 514:     SSPCON1bits.SSPEN = 0;
  6015  0352  0024               	movlb	4	; select bank4
  6016  0353  1295               	bcf	21,5	;volatile
  6017  0354                     l329:
  6018  0354  0008               	return
  6019  0355                     __end_of_I2C_MasterClose:
  6020                           
  6021                           	psect	text57
  6022  034F                     __ptext57:	
  6023 ;; *************** function _I2C_MasterClearIrq *****************
  6024 ;; Defined at:
  6025 ;;		line 594 in file "mcc_generated_files/i2c_master.c"
  6026 ;; Parameters:    Size  Location     Type
  6027 ;;		None
  6028 ;; Auto vars:     Size  Location     Type
  6029 ;;		None
  6030 ;; Return value:  Size  Location     Type
  6031 ;;                  1    wreg      void 
  6032 ;; Registers used:
  6033 ;;		None
  6034 ;; Tracked objects:
  6035 ;;		On entry : 0/0
  6036 ;;		On exit  : 0/0
  6037 ;;		Unchanged: 0/0
  6038 ;; Data sizes:     COMMON   BANK0   BANK1   BANK2   BANK3   BANK4   BANK5   BANK6   BANK7   BANK8   BANK9  BANK10  BANK1
      +1  BANK12
  6039 ;;      Params:         0       0       0       0       0       0       0       0       0       0       0       0       
      +0       0
  6040 ;;      Locals:         0       0       0       0       0       0       0       0       0       0       0       0       
      +0       0
  6041 ;;      Temps:          0       0       0       0       0       0       0       0       0       0       0       0       
      +0       0
  6042 ;;      Totals:         0       0       0       0       0       0       0       0       0       0       0       0       
      +0       0
  6043 ;;Total ram usage:        0 bytes
  6044 ;; Hardware stack levels used: 1
  6045 ;; This function calls:
  6046 ;;		Nothing
  6047 ;; This function is called by:
  6048 ;;		_I2C_Open
  6049 ;;		_I2C_Close
  6050 ;;		_I2C_MasterFsm
  6051 ;; This function uses a non-reentrant model
  6052 ;;
  6053                           
  6054  034F                     _I2C_MasterClearIrq:	
  6055                           ;psect for function _I2C_MasterClearIrq
  6056                           
  6057  034F                     l2059:	
  6058                           ;incstack = 0
  6059                           ; Regs used in _I2C_MasterClearIrq: []
  6060                           
  6061                           
  6062                           ;mcc_generated_files/i2c_master.c: 596:     PIR1bits.SSPIF = 0;
  6063  034F  0020               	movlb	0	; select bank0
  6064  0350  1191               	bcf	17,3	;volatile
  6065  0351                     l377:
  6066  0351  0008               	return
  6067  0352                     __end_of_I2C_MasterClearIrq:
  6068  007E                     btemp	set	126	;btemp
  6069  007E                     wtemp0	set	126
  6070                           
  6071                           	psect	idloc
  6072                           
  6073                           ;Config register IDLOC0 @ 0x8000
  6074                           ;	unspecified, using default values
  6075  8000                     	org	32768
  6076  8000  3FFF               	dw	16383
  6077                           
  6078                           ;Config register IDLOC1 @ 0x8001
  6079                           ;	unspecified, using default values
  6080  8001                     	org	32769
  6081  8001  3FFF               	dw	16383
  6082                           
  6083                           ;Config register IDLOC2 @ 0x8002
  6084                           ;	unspecified, using default values
  6085  8002                     	org	32770
  6086  8002  3FFF               	dw	16383
  6087                           
  6088                           ;Config register IDLOC3 @ 0x8003
  6089                           ;	unspecified, using default values
  6090  8003                     	org	32771
  6091  8003  3FFF               	dw	16383
  6092                           
  6093                           	psect	config
  6094                           
  6095                           ;Config register CONFIG1 @ 0x8007
  6096                           ;	Oscillator Selection
  6097                           ;	FOSC = INTOSC, INTOSC oscillator: I/O function on CLKIN pin
  6098                           ;	Watchdog Timer Enable
  6099                           ;	WDTE = OFF, WDT disabled
  6100                           ;	Power-up Timer Enable
  6101                           ;	PWRTE = OFF, PWRT disabled
  6102                           ;	MCLR Pin Function Select
  6103                           ;	MCLRE = ON, MCLR/VPP pin function is MCLR
  6104                           ;	Flash Program Memory Code Protection
  6105                           ;	CP = OFF, Program memory code protection is disabled
  6106                           ;	Data Memory Code Protection
  6107                           ;	CPD = OFF, Data memory code protection is disabled
  6108                           ;	Brown-out Reset Enable
  6109                           ;	BOREN = ON, Brown-out Reset enabled
  6110                           ;	Clock Out Enable
  6111                           ;	CLKOUTEN = OFF, CLKOUT function is disabled. I/O or oscillator function on the CLKOUT 
      +                          pin
  6112                           ;	Internal/External Switchover
  6113                           ;	IESO = ON, Internal/External Switchover mode is enabled
  6114                           ;	Fail-Safe Clock Monitor Enable
  6115                           ;	FCMEN = ON, Fail-Safe Clock Monitor is enabled
  6116  8007                     	org	32775
  6117  8007  3FE4               	dw	16356
  6118                           
  6119                           ;Config register CONFIG2 @ 0x8008
  6120                           ;	Flash Memory Self-Write Protection
  6121                           ;	WRT = OFF, Write protection off
  6122                           ;	Voltage Regulator Capacitor Enable
  6123                           ;	VCAPEN = OFF, All VCAP pin functionality is disabled
  6124                           ;	PLL Enable
  6125                           ;	PLLEN = ON, 4x PLL enabled
  6126                           ;	Stack Overflow/Underflow Reset Enable
  6127                           ;	STVREN = ON, Stack Overflow or Underflow will cause a Reset
  6128                           ;	Brown-out Reset Voltage Selection
  6129                           ;	BORV = LO, Brown-out Reset Voltage (Vbor), low trip point selected.
  6130                           ;	Low-Voltage Programming Enable
  6131                           ;	LVP = ON, Low-voltage programming enabled
  6132  8008                     	org	32776
  6133  8008  3FFF               	dw	16383

Data Sizes:
    Strings     0
    Constant    42
    Data        0
    BSS         34
    Persistent  32
    Stack       0

Auto Spaces:
    Space          Size  Autos    Used
    COMMON           14     12      14
    BANK0            80      3      35
    BANK1            80      0       0
    BANK2            80      0       0
    BANK3            80      0       0
    BANK4            80      0       0
    BANK5            80      0       0
    BANK6            80      0       0
    BANK7            80      0       0
    BANK8            80      0       0
    BANK9            80      0       0
    BANK10           80      0       0
    BANK11           80      0       0
    BANK12           48      0       0

Pointer List with Targets:

    I2C_Read1ByteRegister@returnValue.data	PTR unsigned char  size(1) Largest target is 0

    I2C_Read2ByteRegister@returnValue.data	PTR unsigned char  size(1) Largest target is 0

    I2C_Write1ByteRegister@data.data	PTR unsigned char  size(1) Largest target is 0

    I2C_Write2ByteRegister@data.data	PTR unsigned char  size(1) Largest target is 0

    I2C_DO_TX$1514$0	PTR void  size(1) Largest target is 4
		 -> I2C_ReadDataBlock@bufferBlock(COMMON[3]), I2C_Write2ByteRegister@data(COMMON[2]), I2C_Write1ByteRegister@data(COMMON[1]), I2C_Read2ByteRegister@returnValue(COMMON[1]), 
		 -> I2C_Read1ByteRegister@returnValue(COMMON[1]), NULL(NULL[0]), 

    I2C_DO_TX$1519	PTR void  size(1) Largest target is 4
		 -> I2C_ReadDataBlock@bufferBlock(COMMON[3]), I2C_Write2ByteRegister@data(COMMON[2]), I2C_Write1ByteRegister@data(COMMON[1]), I2C_Read2ByteRegister@returnValue(COMMON[1]), 
		 -> I2C_Read1ByteRegister@returnValue(COMMON[1]), NULL(NULL[0]), 

    I2C_DO_TX$1514	PTR FTN(PTR void ,)enum E360 size(2) Largest target is 1
		 -> rdBlkRegCompleteHandler(), wr2RegCompleteHandler(), wr1RegCompleteHandler(), rd1RegCompleteHandler(), 
		 -> I2C_CallbackReturnReset(), I2C_CallbackReturnStop(), Absolute function(), 

    I2C_MasterFsm$1513	const PTR FTN()enum E3373 size(2) Largest target is 1
		 -> I2C_DO_ADDRESS_NACK(), I2C_DO_RESET(), I2C_DO_RX_NACK_RESTART(), I2C_DO_RX_NACK_STOP(), 
		 -> I2C_DO_RX_ACK(), I2C_DO_SEND_STOP(), I2C_DO_SEND_RESTART(), I2C_DO_SEND_RESTART_WRITE(), 
		 -> I2C_DO_SEND_RESTART_READ(), I2C_DO_TX_EMPTY(), I2C_DO_RCEN(), I2C_DO_RX(), 
		 -> I2C_DO_TX(), I2C_DO_SEND_ADR_WRITE(), I2C_DO_SEND_ADR_READ(), I2C_DO_IDLE(), 

    I2C_CallbackReturnStop@funPtr	PTR void  size(1) Largest target is 4
		 -> I2C_ReadDataBlock@bufferBlock(COMMON[3]), I2C_Write2ByteRegister@data(COMMON[2]), I2C_Write1ByteRegister@data(COMMON[1]), I2C_Read2ByteRegister@returnValue(COMMON[1]), 
		 -> I2C_Read1ByteRegister@returnValue(COMMON[1]), NULL(NULL[0]), 

    I2C_CallbackReturnReset@funPtr	PTR void  size(1) Largest target is 4
		 -> I2C_ReadDataBlock@bufferBlock(COMMON[3]), I2C_Write2ByteRegister@data(COMMON[2]), I2C_Write1ByteRegister@data(COMMON[1]), I2C_Read2ByteRegister@returnValue(COMMON[1]), 
		 -> I2C_Read1ByteRegister@returnValue(COMMON[1]), NULL(NULL[0]), 

    cb$0	PTR void  size(1) Largest target is 4
		 -> I2C_ReadDataBlock@bufferBlock(COMMON[3]), I2C_Write2ByteRegister@data(COMMON[2]), I2C_Write1ByteRegister@data(COMMON[1]), I2C_Read2ByteRegister@returnValue(COMMON[1]), 
		 -> I2C_Read1ByteRegister@returnValue(COMMON[1]), NULL(NULL[0]), 

    Absolute function$0	PTR void  size(1) Largest target is 4
		 -> I2C_ReadDataBlock@bufferBlock(COMMON[3]), I2C_Write2ByteRegister@data(COMMON[2]), I2C_Write1ByteRegister@data(COMMON[1]), I2C_Read2ByteRegister@returnValue(COMMON[1]), 
		 -> I2C_Read1ByteRegister@returnValue(COMMON[1]), NULL(NULL[0]), 

    cb$0	PTR void  size(1) Largest target is 4
		 -> I2C_ReadDataBlock@bufferBlock(COMMON[3]), I2C_Write2ByteRegister@data(COMMON[2]), I2C_Write1ByteRegister@data(COMMON[1]), I2C_Read2ByteRegister@returnValue(COMMON[1]), 
		 -> I2C_Read1ByteRegister@returnValue(COMMON[1]), NULL(NULL[0]), 

    S174$0$0	PTR void  size(1) Largest target is 4
		 -> I2C_ReadDataBlock@bufferBlock(COMMON[3]), I2C_Write2ByteRegister@data(COMMON[2]), I2C_Write1ByteRegister@data(COMMON[1]), I2C_Read2ByteRegister@returnValue(COMMON[1]), 
		 -> I2C_Read1ByteRegister@returnValue(COMMON[1]), NULL(NULL[0]), 

    rdBlkRegCompleteHandler@ptr.data	PTR unsigned char  size(1) Largest target is 0

    rdBlkRegCompleteHandler@ptr	PTR void  size(1) Largest target is 4
		 -> I2C_ReadDataBlock@bufferBlock(COMMON[3]), I2C_Write2ByteRegister@data(COMMON[2]), I2C_Write1ByteRegister@data(COMMON[1]), I2C_Read2ByteRegister@returnValue(COMMON[1]), 
		 -> I2C_Read1ByteRegister@returnValue(COMMON[1]), NULL(NULL[0]), 

    wr2RegCompleteHandler@ptr	PTR void  size(1) Largest target is 4
		 -> I2C_ReadDataBlock@bufferBlock(COMMON[3]), I2C_Write2ByteRegister@data(COMMON[2]), I2C_Write1ByteRegister@data(COMMON[1]), I2C_Read2ByteRegister@returnValue(COMMON[1]), 
		 -> I2C_Read1ByteRegister@returnValue(COMMON[1]), NULL(NULL[0]), 

    wr1RegCompleteHandler@ptr	PTR void  size(1) Largest target is 4
		 -> I2C_ReadDataBlock@bufferBlock(COMMON[3]), I2C_Write2ByteRegister@data(COMMON[2]), I2C_Write1ByteRegister@data(COMMON[1]), I2C_Read2ByteRegister@returnValue(COMMON[1]), 
		 -> I2C_Read1ByteRegister@returnValue(COMMON[1]), NULL(NULL[0]), 

    rd1RegCompleteHandler@ptr	PTR void  size(1) Largest target is 4
		 -> I2C_ReadDataBlock@bufferBlock(COMMON[3]), I2C_Write2ByteRegister@data(COMMON[2]), I2C_Write1ByteRegister@data(COMMON[1]), I2C_Read2ByteRegister@returnValue(COMMON[1]), 
		 -> I2C_Read1ByteRegister@returnValue(COMMON[1]), NULL(NULL[0]), 

    S490$data	PTR unsigned char  size(1) Largest target is 0

    bufferBlock.data	PTR unsigned char  size(1) Largest target is 0

    I2C_SetCallback@ptr	PTR void  size(1) Largest target is 4
		 -> I2C_ReadDataBlock@bufferBlock(COMMON[3]), I2C_Write2ByteRegister@data(COMMON[2]), I2C_Write1ByteRegister@data(COMMON[1]), I2C_Read2ByteRegister@returnValue(COMMON[1]), 
		 -> I2C_Read1ByteRegister@returnValue(COMMON[1]), NULL(NULL[0]), 

    I2C_SetCallback@cb	PTR FTN(PTR void ,)enum E360 size(2) Largest target is 1
		 -> rdBlkRegCompleteHandler(), wr2RegCompleteHandler(), wr1RegCompleteHandler(), rd1RegCompleteHandler(), 
		 -> Absolute function(), 

    I2C_SetAddressNackCallback@ptr	PTR void  size(1) Largest target is 0
		 -> NULL(NULL[0]), 

    I2C_SetAddressNackCallback@cb	PTR FTN(PTR void ,)enum E360 size(2) Largest target is 1
		 -> Absolute function(), 

    I2C_SetDataCompleteCallback@ptr	PTR void  size(1) Largest target is 4
		 -> I2C_ReadDataBlock@bufferBlock(COMMON[3]), I2C_Write2ByteRegister@data(COMMON[2]), I2C_Write1ByteRegister@data(COMMON[1]), I2C_Read2ByteRegister@returnValue(COMMON[1]), 
		 -> I2C_Read1ByteRegister@returnValue(COMMON[1]), NULL(NULL[0]), 

    I2C_SetDataCompleteCallback@cb	PTR FTN(PTR void ,)enum E360 size(2) Largest target is 1
		 -> rdBlkRegCompleteHandler(), wr2RegCompleteHandler(), wr1RegCompleteHandler(), rd1RegCompleteHandler(), 
		 -> Absolute function(), 

    I2C_SetBuffer@buffer	PTR void  size(1) Largest target is 4
		 -> I2C_Read1ByteRegister@returnValue.data(COMMON[2]), I2C_Read2ByteRegister@returnValue.data(COMMON[2]), I2C_Write1ByteRegister@data.data(COMMON[2]), I2C_Write2ByteRegister@data.data(COMMON[2]), 
		 -> I2C_Rd@returnValue(COMMON[1]), I2C_Wr@data(COMMON[1]), I2C_ReadDataBlock@reg(COMMON[1]), I2C_ReadDataBlock@bufferBlock(COMMON[3]), 
		 -> bufferBlock.data(COMMON[2]), I2C_Write2ByteRegister@reg(COMMON[1]), I2C_Write2ByteRegister@data(COMMON[2]), I2C_Write1ByteRegister@reg(COMMON[1]), 
		 -> I2C_Write1ByteRegister@data(COMMON[1]), I2C_Read2ByteRegister@reg(COMMON[1]), I2C_Read2ByteRegister@returnValue(COMMON[1]), I2C_Read1ByteRegister@reg(COMMON[1]), 
		 -> I2C_Read1ByteRegister@returnValue(COMMON[1]), NULL(NULL[0]), 

    S174$data_ptr	PTR unsigned char  size(1) Largest target is 4
		 -> I2C_Rd@returnValue(COMMON[1]), I2C_Wr@data(COMMON[1]), I2C_ReadDataBlock@reg(COMMON[1]), I2C_ReadDataBlock@bufferBlock(COMMON[3]), 
		 -> I2C_Write2ByteRegister@reg(COMMON[1]), I2C_Write2ByteRegister@data(COMMON[2]), I2C_Write1ByteRegister@reg(COMMON[1]), I2C_Write1ByteRegister@data(COMMON[1]), 
		 -> I2C_Read2ByteRegister@reg(COMMON[1]), I2C_Read2ByteRegister@returnValue(COMMON[1]), I2C_Read1ByteRegister@reg(COMMON[1]), I2C_Read1ByteRegister@returnValue(COMMON[1]), 
		 -> NULL(NULL[0]), 

    I2C_Status.data_ptr	PTR unsigned char  size(1) Largest target is 4
		 -> I2C_Read1ByteRegister@returnValue.data(COMMON[2]), I2C_Read2ByteRegister@returnValue.data(COMMON[2]), I2C_Write1ByteRegister@data.data(COMMON[2]), I2C_Write2ByteRegister@data.data(COMMON[2]), 
		 -> I2C_Rd@returnValue(COMMON[1]), I2C_Wr@data(COMMON[1]), I2C_ReadDataBlock@reg(COMMON[1]), I2C_ReadDataBlock@bufferBlock(COMMON[3]), 
		 -> bufferBlock.data(COMMON[2]), I2C_Write2ByteRegister@reg(COMMON[1]), I2C_Write2ByteRegister@data(COMMON[2]), I2C_Write1ByteRegister@reg(COMMON[1]), 
		 -> I2C_Write1ByteRegister@data(COMMON[1]), I2C_Read2ByteRegister@reg(COMMON[1]), I2C_Read2ByteRegister@returnValue(COMMON[1]), I2C_Read1ByteRegister@reg(COMMON[1]), 
		 -> I2C_Read1ByteRegister@returnValue(COMMON[1]), NULL(NULL[0]), 

    S174$callbackPayload	PTR void [6] size(1) Largest target is 4
		 -> I2C_ReadDataBlock@bufferBlock(COMMON[3]), I2C_Write2ByteRegister@data(COMMON[2]), I2C_Write1ByteRegister@data(COMMON[1]), I2C_Read2ByteRegister@returnValue(COMMON[1]), 
		 -> I2C_Read1ByteRegister@returnValue(COMMON[1]), NULL(NULL[0]), 

    I2C_Status.callbackPayload	PTR void [6] size(1) Largest target is 4
		 -> I2C_ReadDataBlock@bufferBlock(COMMON[3]), I2C_Write2ByteRegister@data(COMMON[2]), I2C_Write1ByteRegister@data(COMMON[1]), I2C_Read2ByteRegister@returnValue(COMMON[1]), 
		 -> I2C_Read1ByteRegister@returnValue(COMMON[1]), NULL(NULL[0]), 

    S174$callbackTable	PTR FTN(PTR void ,)enum E360[6] size(2) Largest target is 1
		 -> rdBlkRegCompleteHandler(), wr2RegCompleteHandler(), wr1RegCompleteHandler(), rd1RegCompleteHandler(), 
		 -> I2C_CallbackReturnReset(), I2C_CallbackReturnStop(), Absolute function(), 

    I2C_Status.callbackTable	PTR FTN(PTR void ,)enum E360[6] size(2) Largest target is 1
		 -> rdBlkRegCompleteHandler(), wr2RegCompleteHandler(), wr1RegCompleteHandler(), rd1RegCompleteHandler(), 
		 -> I2C_CallbackReturnReset(), I2C_CallbackReturnStop(), Absolute function(), 

    i2c_fsmStateTable	const PTR FTN()enum E3373[16] size(2) Largest target is 1
		 -> I2C_DO_ADDRESS_NACK(), I2C_DO_RESET(), I2C_DO_RX_NACK_RESTART(), I2C_DO_RX_NACK_STOP(), 
		 -> I2C_DO_RX_ACK(), I2C_DO_SEND_STOP(), I2C_DO_SEND_RESTART(), I2C_DO_SEND_RESTART_WRITE(), 
		 -> I2C_DO_SEND_RESTART_READ(), I2C_DO_TX_EMPTY(), I2C_DO_RCEN(), I2C_DO_RX(), 
		 -> I2C_DO_TX(), I2C_DO_SEND_ADR_WRITE(), I2C_DO_SEND_ADR_READ(), I2C_DO_IDLE(), 


Critical Paths under _main in COMMON

    _main->_I2C_Rd
    _main->_I2C_Wr
    _I2C_SetAddressNackCallback->_I2C_SetCallback
    _I2C_MasterWrite->_I2C_MasterOperation
    _I2C_MasterRead->_I2C_MasterOperation
    _I2C_Poller->_I2C_MasterFsm
    _I2C_MasterFsm->_I2C_DO_TX
    _I2C_DO_TX->_I2C_MasterSendTxData
    _I2C_DO_SEND_ADR_WRITE->_I2C_MasterSendTxData
    _wr2RegCompleteHandler->_I2C_SetDataCompleteCallback
    _wr1RegCompleteHandler->_I2C_SetDataCompleteCallback
    _rdBlkRegCompleteHandler->_I2C_SetDataCompleteCallback
    _rd1RegCompleteHandler->_I2C_SetDataCompleteCallback
    _I2C_SetDataCompleteCallback->_I2C_SetCallback

Critical Paths under _main in BANK0

    None.

Critical Paths under _main in BANK1

    None.

Critical Paths under _main in BANK2

    None.

Critical Paths under _main in BANK3

    None.

Critical Paths under _main in BANK4

    None.

Critical Paths under _main in BANK5

    None.

Critical Paths under _main in BANK6

    None.

Critical Paths under _main in BANK7

    None.

Critical Paths under _main in BANK8

    None.

Critical Paths under _main in BANK9

    None.

Critical Paths under _main in BANK10

    None.

Critical Paths under _main in BANK11

    None.

Critical Paths under _main in BANK12

    None.

Call Graph Tables:

 ---------------------------------------------------------------------------------
 (Depth) Function   	        Calls       Base Space   Used Autos Params    Refs
 ---------------------------------------------------------------------------------
 (0) _main                                                 3     3      0  139231
                                              0 BANK0      3     3      0
                             _I2C_Rd
                             _I2C_Wr
                  _SYSTEM_Initialize
                            ___awdiv
                            ___awmod
 ---------------------------------------------------------------------------------
 (1) ___awmod                                              7     3      4     448
                                              0 COMMON     7     3      4
 ---------------------------------------------------------------------------------
 (1) ___awdiv                                              9     5      4     452
                                              0 COMMON     9     5      4
 ---------------------------------------------------------------------------------
 (1) _SYSTEM_Initialize                                    0     0      0       0
                     _I2C_Initialize
              _OSCILLATOR_Initialize
             _PIN_MANAGER_Initialize
                     _WDT_Initialize
 ---------------------------------------------------------------------------------
 (2) _WDT_Initialize                                       0     0      0       0
 ---------------------------------------------------------------------------------
 (2) _PIN_MANAGER_Initialize                               0     0      0       0
 ---------------------------------------------------------------------------------
 (2) _OSCILLATOR_Initialize                                0     0      0       0
 ---------------------------------------------------------------------------------
 (2) _I2C_Initialize                                       0     0      0       0
 ---------------------------------------------------------------------------------
 (1) _I2C_Wr                                               2     1      1   70241
                                             10 COMMON     2     1      1
                          _I2C_Close
                    _I2C_MasterWrite
                           _I2C_Open
         _I2C_SetAddressNackCallback
                      _I2C_SetBuffer
 ---------------------------------------------------------------------------------
 (2) _I2C_SetAddressNackCallback                           4     1      3    2022
                                              5 COMMON     4     1      3
                    _I2C_SetCallback
 ---------------------------------------------------------------------------------
 (2) _I2C_MasterWrite                                      0     0      0   66380
                _I2C_MasterOperation
 ---------------------------------------------------------------------------------
 (1) _I2C_Rd                                               2     2      0   68090
                                             10 COMMON     2     2      0
                          _I2C_Close
                     _I2C_MasterRead
                           _I2C_Open
                      _I2C_SetBuffer
 ---------------------------------------------------------------------------------
 (2) _I2C_Open                                             3     3      0      46
                                              0 COMMON     3     3      0
                 _I2C_MasterClearIrq
                     _I2C_MasterOpen
 ---------------------------------------------------------------------------------
 (3) _I2C_MasterOpen                                       0     0      0       0
 ---------------------------------------------------------------------------------
 (2) _I2C_MasterRead                                       0     0      0   66380
                _I2C_MasterOperation
 ---------------------------------------------------------------------------------
 (3) _I2C_MasterOperation                                  3     3      0   66380
                                              7 COMMON     3     3      0
                    _I2C_MasterStart
                         _I2C_Poller
 ---------------------------------------------------------------------------------
 (4) _I2C_Poller                                           0     0      0   66334
                      _I2C_MasterFsm
             _I2C_MasterWaitForEvent
 ---------------------------------------------------------------------------------
 (5) _I2C_MasterWaitForEvent                               0     0      0       0
 ---------------------------------------------------------------------------------
 (5) _I2C_MasterFsm                                        3     3      0   66334
                                              4 COMMON     3     3      0
                _I2C_DO_ADDRESS_NACK *
                        _I2C_DO_IDLE *
                        _I2C_DO_RCEN *
                       _I2C_DO_RESET *
                          _I2C_DO_RX *
                      _I2C_DO_RX_ACK *
             _I2C_DO_RX_NACK_RESTART *
                _I2C_DO_RX_NACK_STOP *
               _I2C_DO_SEND_ADR_READ *
              _I2C_DO_SEND_ADR_WRITE *
                _I2C_DO_SEND_RESTART *
           _I2C_DO_SEND_RESTART_READ *
          _I2C_DO_SEND_RESTART_WRITE *
                   _I2C_DO_SEND_STOP *
                          _I2C_DO_TX *
                    _I2C_DO_TX_EMPTY *
                 _I2C_MasterClearIrq
                   _I2C_MasterIsNack
 ---------------------------------------------------------------------------------
 (6) _I2C_DO_TX_EMPTY                                      3     3      0   16567
                                              0 COMMON     3     3      0
                   Absolute function *
            _I2C_CallbackReturnReset *
             _I2C_CallbackReturnStop *
                _I2C_DO_SEND_RESTART
                   _I2C_DO_SEND_STOP
                   _I2C_MasterSetIrq
              _rd1RegCompleteHandler *
            _rdBlkRegCompleteHandler *
              _wr1RegCompleteHandler *
              _wr2RegCompleteHandler *
 ---------------------------------------------------------------------------------
 (7) _I2C_MasterSetIrq                                     0     0      0       0
 ---------------------------------------------------------------------------------
 (6) _I2C_DO_TX                                            3     3      0   16589
                                              1 COMMON     3     3      0
                   Absolute function *
            _I2C_CallbackReturnReset *
             _I2C_CallbackReturnStop *
           _I2C_DO_SEND_RESTART_READ
          _I2C_DO_SEND_RESTART_WRITE
                   _I2C_DO_SEND_STOP
                   _I2C_MasterIsNack
               _I2C_MasterSendTxData
              _rd1RegCompleteHandler *
            _rdBlkRegCompleteHandler *
              _wr1RegCompleteHandler *
              _wr2RegCompleteHandler *
 ---------------------------------------------------------------------------------
 (6) _I2C_MasterIsNack                                     0     0      0       0
 ---------------------------------------------------------------------------------
 (7) _I2C_DO_SEND_RESTART_WRITE                            0     0      0       0
            _I2C_MasterEnableRestart
 ---------------------------------------------------------------------------------
 (7) _I2C_DO_SEND_RESTART_READ                             0     0      0       0
            _I2C_MasterEnableRestart
 ---------------------------------------------------------------------------------
 (6) _I2C_DO_SEND_ADR_WRITE                                0     0      0      22
               _I2C_MasterSendTxData
 ---------------------------------------------------------------------------------
 (6) _I2C_DO_SEND_ADR_READ                                 0     0      0      22
               _I2C_MasterSendTxData
 ---------------------------------------------------------------------------------
 (7) _I2C_MasterSendTxData                                 1     1      0      22
                                              0 COMMON     1     1      0
 ---------------------------------------------------------------------------------
 (6) _I2C_DO_RX_ACK                                        0     0      0       0
                  _I2C_MasterSendAck
 ---------------------------------------------------------------------------------
 (6) _I2C_DO_RX                                            3     3      0   16567
                                              0 COMMON     3     3      0
                   Absolute function *
            _I2C_CallbackReturnReset *
             _I2C_CallbackReturnStop *
             _I2C_DO_RX_NACK_RESTART
                _I2C_DO_RX_NACK_STOP
                _I2C_MasterGetRxData
                  _I2C_MasterSendAck
              _rd1RegCompleteHandler *
            _rdBlkRegCompleteHandler *
              _wr1RegCompleteHandler *
              _wr2RegCompleteHandler *
 ---------------------------------------------------------------------------------
 (7) _I2C_MasterSendAck                                    0     0      0       0
 ---------------------------------------------------------------------------------
 (7) _I2C_MasterGetRxData                                  0     0      0       0
 ---------------------------------------------------------------------------------
 (6) _I2C_DO_RX_NACK_STOP                                  0     0      0       0
                 _I2C_MasterSendNack
 ---------------------------------------------------------------------------------
 (6) _I2C_DO_RX_NACK_RESTART                               0     0      0       0
                 _I2C_MasterSendNack
 ---------------------------------------------------------------------------------
 (7) _I2C_MasterSendNack                                   0     0      0       0
 ---------------------------------------------------------------------------------
 (6) _I2C_DO_RESET                                         0     0      0       0
 ---------------------------------------------------------------------------------
 (6) _I2C_DO_RCEN                                          0     0      0       0
                  _I2C_MasterStartRx
 ---------------------------------------------------------------------------------
 (7) _I2C_MasterStartRx                                    0     0      0       0
 ---------------------------------------------------------------------------------
 (6) _I2C_DO_IDLE                                          0     0      0       0
 ---------------------------------------------------------------------------------
 (6) _I2C_DO_ADDRESS_NACK                                  3     3      0   16567
                                              0 COMMON     3     3      0
                   Absolute function *
            _I2C_CallbackReturnReset *
             _I2C_CallbackReturnStop *
                _I2C_DO_SEND_RESTART
                   _I2C_DO_SEND_STOP
              _rd1RegCompleteHandler *
            _rdBlkRegCompleteHandler *
              _wr1RegCompleteHandler *
              _wr2RegCompleteHandler *
 ---------------------------------------------------------------------------------
 (7) _wr2RegCompleteHandler                                1     0      1    4070
                                              9 COMMON     1     0      1
                      _I2C_SetBuffer
        _I2C_SetDataCompleteCallback
 ---------------------------------------------------------------------------------
 (7) _wr1RegCompleteHandler                                1     0      1    4070
                                              9 COMMON     1     0      1
                      _I2C_SetBuffer
        _I2C_SetDataCompleteCallback
 ---------------------------------------------------------------------------------
 (7) _rdBlkRegCompleteHandler                              1     0      1    4357
                                              9 COMMON     1     0      1
                      _I2C_SetBuffer
        _I2C_SetDataCompleteCallback
 ---------------------------------------------------------------------------------
 (7) _rd1RegCompleteHandler                                1     0      1    4070
                                              9 COMMON     1     0      1
                      _I2C_SetBuffer
        _I2C_SetDataCompleteCallback
 ---------------------------------------------------------------------------------
 (8) _I2C_SetDataCompleteCallback                          4     1      3    2478
                                              5 COMMON     4     1      3
                    _I2C_SetCallback
 ---------------------------------------------------------------------------------
 (3) _I2C_SetCallback                                      5     2      3     914
                                              0 COMMON     5     2      3
 ---------------------------------------------------------------------------------
 (2) _I2C_SetBuffer                                        4     2      2    1570
                                              0 COMMON     4     2      2
 ---------------------------------------------------------------------------------
 (7) _I2C_DO_SEND_STOP                                     0     0      0       0
                     _I2C_MasterStop
 ---------------------------------------------------------------------------------
 (8) _I2C_MasterStop                                       0     0      0       0
 ---------------------------------------------------------------------------------
 (7) _I2C_DO_SEND_RESTART                                  0     0      0       0
            _I2C_MasterEnableRestart
 ---------------------------------------------------------------------------------
 (8) _I2C_MasterEnableRestart                              0     0      0       0
 ---------------------------------------------------------------------------------
 (7) _I2C_CallbackReturnStop                               1     0      1       0
                                              9 COMMON     1     0      1
 ---------------------------------------------------------------------------------
 (7) _I2C_CallbackReturnReset                              1     0      1       0
                                              9 COMMON     1     0      1
 ---------------------------------------------------------------------------------
 (7) Absolute function(Fake)                               1     0      1       0
 ---------------------------------------------------------------------------------
 (4) _I2C_MasterStart                                      0     0      0       0
 ---------------------------------------------------------------------------------
 (2) _I2C_Close                                            2     2      0      24
                                              0 COMMON     2     2      0
                 _I2C_MasterClearIrq
                    _I2C_MasterClose
               _I2C_MasterDisableIrq
 ---------------------------------------------------------------------------------
 (3) _I2C_MasterDisableIrq                                 0     0      0       0
 ---------------------------------------------------------------------------------
 (3) _I2C_MasterClose                                      0     0      0       0
 ---------------------------------------------------------------------------------
 (3) _I2C_MasterClearIrq                                   0     0      0       0
 ---------------------------------------------------------------------------------
 Estimated maximum stack depth 8
 ---------------------------------------------------------------------------------

 Call Graph Graphs:

 _main (ROOT)
   _I2C_Rd
     _I2C_Close
       _I2C_MasterClearIrq
       _I2C_MasterClose
       _I2C_MasterDisableIrq
     _I2C_MasterRead
       _I2C_MasterOperation
         _I2C_MasterStart
         _I2C_Poller
           _I2C_MasterFsm
             _I2C_DO_ADDRESS_NACK *
               Absolute function(Fake) *
               _I2C_CallbackReturnReset *
               _I2C_CallbackReturnStop *
               _I2C_DO_SEND_RESTART *
                 _I2C_MasterEnableRestart
               _I2C_DO_SEND_STOP *
                 _I2C_MasterStop
               _rd1RegCompleteHandler *
                 _I2C_SetBuffer
                 _I2C_SetDataCompleteCallback
                   _I2C_SetCallback
               _rdBlkRegCompleteHandler *
                 _I2C_SetBuffer
                 _I2C_SetDataCompleteCallback
               _wr1RegCompleteHandler *
                 _I2C_SetBuffer
                 _I2C_SetDataCompleteCallback
               _wr2RegCompleteHandler *
                 _I2C_SetBuffer
                 _I2C_SetDataCompleteCallback
             _I2C_DO_IDLE *
             _I2C_DO_RCEN *
               _I2C_MasterStartRx
             _I2C_DO_RESET *
             _I2C_DO_RX *
               Absolute function(Fake) *
               _I2C_CallbackReturnReset *
               _I2C_CallbackReturnStop *
               _I2C_DO_RX_NACK_RESTART *
                 _I2C_MasterSendNack
               _I2C_DO_RX_NACK_STOP *
                 _I2C_MasterSendNack
               _I2C_MasterGetRxData *
               _I2C_MasterSendAck *
               _rd1RegCompleteHandler *
               _rdBlkRegCompleteHandler *
               _wr1RegCompleteHandler *
               _wr2RegCompleteHandler *
             _I2C_DO_RX_ACK *
               _I2C_MasterSendAck
             _I2C_DO_RX_NACK_RESTART *
             _I2C_DO_RX_NACK_STOP *
             _I2C_DO_SEND_ADR_READ *
               _I2C_MasterSendTxData
             _I2C_DO_SEND_ADR_WRITE *
               _I2C_MasterSendTxData
             _I2C_DO_SEND_RESTART *
             _I2C_DO_SEND_RESTART_READ *
               _I2C_MasterEnableRestart
             _I2C_DO_SEND_RESTART_WRITE *
               _I2C_MasterEnableRestart
             _I2C_DO_SEND_STOP *
             _I2C_DO_TX *
               Absolute function(Fake) *
               _I2C_CallbackReturnReset *
               _I2C_CallbackReturnStop *
               _I2C_DO_SEND_RESTART_READ *
               _I2C_DO_SEND_RESTART_WRITE *
               _I2C_DO_SEND_STOP *
               _I2C_MasterIsNack *
               _I2C_MasterSendTxData *
               _rd1RegCompleteHandler *
               _rdBlkRegCompleteHandler *
               _wr1RegCompleteHandler *
               _wr2RegCompleteHandler *
             _I2C_DO_TX_EMPTY *
               Absolute function(Fake) *
               _I2C_CallbackReturnReset *
               _I2C_CallbackReturnStop *
               _I2C_DO_SEND_RESTART *
               _I2C_DO_SEND_STOP *
               _I2C_MasterSetIrq *
               _rd1RegCompleteHandler *
               _rdBlkRegCompleteHandler *
               _wr1RegCompleteHandler *
               _wr2RegCompleteHandler *
             _I2C_MasterClearIrq *
             _I2C_MasterIsNack *
           _I2C_MasterWaitForEvent
     _I2C_Open
       _I2C_MasterClearIrq
       _I2C_MasterOpen
     _I2C_SetBuffer
   _I2C_Wr
     _I2C_Close
     _I2C_MasterWrite
       _I2C_MasterOperation
     _I2C_Open
     _I2C_SetAddressNackCallback
       _I2C_SetCallback
     _I2C_SetBuffer
   _SYSTEM_Initialize
     _I2C_Initialize
     _OSCILLATOR_Initialize
     _PIN_MANAGER_Initialize
     _WDT_Initialize
   ___awdiv
   ___awmod

 Address spaces:
Name               Size   Autos  Total    Cost      Usage
BIGRAM             3F0      0       0       0        0.0%
EEDATA             100      0       0       0        0.0%
NULL                 0      0       0       0        0.0%
CODE                 0      0       0       0        0.0%
BITCOMMON            E      0       0       1        0.0%
BITSFR0              0      0       0       1        0.0%
SFR0                 0      0       0       1        0.0%
COMMON               E      C       E       2      100.0%
BITSFR1              0      0       0       2        0.0%
SFR1                 0      0       0       2        0.0%
BITSFR2              0      0       0       3        0.0%
SFR2                 0      0       0       3        0.0%
STACK                0      0       0       3        0.0%
BITBANK0            50      0       0       4        0.0%
BITSFR3              0      0       0       4        0.0%
SFR3                 0      0       0       4        0.0%
BANK0               50      3      23       5       43.8%
BITSFR4              0      0       0       5        0.0%
SFR4                 0      0       0       5        0.0%
BITBANK1            50      0       0       6        0.0%
BITSFR5              0      0       0       6        0.0%
SFR5                 0      0       0       6        0.0%
BANK1               50      0       0       7        0.0%
BITSFR6              0      0       0       7        0.0%
SFR6                 0      0       0       7        0.0%
BITBANK2            50      0       0       8        0.0%
BITSFR7              0      0       0       8        0.0%
SFR7                 0      0       0       8        0.0%
BANK2               50      0       0       9        0.0%
BITSFR8              0      0       0       9        0.0%
SFR8                 0      0       0       9        0.0%
BITBANK3            50      0       0      10        0.0%
BITSFR9              0      0       0      10        0.0%
SFR9                 0      0       0      10        0.0%
BANK3               50      0       0      11        0.0%
BITSFR10             0      0       0      11        0.0%
SFR10                0      0       0      11        0.0%
BITBANK4            50      0       0      12        0.0%
BITSFR11             0      0       0      12        0.0%
SFR11                0      0       0      12        0.0%
BANK4               50      0       0      13        0.0%
BITSFR12             0      0       0      13        0.0%
SFR12                0      0       0      13        0.0%
BITBANK5            50      0       0      14        0.0%
BITSFR13             0      0       0      14        0.0%
SFR13                0      0       0      14        0.0%
BANK5               50      0       0      15        0.0%
BITSFR14             0      0       0      15        0.0%
SFR14                0      0       0      15        0.0%
BITBANK6            50      0       0      16        0.0%
BITSFR15             0      0       0      16        0.0%
SFR15                0      0       0      16        0.0%
BANK6               50      0       0      17        0.0%
BITSFR16             0      0       0      17        0.0%
SFR16                0      0       0      17        0.0%
BITBANK7            50      0       0      18        0.0%
BITSFR17             0      0       0      18        0.0%
SFR17                0      0       0      18        0.0%
BANK7               50      0       0      19        0.0%
BITSFR18             0      0       0      19        0.0%
SFR18                0      0       0      19        0.0%
BITSFR19             0      0       0      20        0.0%
SFR19                0      0       0      20        0.0%
ABS                  0      0      31      20        0.0%
BITBANK8            50      0       0      21        0.0%
BITSFR20             0      0       0      21        0.0%
SFR20                0      0       0      21        0.0%
BANK8               50      0       0      22        0.0%
BITSFR21             0      0       0      22        0.0%
SFR21                0      0       0      22        0.0%
BITBANK9            50      0       0      23        0.0%
BITSFR22             0      0       0      23        0.0%
SFR22                0      0       0      23        0.0%
BANK9               50      0       0      24        0.0%
BITSFR23             0      0       0      24        0.0%
SFR23                0      0       0      24        0.0%
BITBANK10           50      0       0      25        0.0%
BITSFR24             0      0       0      25        0.0%
SFR24                0      0       0      25        0.0%
BANK10              50      0       0      26        0.0%
BITSFR25             0      0       0      26        0.0%
SFR25                0      0       0      26        0.0%
BITBANK11           50      0       0      27        0.0%
BITSFR26             0      0       0      27        0.0%
SFR26                0      0       0      27        0.0%
BANK11              50      0       0      28        0.0%
BITSFR27             0      0       0      28        0.0%
SFR27                0      0       0      28        0.0%
BITBANK12           30      0       0      29        0.0%
BITSFR28             0      0       0      29        0.0%
SFR28                0      0       0      29        0.0%
BANK12              30      0       0      30        0.0%
BITSFR29             0      0       0      30        0.0%
SFR29                0      0       0      30        0.0%
BITSFR30             0      0       0      31        0.0%
SFR30                0      0       0      31        0.0%
DATA                 0      0      31      31        0.0%
BITSFR31             0      0       0      32        0.0%
SFR31                0      0       0      32        0.0%


Microchip Technology PIC Macro Assembler V2.36 build 20220127204148 
Symbol Table                                                                                   Sun May 07 16:46:48 2023

             ??_I2C_DO_SEND_ADR_READ 0070              ??_I2C_DO_SEND_ADR_WRITE 0071  
                        _SSPSTATbits 0214                                   l39 0508  
                       ___awdiv@sign 0076                ??_I2C_DO_SEND_RESTART 0070  
                                l210 040A                                  l204 0553  
                                l220 03DB                                  l214 057E  
                                l223 03D2                                  l160 0612  
                                l313 034C                                  l217 037F  
                                l305 05AA                                  l161 0613  
                                l226 06E5                                  l242 0631  
                                l243 0659                                  l171 04C6  
                                l316 034E                                  l332 0366  
                                l260 05D9                                  l165 04A8  
                                l229 0701                                  l157 03E4  
                                l350 0360                                  l254 03CA  
                                l174 03AC                                  l326 0417  
                                l510 03F0                                  l335 037A  
                                l184 0441                                  l344 0363  
                                l504 0431                                  l329 0354  
                                l353 03B7                                  l281 0389  
                                l177 03B1                                  l193 0424  
                                l513 0375                                  l338 035D  
                                l290 0398                                  l347 035A  
                                l187 03FD                                  l507 03EB  
                                l356 0371                                  l380 0369  
                                l284 038E                                  l453 0463  
                                l293 039D                                  l374 0357  
                                l462 0452                                  l278 0384  
                                l359 036D                                  l287 0393  
                                l383 03B8                                  l296 03A2  
                                l536 0764                                  l377 0351  
                                l465 048C                                  l474 052D  
                                l538 07E0                                  l459 0474  
                                l299 03A7                                  l387 03BD  
                                l483 04E6                                  l846 0760  
                                l859 06AC                                  u600 06B5  
                                u601 06B4                                  u610 06FE  
                                u611 06FD                                  u620 062C  
                                u700 05E2                                  u621 062B  
                                u701 05E1                                  u710 0494  
                                u630 03BD                                  u711 0493  
                                u631 03BC                                  u640 055C  
                                u720 03F0                                  u641 055B  
                                u721 03EF                                  u650 0564  
                                u730 0513                                  u810 0733  
                                u651 0563                                  u731 0512  
                                u811 0732                                  u580 0535  
                                u660 040A                                  u740 052D  
                                u581 0534                                  u661 0409  
                                u741 052C                                  u805 0727  
                                u590 0438                                  u670 0410  
                                u750 04D2                                  u830 0742  
                                u910 0685                                  u591 0437  
                                u671 040F                                  u751 04D1  
                                u831 0741                                  u911 0684  
                                u680 04B1                                  u760 04E5  
                                u920 068F                                  u681 04B0  
                                u761 04E4                                  u825 0734  
                                u921 068E                                  u905 0679  
                                u690 04B8                                  u850 0752  
                                u770 0707                                  u691 04B7  
                                u851 0751                                  u835 073E  
                                u771 0706                                  u860 0757  
                                u780 0712                                  u940 069E  
                                u861 0756                                  u845 0748  
                                u781 0711                                  u941 069D  
                                u925 068B                                  u790 0723  
                                u950 06A3                                  u870 065F  
                                u791 0722                                  u951 06A2  
                                u935 0694                                  u871 065E  
                                u880 066A                                  u881 0669  
                                u890 0675                                  u891 0674  
             _I2C_MasterWaitForEvent 03B8                         ___awmod@sign 0076  
                                wreg 0009         ??_I2C_SetAddressNackCallback 0078  
           ??_I2C_CallbackReturnStop 007A                         _I2C_DO_RESET 03A3  
                               l2001 03A1                                 l2011 0361  
                               l2021 034B                                 l2013 038A  
                               l2005 0399                                 l2031 045B  
                               l2111 0700                                 l2103 06C2  
                               l2015 038D                                 l2007 039C  
                               l2025 034D                                 l2033 0462  
                               l2041 0473                                 l2105 06E7  
                               l2121 061E                                 l2019 0367  
                               l2107 06F3                                 l2123 0622  
                               l2203 058A                                 l2045 0442  
                               l2029 0453                                 l2037 0464  
                               l2053 0475                                 l2061 037B  
                               l2109 06FE                                 l2133 0633  
                               l2125 062C                                 l2221 055C  
                               l2301 03DC                                 l2047 044A  
                               l2039 046C                                 l2055 048B  
                               l2063 037D                                 l2071 03D5  
                               l2143 063B                                 l2127 062F  
                               l2119 0614                                 l2151 03C6  
                               l2223 0564                                 l2231 03FF  
                               l2311 05E2                                 l2303 03DE  
                               l2049 0451                                 l2065 037E  
                               l2073 03DA                                 l2081 03D1  
                               l2137 0637                                 l2153 03C9  
                               l2209 058E                                 l2225 0569  
                               l2217 0554                                 l2233 0402  
                               l2241 0411                                 l2321 05F6  
                               l2313 05E6                                 l2305 03E0  
                               l2059 034F                                 l2251 0352  
                               l2227 0358                                 l2163 05B2  
                               l2219 0557                                 l2235 0405  
                               l2243 0413                                 l2331 0606  
                               l2323 05F7                                 l2315 05E7  
                               l2307 03E3                                 l2403 0425  
                               l2411 070C                                 l2341 048D  
                               l2165 05B5                                 l2157 05AB  
                               l2069 03D3                                 l2077 03CB  
                               l2093 06BA                                 l2085 06AD  
                               l2149 03C4                                 l2181 0394  
                               l2229 03FE                                 l2261 04B8  
                               l2253 04AA                                 l2245 0416  
                               l2237 040B                                 l2333 060B  
                               l2325 05FC                                 l2317 05E8  
                               l2309 05DB                                 l2421 071D  
                               l2413 070E                                 l2405 0702  
                               l2351 049F                                 l2343 0494  
                               l2159 05AE                                 l2175 05BB  
                               l2079 03CD                                 l2183 0397  
                               l2191 03A6                                 l2263 04BB  
                               l2255 04B1                                 l2239 0410  
                               l2335 060E                                 l2327 0600  
                               l2319 05F1                                 l2431 0733  
                               l2423 0723                                 l2415 0712  
                               l2407 0703                                 l2249 0355  
                               l2353 04A2                                 l2345 0495  
                               l2169 05B7                                 l2097 06BE  
                               l2089 06B6                                 l2265 04BF  
                               l2257 04B2                                 l2337 0611  
                               l2329 0605                                 l2281 04F4  
                               l2273 04E7                                 l2433 0742  
                               l2425 0726                                 l2441 0752  
                               l2417 0717                                 l2409 0707  
                               l2347 0499                                 l2355 04A7  
                               l2187 03A3                                 l2195 057F  
                               l2267 04C2                                 l2259 04B3  
                               l2363 03AD                                 l2371 03E8  
                               l2291 04FF                                 l2283 04F6  
                               l2275 04ED                                 l2443 0757  
                               l2435 0746                                 l2427 072B  
                               l2419 071B                                 l2451 065B  
                               l2349 049C                                 l2189 03A5  
                               l2197 0581                                 l2269 04C5  
                               l2381 0513                                 l2373 03E9  
                               l2293 0501                                 l2285 04F8  
                               l2277 04F0                                 l2445 075C  
                               l2437 0747                                 l2429 072F  
                               l2461 066F                                 l2453 065F  
                               l2621 0761                                 l2199 0586  
                               l2359 03A8                                 l2391 04C9  
                               l2367 0418                                 l2383 051B  
                               l2295 0503                                 l2287 04FB  
                               l2279 04F2                                 l2375 0372  
                               l2439 074C                                 l2471 0685  
                               l2463 0675                                 l2455 0664  
                               l2631 07C6                                 l2623 078B  
                               l2393 04D2                                 l2385 0522  
                               l2377 050A                                 l2369 03E5  
                               l2297 0504                                 l2289 04FD  
                               l2481 06A3                                 l2473 068F  
                               l2465 0678                                 l2457 0666  
                               l2449 065A                                 l2641 07E7  
                               l2633 07D2                                 l2625 079A  
                               l2731 05CB                                 l2395 04DA  
                               l2387 0525                                 l2379 050A  
                               l2299 0506                                 l2483 06A8  
                               l2475 0693                                 l2467 067D  
                               l2459 066A                                 l2643 07EC  
                               l2635 07D9                                 l2627 07AA  
                               l2725 05A2                                 l2397 04DD  
                               l2389 04C8                                 l2477 0698  
                               l2469 0681                                 l2637 07DE  
                               l2629 07B5                                 l1951 0535  
                               l2727 064B                                 l2399 04E5  
                               l2479 069E                                 l2639 07E6  
                               l1953 0546                                 l1961 03F1  
                               l2729 06D7                                 l1963 035B  
                               l1955 0433                                 l1965 035E  
                               l1957 0438                                 l1949 052F  
                               l1973 0377                                 l1981 0385  
                               l1959 0440                                 l1967 036A  
                               l1975 0380                                 l1983 0388  
                               l1993 0364                                 l1969 03B2  
                               l1977 0383                                 l1987 038F  
                               l1997 036E                                 l1989 0392  
                               l1999 039E                                 u1120 07D9  
                               u1121 07D8                                 u1130 07E6  
                               u1131 07E5                                 u1115 07BB  
                               u1140 07EC                                 u1141 07EB  
                               u1157 07CC                                 _LATA 010C  
                               _LATB 010D                                 _LATC 010E  
                               _LATD 010F                                 _LATE 0110  
                               _PLLR 04D6                                 _WPUB 020D  
                               _WPUE 0210              ??_wr2RegCompleteHandler 007A  
                               _main 0761             ?_I2C_CallbackReturnReset 0079  
                               fsr0h 0005                                 fsr1h 0007  
                               indf0 0000                                 fsr0l 0004  
                               indf1 0001                                 fsr1l 0006  
                   __end_of_I2C_Open 0614                                 btemp 007E  
                               start 0002                     ?_I2C_MasterClose 0070  
                   ?_I2C_MasterStart 0070                        _I2C_DO_RX_ACK 0394  
                   ?_I2C_MasterWrite 0070        __end_of_OSCILLATOR_Initialize 03F1  
                              ?_main 0070                      __end_of___awdiv 0761  
                    __end_of___awmod 06AD                      ___awdiv@divisor 0070  
                    ___awdiv@counter 0075                    ??_I2C_DO_TX_EMPTY 0070  
                              _TRISA 008C                                _TRISB 008D  
                              _TRISC 008E                                _TRISD 008F  
                              _TRISE 0090                      __end_of_digitos 082A  
                  __end_of_I2C_DO_RX 065A                    __end_of_I2C_DO_TX 0702  
                     _WDT_Initialize 0372                    __end_of_I2C_Close 04A9  
     I2C_MasterOperation@returnValue 0079              _I2C_MasterEnableRestart 035B  
                              pclath 000A                     ?_I2C_SetCallback 0070  
       I2C_SetAddressNackCallback@cb 0075                                status 0003  
                              wtemp0 007E                    ?_I2C_DO_SEND_STOP 0070  
                 ??_I2C_DO_SEND_STOP 0070                      __initialization 07F3  
                       __end_of_main 07F3            ?_I2C_DO_SEND_RESTART_READ 0070  
                     ?_I2C_DO_RX_ACK 0070                               ??_main 0040  
                  ?_I2C_MasterIsNack 0070                    I2C_Rd@returnValue 007B  
                  ?_I2C_MasterSetIrq 0070                   ??_I2C_MasterIsNack 0070  
             __end_of_WDT_Initialize 0376                   ??_I2C_MasterSetIrq 0070  
    __end_of_I2C_CallbackReturnReset 034F                               _I2C_Rd 04C7  
                             _I2C_Wr 0509                     ___awdiv@dividend 0072  
                             _APFCON 011D        I2C_SetDataCompleteCallback@cb 0075  
                             _ANSELA 018C                               _ANSELB 018D  
                             _ANSELD 018F                               _ANSELE 0190  
                             _BORCON 0116                         ??_I2C_Poller 0077  
                             _OSCCON 0099                               _WDTCON 0097  
                             _SSPADD 0212                               _SSPBUF 0211  
                _I2C_MasterGetRxData 0364                        _I2C_MasterFsm 0554  
                          ??___awdiv 0074                            ??___awmod 0074  
                  I2C_SetCallback@cb 0070                     ___awdiv@quotient 0077  
                    ___awmod@divisor 0070                      ___awmod@counter 0075  
                      _I2C_SetBuffer 0432                   __end_of_I2C_Poller 040B  
       __end_of_I2C_MasterDisableIrq 0358                  _I2C_DO_ADDRESS_NACK 057F  
               ?_I2C_MasterGetRxData 0070                            ?_I2C_Open 0070  
 __end_of_I2C_SetAddressNackCallback 0425           _I2C_SetAddressNackCallback 0418  
                    ?_WDT_Initialize 0070            ??_I2C_MasterEnableRestart 0070  
                  _SYSTEM_Initialize 0425              __end_of__initialization 07FD  
                _I2C_MasterOperation 04A9                   ?_SYSTEM_Initialize 0070  
               ?_I2C_DO_ADDRESS_NACK 0070              _rdBlkRegCompleteHandler 0475  
                     __pcstackCOMMON 0070                       ?_I2C_MasterFsm 0070  
                    ??_I2C_DO_RX_ACK 0070               _I2C_CallbackReturnStop 034B  
                ??_SYSTEM_Initialize 0070                       ?_I2C_SetBuffer 0070  
            ?_I2C_MasterWaitForEvent 0070        __end_of_I2C_DO_SEND_ADR_WRITE 03D3  
         ?_I2C_DO_SEND_RESTART_WRITE 0070                 ?_I2C_MasterOperation 0070  
              ??_I2C_MasterGetRxData 0070                       _OPTION_REGbits 0095  
                         ??_I2C_Open 0070           __end_of_I2C_MasterClearIrq 0352  
                            ?_I2C_Rd 0070            __end_of_SYSTEM_Initialize 0432  
                            ?_I2C_Wr 007A                    _I2C_MasterSendAck 036E  
                         __pbssBANK0 0020                        ??_I2C_DO_IDLE 0070  
                      ??_I2C_DO_RCEN 0070         __end_of_I2C_MasterSendTxData 037B  
                 ?_I2C_MasterSendAck 0070                    _I2C_MasterStartRx 0361  
              ??_I2C_DO_ADDRESS_NACK 0070        __end_of_wr2RegCompleteHandler 0453  
                _I2C_DO_RX_NACK_STOP 0399                _rd1RegCompleteHandler 0453  
                 ?_I2C_MasterStartRx 0070           __end_of_I2C_MasterSendNack 036E  
              _wr1RegCompleteHandler 0464                           __pmaintext 0761  
                ??_I2C_MasterSendAck 0070             rd1RegCompleteHandler@ptr 0079  
        __end_of_I2C_DO_SEND_RESTART 038F                      _I2C_DO_TX_EMPTY 05AB  
                I2C_SetBuffer@buffer 0073                           I2C_Wr@data 007A  
     __end_of_I2C_MasterWaitForEvent 03BE                  ??_I2C_MasterStartRx 0070  
              ??_I2C_MasterOperation 0077       I2C_SetDataCompleteCallback@ptr 0077  
           ??_I2C_DO_RX_NACK_RESTART 0070    __end_of_I2C_DO_SEND_RESTART_WRITE 038A  
               ?_I2C_DO_RX_NACK_STOP 0070            __end_of_I2C_MasterSendAck 0372  
                            _OSCTUNE 0098                              _SSPCON1 0215  
                            _SSPCON2 0216                              _SSPSTAT 0214  
          __end_of_I2C_MasterStartRx 0364                 I2C_Close@returnValue 0071  
       ?_I2C_SetDataCompleteCallback 0075                            _I2C_DO_RX 0614  
                          _I2C_DO_TX 06AD     __end_of_I2C_DO_SEND_RESTART_READ 0385  
                          _I2C_Close 048D            ??_rdBlkRegCompleteHandler 007A  
               _I2C_MasterDisableIrq 0355                      ??_I2C_MasterFsm 0074  
                __end_of_I2C_DO_IDLE 0380                  __end_of_I2C_DO_RCEN 03CB  
                            ___awdiv 0702                              ___awmod 065A  
                    ??_I2C_SetBuffer 0072              I2C_SetBuffer@bufferSize 0070  
                     _I2C_MasterRead 03A8                              _decenas 003F  
                     _I2C_MasterOpen 040B                       _I2C_MasterStop 035E  
                     _I2C_Initialize 03DC                              _digitos 0820  
                            __ptext1 065A                              __ptext2 0702  
                            __ptext3 0425                              __ptext4 0372  
                            __ptext5 04E7                              __ptext6 03E5  
                            __ptext7 03DC                              __ptext8 0509  
                            __ptext9 0418                ??_I2C_DO_RX_NACK_STOP 0070  
              _OSCILLATOR_Initialize 03E5                     ___awmod@dividend 0072  
                 I2C_SetCallback@idx 0074             ??_PIN_MANAGER_Initialize 0070  
      I2C_CallbackReturnReset@funPtr 0079                   I2C_SetCallback@ptr 0072  
           wr1RegCompleteHandler@ptr 0079                              clrloop0 03BF  
               end_of_initialization 07FD                           ?_I2C_DO_RX 0070  
                         ?_I2C_DO_TX 0070                           ?_I2C_Close 0070  
             ?_rd1RegCompleteHandler 0079              __end_of_I2C_DO_TX_EMPTY 05DA  
              ?_I2C_MasterDisableIrq 0070               ?_wr1RegCompleteHandler 0079  
             __end_of_I2C_MasterRead 03AD               __end_of_I2C_MasterOpen 0418  
             __end_of_I2C_MasterStop 0361               __end_of_I2C_Initialize 03E5  
                   ??_WDT_Initialize 0070      __end_of_rdBlkRegCompleteHandler 048D  
               _I2C_MasterSendTxData 0376          ?_I2C_SetAddressNackCallback 0075  
                     __end_of_I2C_Rd 04E7                       __end_of_I2C_Wr 052E  
                        _I2C_DO_IDLE 037B                          _I2C_DO_RCEN 03C4  
         rdBlkRegCompleteHandler@ptr 0079              ?_I2C_CallbackReturnStop 0079  
           _I2C_DO_SEND_RESTART_READ 0380         I2C_CallbackReturnStop@funPtr 0079  
                    ?_I2C_MasterRead 0070                      ?_I2C_MasterOpen 0070  
                    ?_I2C_MasterStop 0070                      ?_I2C_Initialize 0070  
            _I2C_CallbackReturnReset 034D                ?_I2C_MasterSendTxData 0070  
             ?_OSCILLATOR_Initialize 0070          ??_I2C_DO_SEND_RESTART_WRITE 0070  
                start_initialization 07F3                        ?_I2C_DO_RESET 0070  
                           ??_I2C_Rd 007A                             ??_I2C_Wr 007B  
                        ??_I2C_DO_RX 0070                          ??_I2C_DO_TX 0071  
                  ??_I2C_MasterClose 0070               ??_I2C_MasterDisableIrq 0070  
                        ??_I2C_Close 0070                    ??_I2C_MasterStart 0070  
                  ??_I2C_MasterWrite 007A       __end_of_I2C_CallbackReturnStop 034D  
             _I2C_DO_RX_NACK_RESTART 039E                     ?_I2C_DO_TX_EMPTY 0070  
                 _I2C_MasterClearIrq 034F                  ?_I2C_MasterClearIrq 0070  
        __end_of_I2C_MasterGetRxData 0367                        I2C_Rd@address 007A  
              __end_of_I2C_DO_RX_ACK 0399                     _I2C_DO_SEND_STOP 038F  
                  ??_I2C_SetCallback 0073                  I2C_Open@returnValue 0072  
                 _I2C_MasterSendNack 036A             ?_I2C_MasterEnableRestart 0070  
                  _i2c_fsmStateTable 0800                _I2C_DO_SEND_ADR_WRITE 03CB  
                        __pbssCOMMON 007C                            ___latbits 0003  
                      __pcstackBANK0 0040                       ??_I2C_DO_RESET 0070  
                ?_I2C_MasterSendNack 0070         __end_of_I2C_DO_SEND_ADR_READ 03DC  
               ??_I2C_MasterClearIrq 0070          __end_of_I2C_DO_ADDRESS_NACK 05AB  
                   _I2C_MasterIsNack 03B2            _I2C_DO_SEND_RESTART_WRITE 0385  
                   _I2C_MasterSetIrq 0367               _PIN_MANAGER_Initialize 04E7  
              _wr2RegCompleteHandler 0442            ??_I2C_CallbackReturnReset 007A  
        __end_of_I2C_MasterOperation 04C7                 ??_I2C_MasterSendNack 0070  
                           ?___awdiv 0070                             ?___awmod 0070  
             ??_I2C_MasterSendTxData 0070            __end_of_i2c_fsmStateTable 0820  
            I2C_MasterOperation@read 0078                             _I2C_Open 05DA  
            ??_rd1RegCompleteHandler 007A                        I2C_Wr@address 007B  
            ??_wr1RegCompleteHandler 007A                            clear_ram0 03BE  
                           _PIE1bits 0091                             _PIR1bits 0011  
                           _PIR2bits 0012                __end_of_I2C_MasterFsm 057F  
        __end_of_I2C_DO_RX_NACK_STOP 039E      __end_of_I2C_MasterEnableRestart 035E  
              __end_of_I2C_SetBuffer 0442               ?_I2C_DO_SEND_ADR_WRITE 0070  
           I2C_MasterSendTxData@data 0070                            _statusbtn 003D  
           wr2RegCompleteHandler@ptr 0079           ??_I2C_DO_SEND_RESTART_READ 0070  
           ?_rdBlkRegCompleteHandler 0079                           _I2C_Poller 03FE  
                         _I2C_Status 0020                         ?_I2C_DO_IDLE 0070  
                       ?_I2C_DO_RCEN 0070                     ??_I2C_MasterRead 007A  
                   ??_I2C_MasterOpen 0070               ?_wr2RegCompleteHandler 0079  
                   ??_I2C_MasterStop 0070             ??_I2C_MasterWaitForEvent 0070  
                   ??_I2C_Initialize 0070                 __end_of_I2C_DO_RESET 03A8  
            ??_OSCILLATOR_Initialize 0070                 _I2C_DO_SEND_ADR_READ 03D3  
                    _I2C_MasterClose 0352        I2C_SetAddressNackCallback@ptr 0077  
                    I2C_Open@address 0071                      _I2C_MasterStart 0358  
                    _I2C_MasterWrite 03AD                             __ptext10 03AD  
                           __ptext11 04C7                             __ptext20 03A3  
                           __ptext12 05DA                             __ptext21 039E  
                           __ptext13 040B                             __ptext30 06AD  
                           __ptext22 0399                             __ptext14 03A8  
                           __ptext31 03CB                             __ptext23 0394  
                           __ptext15 04A9                             __ptext40 036A  
                           __ptext32 03D3                             __ptext24 038F  
                           __ptext16 03FE                             __ptext41 0361  
                           __ptext33 037B                             __ptext25 038A  
                           __ptext17 03B8                             __ptext50 0432  
                           __ptext42 0475                             __ptext34 05AB  
                           __ptext26 0385                             __ptext18 0554  
                           __ptext51 035E                             __ptext43 0464  
                           __ptext35 0367                             __ptext27 0380  
                           __ptext19 057F                             __ptext52 035B  
                           __ptext44 0453                             __ptext36 03B2  
                           __ptext28 03C4                             __ptext53 0358  
                           __ptext45 034D                             __ptext37 0376  
                           __ptext29 0614                             __ptext54 048D  
                           __ptext46 034B                             __ptext38 036E  
                           __ptext55 0355                             __ptext47 0442  
                           __ptext39 0364                             __ptext56 0352  
                           __ptext48 03F1                             __ptext57 034F  
                           __ptext49 052E  __end_of_I2C_SetDataCompleteCallback 03FE  
        _I2C_SetDataCompleteCallback 03F1                             _contador 007D  
            ?_I2C_DO_RX_NACK_RESTART 0070             __end_of_I2C_DO_SEND_STOP 0394  
                    _I2C_SetCallback 052E        ??_I2C_SetDataCompleteCallback 0078  
                           _unidades 007C                ?_I2C_DO_SEND_ADR_READ 0070  
           __end_of_I2C_MasterIsNack 03B8             __end_of_I2C_MasterSetIrq 036A  
     __end_of_I2C_DO_RX_NACK_RESTART 03A3                          ?_I2C_Poller 0070  
            ?_PIN_MANAGER_Initialize 0070                  _I2C_DO_SEND_RESTART 038A  
            __end_of_I2C_MasterClose 0355              __end_of_I2C_MasterStart 035B  
            __end_of_I2C_MasterWrite 03B2                        __pstringtext1 0800  
                      __pstringtext2 0820                 ?_I2C_DO_SEND_RESTART 0070  
                        _SSPCON1bits 0215                          _SSPCON2bits 0216  
            __end_of_I2C_SetCallback 0554       __end_of_PIN_MANAGER_Initialize 0509  
      __end_of_rd1RegCompleteHandler 0464        __end_of_wr1RegCompleteHandler 0475  
