

Microchip MPLAB XC8 Assembler V2.36 build 20220127204148 
                                                                                               Sat Apr 01 21:49:15 2023

Microchip MPLAB XC8 C Compiler v2.36 (Free license) build 20220127204148 Og1 
     1                           	processor	16F1939
     2                           	pagewidth 120
     3                           	opt	flic
     4                           	psect	idataBIGRAM,global,class=CODE,delta=2,noexec
     5                           	psect	nvBANK0,global,class=BANK0,space=1,delta=1,noexec
     6                           	psect	stringtext1,global,class=STRCODE,delta=2,noexec
     7                           	psect	stringtext2,global,class=STRCODE,delta=2,noexec
     8                           	psect	stringtext3,global,class=STRCODE,delta=2,noexec
     9                           	psect	stringtext4,global,class=STRCODE,delta=2,noexec
    10                           	psect	stringtext5,global,class=STRCODE,delta=2,noexec
    11                           	psect	stringtext6,global,class=STRCODE,delta=2,noexec
    12                           	psect	stringtext7,global,class=STRCODE,delta=2,noexec
    13                           	psect	cinit,global,class=CODE,merge=1,delta=2
    14                           	psect	bssBANK0,global,class=BANK0,space=1,delta=1,noexec
    15                           	psect	inittext,global,class=CODE,delta=2
    16                           	psect	cstackCOMMON,global,class=COMMON,space=1,delta=1,noexec
    17                           	psect	cstackBANK0,global,class=BANK0,space=1,delta=1,noexec
    18                           	psect	maintext,global,class=CODE,merge=1,split=1,delta=2
    19                           	psect	text1,local,class=CODE,merge=1,delta=2,group=2
    20                           	psect	text2,local,class=CODE,merge=1,delta=2,group=2
    21                           	psect	text3,local,class=CODE,merge=1,delta=2,group=2
    22                           	psect	text4,local,class=CODE,merge=1,delta=2,group=2
    23                           	psect	text5,local,class=CODE,merge=1,delta=2,group=2
    24                           	psect	text6,local,class=CODE,merge=1,delta=2
    25                           	psect	text7,local,class=CODE,merge=1,delta=2
    26                           	psect	text8,local,class=CODE,merge=1,delta=2
    27                           	psect	text9,local,class=CODE,merge=1,delta=2
    28                           	psect	text10,local,class=CODE,merge=1,delta=2
    29                           	psect	text11,local,class=CODE,merge=1,delta=2
    30                           	psect	text12,local,class=CODE,merge=1,delta=2
    31                           	psect	text13,local,class=CODE,merge=1,delta=2
    32                           	psect	text14,local,class=CODE,merge=1,delta=2
    33                           	psect	text15,local,class=CODE,merge=1,delta=2
    34                           	psect	idloc,global,abs,ovrld,class=IDLOC,space=5,delta=2,noexec
    35                           	psect	config,global,abs,ovrld,class=CONFIG,space=4,delta=2,noexec
    36                           	dabs	1,0x620,48
    37                           	dabs	1,0x5BC,52
    38                           	dabs	1,0x238C,0,_tramaRx
    39                           	dabs	1,0x7E,2
    40  0000                     
    41                           ; Version 2.40
    42                           ; Generated 17/11/2021 GMT
    43                           ; 
    44                           ; Copyright © 2021, Microchip Technology Inc. and its subsidiaries ("Microchip")
    45                           ; All rights reserved.
    46                           ; 
    47                           ; This software is developed by Microchip Technology Inc. and its subsidiaries ("Microch
      +                          ip").
    48                           ; 
    49                           ; Redistribution and use in source and binary forms, with or without modification, are
    50                           ; permitted provided that the following conditions are met:
    51                           ; 
    52                           ;     1. Redistributions of source code must retain the above copyright notice, this lis
      +                          t of
    53                           ;        conditions and the following disclaimer.
    54                           ; 
    55                           ;     2. Redistributions in binary form must reproduce the above copyright notice, this 
      +                          list
    56                           ;        of conditions and the following disclaimer in the documentation and/or other
    57                           ;        materials provided with the distribution. Publication is not required when
    58                           ;        this file is used in an embedded application.
    59                           ; 
    60                           ;     3. Microchip's name may not be used to endorse or promote products derived from th
      +                          is
    61                           ;        software without specific prior written permission.
    62                           ; 
    63                           ; THIS SOFTWARE IS PROVIDED BY MICROCHIP "AS IS" AND ANY EXPRESS OR IMPLIED WARRANTIES,
    64                           ; INCLUDING, BUT NOT LIMITED TO, THE IMPLIED WARRANTIES OF MERCHANTABILITY AND FITNESS F
      +                          OR
    65                           ; PURPOSE ARE DISCLAIMED.  IN NO EVENT SHALL MICROCHIP BE LIABLE FOR ANY DIRECT, INDIREC
      +                          T,
    66                           ; INCIDENTAL, SPECIAL, EXEMPLARY, OR CONSEQUENTIAL DAMAGES (INCLUDING BUT NOT LIMITED TO
    67                           ; PROCUREMENT OF SUBSTITUTE GOODS OR SERVICES; LOSS OF USE, DATA OR PROFITS; OR BUSINESS
    68                           ; INTERRUPTION) HOWSOEVER CAUSED AND ON ANY THEORY OF LIABILITY, WHETHER IN CONTRACT, ST
      +                          RICT
    69                           ; LIABILITY, OR TORT (INCLUDING NEGLIGENCE OR OTHERWISE) ARISING IN ANY WAY OUT OF THE U
      +                          SE OF
    70                           ; THIS SOFTWARE, EVEN IF ADVISED OF THE POSSIBILITY OF SUCH DAMAGE.
    71                           ; 
    72                           ; 
    73                           ; Code-generator required, PIC16F1939 Definitions
    74                           ; 
    75                           ; SFR Addresses
    76  0000                     	;# 
    77  0001                     	;# 
    78  0002                     	;# 
    79  0003                     	;# 
    80  0004                     	;# 
    81  0005                     	;# 
    82  0006                     	;# 
    83  0007                     	;# 
    84  0008                     	;# 
    85  0009                     	;# 
    86  000A                     	;# 
    87  000B                     	;# 
    88  000C                     	;# 
    89  000D                     	;# 
    90  000E                     	;# 
    91  000F                     	;# 
    92  0010                     	;# 
    93  0011                     	;# 
    94  0012                     	;# 
    95  0013                     	;# 
    96  0015                     	;# 
    97  0016                     	;# 
    98  0016                     	;# 
    99  0017                     	;# 
   100  0018                     	;# 
   101  0019                     	;# 
   102  001A                     	;# 
   103  001B                     	;# 
   104  001C                     	;# 
   105  001E                     	;# 
   106  001F                     	;# 
   107  008C                     	;# 
   108  008D                     	;# 
   109  008E                     	;# 
   110  008F                     	;# 
   111  0090                     	;# 
   112  0091                     	;# 
   113  0092                     	;# 
   114  0093                     	;# 
   115  0095                     	;# 
   116  0096                     	;# 
   117  0097                     	;# 
   118  0098                     	;# 
   119  0099                     	;# 
   120  009A                     	;# 
   121  009B                     	;# 
   122  009B                     	;# 
   123  009C                     	;# 
   124  009D                     	;# 
   125  009E                     	;# 
   126  010C                     	;# 
   127  010D                     	;# 
   128  010E                     	;# 
   129  010F                     	;# 
   130  0110                     	;# 
   131  0111                     	;# 
   132  0112                     	;# 
   133  0113                     	;# 
   134  0114                     	;# 
   135  0115                     	;# 
   136  0116                     	;# 
   137  0117                     	;# 
   138  0118                     	;# 
   139  0119                     	;# 
   140  011A                     	;# 
   141  011B                     	;# 
   142  011D                     	;# 
   143  018C                     	;# 
   144  018D                     	;# 
   145  018F                     	;# 
   146  0190                     	;# 
   147  0191                     	;# 
   148  0191                     	;# 
   149  0192                     	;# 
   150  0193                     	;# 
   151  0193                     	;# 
   152  0193                     	;# 
   153  0194                     	;# 
   154  0195                     	;# 
   155  0196                     	;# 
   156  0199                     	;# 
   157  019A                     	;# 
   158  019B                     	;# 
   159  019B                     	;# 
   160  019B                     	;# 
   161  019B                     	;# 
   162  019C                     	;# 
   163  019C                     	;# 
   164  019D                     	;# 
   165  019E                     	;# 
   166  019F                     	;# 
   167  020D                     	;# 
   168  0210                     	;# 
   169  0211                     	;# 
   170  0212                     	;# 
   171  0213                     	;# 
   172  0214                     	;# 
   173  0215                     	;# 
   174  0215                     	;# 
   175  0216                     	;# 
   176  0217                     	;# 
   177  0291                     	;# 
   178  0291                     	;# 
   179  0292                     	;# 
   180  0293                     	;# 
   181  0294                     	;# 
   182  0295                     	;# 
   183  0295                     	;# 
   184  0296                     	;# 
   185  0298                     	;# 
   186  0298                     	;# 
   187  0299                     	;# 
   188  029A                     	;# 
   189  029B                     	;# 
   190  029C                     	;# 
   191  029C                     	;# 
   192  029D                     	;# 
   193  029E                     	;# 
   194  029F                     	;# 
   195  0311                     	;# 
   196  0311                     	;# 
   197  0312                     	;# 
   198  0313                     	;# 
   199  0314                     	;# 
   200  0315                     	;# 
   201  0315                     	;# 
   202  0316                     	;# 
   203  0318                     	;# 
   204  0318                     	;# 
   205  0319                     	;# 
   206  031A                     	;# 
   207  031C                     	;# 
   208  031C                     	;# 
   209  031D                     	;# 
   210  031E                     	;# 
   211  0394                     	;# 
   212  0395                     	;# 
   213  0396                     	;# 
   214  0415                     	;# 
   215  0416                     	;# 
   216  0417                     	;# 
   217  041C                     	;# 
   218  041D                     	;# 
   219  041E                     	;# 
   220  0791                     	;# 
   221  0792                     	;# 
   222  0793                     	;# 
   223  0794                     	;# 
   224  0795                     	;# 
   225  0798                     	;# 
   226  0799                     	;# 
   227  079A                     	;# 
   228  07A0                     	;# 
   229  07A1                     	;# 
   230  07A2                     	;# 
   231  07A3                     	;# 
   232  07A4                     	;# 
   233  07A5                     	;# 
   234  07A6                     	;# 
   235  07A7                     	;# 
   236  07A8                     	;# 
   237  07A9                     	;# 
   238  07AA                     	;# 
   239  07AB                     	;# 
   240  0FE4                     	;# 
   241  0FE5                     	;# 
   242  0FE6                     	;# 
   243  0FE7                     	;# 
   244  0FE8                     	;# 
   245  0FE9                     	;# 
   246  0FEA                     	;# 
   247  0FEB                     	;# 
   248  0FED                     	;# 
   249  0FEE                     	;# 
   250  0FEF                     	;# 
   251  0000                     	;# 
   252  0001                     	;# 
   253  0002                     	;# 
   254  0003                     	;# 
   255  0004                     	;# 
   256  0005                     	;# 
   257  0006                     	;# 
   258  0007                     	;# 
   259  0008                     	;# 
   260  0009                     	;# 
   261  000A                     	;# 
   262  000B                     	;# 
   263  000C                     	;# 
   264  000D                     	;# 
   265  000E                     	;# 
   266  000F                     	;# 
   267  0010                     	;# 
   268  0011                     	;# 
   269  0012                     	;# 
   270  0013                     	;# 
   271  0015                     	;# 
   272  0016                     	;# 
   273  0016                     	;# 
   274  0017                     	;# 
   275  0018                     	;# 
   276  0019                     	;# 
   277  001A                     	;# 
   278  001B                     	;# 
   279  001C                     	;# 
   280  001E                     	;# 
   281  001F                     	;# 
   282  008C                     	;# 
   283  008D                     	;# 
   284  008E                     	;# 
   285  008F                     	;# 
   286  0090                     	;# 
   287  0091                     	;# 
   288  0092                     	;# 
   289  0093                     	;# 
   290  0095                     	;# 
   291  0096                     	;# 
   292  0097                     	;# 
   293  0098                     	;# 
   294  0099                     	;# 
   295  009A                     	;# 
   296  009B                     	;# 
   297  009B                     	;# 
   298  009C                     	;# 
   299  009D                     	;# 
   300  009E                     	;# 
   301  010C                     	;# 
   302  010D                     	;# 
   303  010E                     	;# 
   304  010F                     	;# 
   305  0110                     	;# 
   306  0111                     	;# 
   307  0112                     	;# 
   308  0113                     	;# 
   309  0114                     	;# 
   310  0115                     	;# 
   311  0116                     	;# 
   312  0117                     	;# 
   313  0118                     	;# 
   314  0119                     	;# 
   315  011A                     	;# 
   316  011B                     	;# 
   317  011D                     	;# 
   318  018C                     	;# 
   319  018D                     	;# 
   320  018F                     	;# 
   321  0190                     	;# 
   322  0191                     	;# 
   323  0191                     	;# 
   324  0192                     	;# 
   325  0193                     	;# 
   326  0193                     	;# 
   327  0193                     	;# 
   328  0194                     	;# 
   329  0195                     	;# 
   330  0196                     	;# 
   331  0199                     	;# 
   332  019A                     	;# 
   333  019B                     	;# 
   334  019B                     	;# 
   335  019B                     	;# 
   336  019B                     	;# 
   337  019C                     	;# 
   338  019C                     	;# 
   339  019D                     	;# 
   340  019E                     	;# 
   341  019F                     	;# 
   342  020D                     	;# 
   343  0210                     	;# 
   344  0211                     	;# 
   345  0212                     	;# 
   346  0213                     	;# 
   347  0214                     	;# 
   348  0215                     	;# 
   349  0215                     	;# 
   350  0216                     	;# 
   351  0217                     	;# 
   352  0291                     	;# 
   353  0291                     	;# 
   354  0292                     	;# 
   355  0293                     	;# 
   356  0294                     	;# 
   357  0295                     	;# 
   358  0295                     	;# 
   359  0296                     	;# 
   360  0298                     	;# 
   361  0298                     	;# 
   362  0299                     	;# 
   363  029A                     	;# 
   364  029B                     	;# 
   365  029C                     	;# 
   366  029C                     	;# 
   367  029D                     	;# 
   368  029E                     	;# 
   369  029F                     	;# 
   370  0311                     	;# 
   371  0311                     	;# 
   372  0312                     	;# 
   373  0313                     	;# 
   374  0314                     	;# 
   375  0315                     	;# 
   376  0315                     	;# 
   377  0316                     	;# 
   378  0318                     	;# 
   379  0318                     	;# 
   380  0319                     	;# 
   381  031A                     	;# 
   382  031C                     	;# 
   383  031C                     	;# 
   384  031D                     	;# 
   385  031E                     	;# 
   386  0394                     	;# 
   387  0395                     	;# 
   388  0396                     	;# 
   389  0415                     	;# 
   390  0416                     	;# 
   391  0417                     	;# 
   392  041C                     	;# 
   393  041D                     	;# 
   394  041E                     	;# 
   395  0791                     	;# 
   396  0792                     	;# 
   397  0793                     	;# 
   398  0794                     	;# 
   399  0795                     	;# 
   400  0798                     	;# 
   401  0799                     	;# 
   402  079A                     	;# 
   403  07A0                     	;# 
   404  07A1                     	;# 
   405  07A2                     	;# 
   406  07A3                     	;# 
   407  07A4                     	;# 
   408  07A5                     	;# 
   409  07A6                     	;# 
   410  07A7                     	;# 
   411  07A8                     	;# 
   412  07A9                     	;# 
   413  07AA                     	;# 
   414  07AB                     	;# 
   415  0FE4                     	;# 
   416  0FE5                     	;# 
   417  0FE6                     	;# 
   418  0FE7                     	;# 
   419  0FE8                     	;# 
   420  0FE9                     	;# 
   421  0FEA                     	;# 
   422  0FEB                     	;# 
   423  0FED                     	;# 
   424  0FEE                     	;# 
   425  0FEF                     	;# 
   426  0000                     	;# 
   427  0001                     	;# 
   428  0002                     	;# 
   429  0003                     	;# 
   430  0004                     	;# 
   431  0005                     	;# 
   432  0006                     	;# 
   433  0007                     	;# 
   434  0008                     	;# 
   435  0009                     	;# 
   436  000A                     	;# 
   437  000B                     	;# 
   438  000C                     	;# 
   439  000D                     	;# 
   440  000E                     	;# 
   441  000F                     	;# 
   442  0010                     	;# 
   443  0011                     	;# 
   444  0012                     	;# 
   445  0013                     	;# 
   446  0015                     	;# 
   447  0016                     	;# 
   448  0016                     	;# 
   449  0017                     	;# 
   450  0018                     	;# 
   451  0019                     	;# 
   452  001A                     	;# 
   453  001B                     	;# 
   454  001C                     	;# 
   455  001E                     	;# 
   456  001F                     	;# 
   457  008C                     	;# 
   458  008D                     	;# 
   459  008E                     	;# 
   460  008F                     	;# 
   461  0090                     	;# 
   462  0091                     	;# 
   463  0092                     	;# 
   464  0093                     	;# 
   465  0095                     	;# 
   466  0096                     	;# 
   467  0097                     	;# 
   468  0098                     	;# 
   469  0099                     	;# 
   470  009A                     	;# 
   471  009B                     	;# 
   472  009B                     	;# 
   473  009C                     	;# 
   474  009D                     	;# 
   475  009E                     	;# 
   476  010C                     	;# 
   477  010D                     	;# 
   478  010E                     	;# 
   479  010F                     	;# 
   480  0110                     	;# 
   481  0111                     	;# 
   482  0112                     	;# 
   483  0113                     	;# 
   484  0114                     	;# 
   485  0115                     	;# 
   486  0116                     	;# 
   487  0117                     	;# 
   488  0118                     	;# 
   489  0119                     	;# 
   490  011A                     	;# 
   491  011B                     	;# 
   492  011D                     	;# 
   493  018C                     	;# 
   494  018D                     	;# 
   495  018F                     	;# 
   496  0190                     	;# 
   497  0191                     	;# 
   498  0191                     	;# 
   499  0192                     	;# 
   500  0193                     	;# 
   501  0193                     	;# 
   502  0193                     	;# 
   503  0194                     	;# 
   504  0195                     	;# 
   505  0196                     	;# 
   506  0199                     	;# 
   507  019A                     	;# 
   508  019B                     	;# 
   509  019B                     	;# 
   510  019B                     	;# 
   511  019B                     	;# 
   512  019C                     	;# 
   513  019C                     	;# 
   514  019D                     	;# 
   515  019E                     	;# 
   516  019F                     	;# 
   517  020D                     	;# 
   518  0210                     	;# 
   519  0211                     	;# 
   520  0212                     	;# 
   521  0213                     	;# 
   522  0214                     	;# 
   523  0215                     	;# 
   524  0215                     	;# 
   525  0216                     	;# 
   526  0217                     	;# 
   527  0291                     	;# 
   528  0291                     	;# 
   529  0292                     	;# 
   530  0293                     	;# 
   531  0294                     	;# 
   532  0295                     	;# 
   533  0295                     	;# 
   534  0296                     	;# 
   535  0298                     	;# 
   536  0298                     	;# 
   537  0299                     	;# 
   538  029A                     	;# 
   539  029B                     	;# 
   540  029C                     	;# 
   541  029C                     	;# 
   542  029D                     	;# 
   543  029E                     	;# 
   544  029F                     	;# 
   545  0311                     	;# 
   546  0311                     	;# 
   547  0312                     	;# 
   548  0313                     	;# 
   549  0314                     	;# 
   550  0315                     	;# 
   551  0315                     	;# 
   552  0316                     	;# 
   553  0318                     	;# 
   554  0318                     	;# 
   555  0319                     	;# 
   556  031A                     	;# 
   557  031C                     	;# 
   558  031C                     	;# 
   559  031D                     	;# 
   560  031E                     	;# 
   561  0394                     	;# 
   562  0395                     	;# 
   563  0396                     	;# 
   564  0415                     	;# 
   565  0416                     	;# 
   566  0417                     	;# 
   567  041C                     	;# 
   568  041D                     	;# 
   569  041E                     	;# 
   570  0791                     	;# 
   571  0792                     	;# 
   572  0793                     	;# 
   573  0794                     	;# 
   574  0795                     	;# 
   575  0798                     	;# 
   576  0799                     	;# 
   577  079A                     	;# 
   578  07A0                     	;# 
   579  07A1                     	;# 
   580  07A2                     	;# 
   581  07A3                     	;# 
   582  07A4                     	;# 
   583  07A5                     	;# 
   584  07A6                     	;# 
   585  07A7                     	;# 
   586  07A8                     	;# 
   587  07A9                     	;# 
   588  07AA                     	;# 
   589  07AB                     	;# 
   590  0FE4                     	;# 
   591  0FE5                     	;# 
   592  0FE6                     	;# 
   593  0FE7                     	;# 
   594  0FE8                     	;# 
   595  0FE9                     	;# 
   596  0FEA                     	;# 
   597  0FEB                     	;# 
   598  0FED                     	;# 
   599  0FEE                     	;# 
   600  0FEF                     	;# 
   601  0000                     	;# 
   602  0001                     	;# 
   603  0002                     	;# 
   604  0003                     	;# 
   605  0004                     	;# 
   606  0005                     	;# 
   607  0006                     	;# 
   608  0007                     	;# 
   609  0008                     	;# 
   610  0009                     	;# 
   611  000A                     	;# 
   612  000B                     	;# 
   613  000C                     	;# 
   614  000D                     	;# 
   615  000E                     	;# 
   616  000F                     	;# 
   617  0010                     	;# 
   618  0011                     	;# 
   619  0012                     	;# 
   620  0013                     	;# 
   621  0015                     	;# 
   622  0016                     	;# 
   623  0016                     	;# 
   624  0017                     	;# 
   625  0018                     	;# 
   626  0019                     	;# 
   627  001A                     	;# 
   628  001B                     	;# 
   629  001C                     	;# 
   630  001E                     	;# 
   631  001F                     	;# 
   632  008C                     	;# 
   633  008D                     	;# 
   634  008E                     	;# 
   635  008F                     	;# 
   636  0090                     	;# 
   637  0091                     	;# 
   638  0092                     	;# 
   639  0093                     	;# 
   640  0095                     	;# 
   641  0096                     	;# 
   642  0097                     	;# 
   643  0098                     	;# 
   644  0099                     	;# 
   645  009A                     	;# 
   646  009B                     	;# 
   647  009B                     	;# 
   648  009C                     	;# 
   649  009D                     	;# 
   650  009E                     	;# 
   651  010C                     	;# 
   652  010D                     	;# 
   653  010E                     	;# 
   654  010F                     	;# 
   655  0110                     	;# 
   656  0111                     	;# 
   657  0112                     	;# 
   658  0113                     	;# 
   659  0114                     	;# 
   660  0115                     	;# 
   661  0116                     	;# 
   662  0117                     	;# 
   663  0118                     	;# 
   664  0119                     	;# 
   665  011A                     	;# 
   666  011B                     	;# 
   667  011D                     	;# 
   668  018C                     	;# 
   669  018D                     	;# 
   670  018F                     	;# 
   671  0190                     	;# 
   672  0191                     	;# 
   673  0191                     	;# 
   674  0192                     	;# 
   675  0193                     	;# 
   676  0193                     	;# 
   677  0193                     	;# 
   678  0194                     	;# 
   679  0195                     	;# 
   680  0196                     	;# 
   681  0199                     	;# 
   682  019A                     	;# 
   683  019B                     	;# 
   684  019B                     	;# 
   685  019B                     	;# 
   686  019B                     	;# 
   687  019C                     	;# 
   688  019C                     	;# 
   689  019D                     	;# 
   690  019E                     	;# 
   691  019F                     	;# 
   692  020D                     	;# 
   693  0210                     	;# 
   694  0211                     	;# 
   695  0212                     	;# 
   696  0213                     	;# 
   697  0214                     	;# 
   698  0215                     	;# 
   699  0215                     	;# 
   700  0216                     	;# 
   701  0217                     	;# 
   702  0291                     	;# 
   703  0291                     	;# 
   704  0292                     	;# 
   705  0293                     	;# 
   706  0294                     	;# 
   707  0295                     	;# 
   708  0295                     	;# 
   709  0296                     	;# 
   710  0298                     	;# 
   711  0298                     	;# 
   712  0299                     	;# 
   713  029A                     	;# 
   714  029B                     	;# 
   715  029C                     	;# 
   716  029C                     	;# 
   717  029D                     	;# 
   718  029E                     	;# 
   719  029F                     	;# 
   720  0311                     	;# 
   721  0311                     	;# 
   722  0312                     	;# 
   723  0313                     	;# 
   724  0314                     	;# 
   725  0315                     	;# 
   726  0315                     	;# 
   727  0316                     	;# 
   728  0318                     	;# 
   729  0318                     	;# 
   730  0319                     	;# 
   731  031A                     	;# 
   732  031C                     	;# 
   733  031C                     	;# 
   734  031D                     	;# 
   735  031E                     	;# 
   736  0394                     	;# 
   737  0395                     	;# 
   738  0396                     	;# 
   739  0415                     	;# 
   740  0416                     	;# 
   741  0417                     	;# 
   742  041C                     	;# 
   743  041D                     	;# 
   744  041E                     	;# 
   745  0791                     	;# 
   746  0792                     	;# 
   747  0793                     	;# 
   748  0794                     	;# 
   749  0795                     	;# 
   750  0798                     	;# 
   751  0799                     	;# 
   752  079A                     	;# 
   753  07A0                     	;# 
   754  07A1                     	;# 
   755  07A2                     	;# 
   756  07A3                     	;# 
   757  07A4                     	;# 
   758  07A5                     	;# 
   759  07A6                     	;# 
   760  07A7                     	;# 
   761  07A8                     	;# 
   762  07A9                     	;# 
   763  07AA                     	;# 
   764  07AB                     	;# 
   765  0FE4                     	;# 
   766  0FE5                     	;# 
   767  0FE6                     	;# 
   768  0FE7                     	;# 
   769  0FE8                     	;# 
   770  0FE9                     	;# 
   771  0FEA                     	;# 
   772  0FEB                     	;# 
   773  0FED                     	;# 
   774  0FEE                     	;# 
   775  0FEF                     	;# 
   776  0000                     	;# 
   777  0001                     	;# 
   778  0002                     	;# 
   779  0003                     	;# 
   780  0004                     	;# 
   781  0005                     	;# 
   782  0006                     	;# 
   783  0007                     	;# 
   784  0008                     	;# 
   785  0009                     	;# 
   786  000A                     	;# 
   787  000B                     	;# 
   788  000C                     	;# 
   789  000D                     	;# 
   790  000E                     	;# 
   791  000F                     	;# 
   792  0010                     	;# 
   793  0011                     	;# 
   794  0012                     	;# 
   795  0013                     	;# 
   796  0015                     	;# 
   797  0016                     	;# 
   798  0016                     	;# 
   799  0017                     	;# 
   800  0018                     	;# 
   801  0019                     	;# 
   802  001A                     	;# 
   803  001B                     	;# 
   804  001C                     	;# 
   805  001E                     	;# 
   806  001F                     	;# 
   807  008C                     	;# 
   808  008D                     	;# 
   809  008E                     	;# 
   810  008F                     	;# 
   811  0090                     	;# 
   812  0091                     	;# 
   813  0092                     	;# 
   814  0093                     	;# 
   815  0095                     	;# 
   816  0096                     	;# 
   817  0097                     	;# 
   818  0098                     	;# 
   819  0099                     	;# 
   820  009A                     	;# 
   821  009B                     	;# 
   822  009B                     	;# 
   823  009C                     	;# 
   824  009D                     	;# 
   825  009E                     	;# 
   826  010C                     	;# 
   827  010D                     	;# 
   828  010E                     	;# 
   829  010F                     	;# 
   830  0110                     	;# 
   831  0111                     	;# 
   832  0112                     	;# 
   833  0113                     	;# 
   834  0114                     	;# 
   835  0115                     	;# 
   836  0116                     	;# 
   837  0117                     	;# 
   838  0118                     	;# 
   839  0119                     	;# 
   840  011A                     	;# 
   841  011B                     	;# 
   842  011D                     	;# 
   843  018C                     	;# 
   844  018D                     	;# 
   845  018F                     	;# 
   846  0190                     	;# 
   847  0191                     	;# 
   848  0191                     	;# 
   849  0192                     	;# 
   850  0193                     	;# 
   851  0193                     	;# 
   852  0193                     	;# 
   853  0194                     	;# 
   854  0195                     	;# 
   855  0196                     	;# 
   856  0199                     	;# 
   857  019A                     	;# 
   858  019B                     	;# 
   859  019B                     	;# 
   860  019B                     	;# 
   861  019B                     	;# 
   862  019C                     	;# 
   863  019C                     	;# 
   864  019D                     	;# 
   865  019E                     	;# 
   866  019F                     	;# 
   867  020D                     	;# 
   868  0210                     	;# 
   869  0211                     	;# 
   870  0212                     	;# 
   871  0213                     	;# 
   872  0214                     	;# 
   873  0215                     	;# 
   874  0215                     	;# 
   875  0216                     	;# 
   876  0217                     	;# 
   877  0291                     	;# 
   878  0291                     	;# 
   879  0292                     	;# 
   880  0293                     	;# 
   881  0294                     	;# 
   882  0295                     	;# 
   883  0295                     	;# 
   884  0296                     	;# 
   885  0298                     	;# 
   886  0298                     	;# 
   887  0299                     	;# 
   888  029A                     	;# 
   889  029B                     	;# 
   890  029C                     	;# 
   891  029C                     	;# 
   892  029D                     	;# 
   893  029E                     	;# 
   894  029F                     	;# 
   895  0311                     	;# 
   896  0311                     	;# 
   897  0312                     	;# 
   898  0313                     	;# 
   899  0314                     	;# 
   900  0315                     	;# 
   901  0315                     	;# 
   902  0316                     	;# 
   903  0318                     	;# 
   904  0318                     	;# 
   905  0319                     	;# 
   906  031A                     	;# 
   907  031C                     	;# 
   908  031C                     	;# 
   909  031D                     	;# 
   910  031E                     	;# 
   911  0394                     	;# 
   912  0395                     	;# 
   913  0396                     	;# 
   914  0415                     	;# 
   915  0416                     	;# 
   916  0417                     	;# 
   917  041C                     	;# 
   918  041D                     	;# 
   919  041E                     	;# 
   920  0791                     	;# 
   921  0792                     	;# 
   922  0793                     	;# 
   923  0794                     	;# 
   924  0795                     	;# 
   925  0798                     	;# 
   926  0799                     	;# 
   927  079A                     	;# 
   928  07A0                     	;# 
   929  07A1                     	;# 
   930  07A2                     	;# 
   931  07A3                     	;# 
   932  07A4                     	;# 
   933  07A5                     	;# 
   934  07A6                     	;# 
   935  07A7                     	;# 
   936  07A8                     	;# 
   937  07A9                     	;# 
   938  07AA                     	;# 
   939  07AB                     	;# 
   940  0FE4                     	;# 
   941  0FE5                     	;# 
   942  0FE6                     	;# 
   943  0FE7                     	;# 
   944  0FE8                     	;# 
   945  0FE9                     	;# 
   946  0FEA                     	;# 
   947  0FEB                     	;# 
   948  0FED                     	;# 
   949  0FEE                     	;# 
   950  0FEF                     	;_tramaRx
   951                           
   952 ;; Function _EUSART_DefaultFramingErrorHandler is unused but had its address taken
   953  0000                     
   954 ;; Function _EUSART_DefaultOverrunErrorHandler is unused but had its address taken
   955  0000                     
   956 ;; Function _EUSART_DefaultErrorHandler is unused but had its address taken
   957  0000                     
   958                           	psect	idataBIGRAM
   959  05FB                     __pidataBIGRAM:
   960                           
   961                           ;initializer for _tramaRx
   962  05FB  3420               	retlw	32
   963  05FC  3400               	retlw	0
   964  05FD  3400               	retlw	0
   965  05FE  3400               	retlw	0
   966  05FF  3400               	retlw	0
   967  0600  3400               	retlw	0
   968  0601  3400               	retlw	0
   969  0602  3400               	retlw	0
   970  0603  3400               	retlw	0
   971  0604  3400               	retlw	0
   972  0605  3400               	retlw	0
   973  0606  3400               	retlw	0
   974  0607  3400               	retlw	0
   975  0608  3400               	retlw	0
   976  0609  3400               	retlw	0
   977  060A  3400               	retlw	0
   978  060B  3400               	retlw	0
   979  060C  3400               	retlw	0
   980  060D  3400               	retlw	0
   981  060E  3400               	retlw	0
   982  060F  3400               	retlw	0
   983  0610  3400               	retlw	0
   984  0611  3400               	retlw	0
   985  0612  3400               	retlw	0
   986  0613  3400               	retlw	0
   987  0614  3400               	retlw	0
   988  0615  3400               	retlw	0
   989  0616  3400               	retlw	0
   990  0617  3400               	retlw	0
   991  0618  3400               	retlw	0
   992  0619  3400               	retlw	0
   993  061A  3400               	retlw	0
   994  061B  3400               	retlw	0
   995  061C  3400               	retlw	0
   996  061D  3400               	retlw	0
   997  061E  3400               	retlw	0
   998  061F  3400               	retlw	0
   999  0620  3400               	retlw	0
  1000  0621  3400               	retlw	0
  1001  0622  3400               	retlw	0
  1002  0623  3400               	retlw	0
  1003  0624  3400               	retlw	0
  1004  0625  3400               	retlw	0
  1005  0626  3400               	retlw	0
  1006  0627  3400               	retlw	0
  1007  0628  3400               	retlw	0
  1008  0629  3400               	retlw	0
  1009  062A  3400               	retlw	0
  1010  062B  3400               	retlw	0
  1011  062C  3400               	retlw	0
  1012  062D  3400               	retlw	0
  1013  062E  3400               	retlw	0
  1014  062F  3400               	retlw	0
  1015  0630  3400               	retlw	0
  1016  0631  3400               	retlw	0
  1017  0632  3400               	retlw	0
  1018  0633  3400               	retlw	0
  1019  0634  3400               	retlw	0
  1020  0635  3400               	retlw	0
  1021  0636  3400               	retlw	0
  1022  0637  3400               	retlw	0
  1023  0638  3400               	retlw	0
  1024  0639  3400               	retlw	0
  1025  063A  3400               	retlw	0
  1026  063B  3400               	retlw	0
  1027  063C  3400               	retlw	0
  1028  063D  3400               	retlw	0
  1029  063E  3400               	retlw	0
  1030  063F  3400               	retlw	0
  1031  0640  3400               	retlw	0
  1032  0641  3400               	retlw	0
  1033  0642  3400               	retlw	0
  1034  0643  3400               	retlw	0
  1035  0644  3400               	retlw	0
  1036  0645  3400               	retlw	0
  1037  0646  3400               	retlw	0
  1038  0647  3400               	retlw	0
  1039  0648  3400               	retlw	0
  1040  0649  3400               	retlw	0
  1041  064A  3400               	retlw	0
  1042  064B  3400               	retlw	0
  1043  064C  3400               	retlw	0
  1044  064D  3400               	retlw	0
  1045  064E  3400               	retlw	0
  1046  064F  3400               	retlw	0
  1047  0650  3400               	retlw	0
  1048  0651  3400               	retlw	0
  1049  0652  3400               	retlw	0
  1050  0653  3400               	retlw	0
  1051  0654  3400               	retlw	0
  1052  0655  3400               	retlw	0
  1053  0656  3400               	retlw	0
  1054  0657  3400               	retlw	0
  1055  0658  3400               	retlw	0
  1056  0659  3400               	retlw	0
  1057  065A  3400               	retlw	0
  1058  065B  3400               	retlw	0
  1059  065C  3400               	retlw	0
  1060  065D  3400               	retlw	0
  1061  065E  3400               	retlw	0
  1062                           
  1063                           	psect	nvBANK0
  1064  0028                     __pnvBANK0:
  1065  0028                     _EUSART_ErrorHandler:
  1066  0028                     	ds	2
  1067  002A                     _EUSART_OverrunErrorHandler:
  1068  002A                     	ds	2
  1069  002C                     _EUSART_FramingErrorHandler:
  1070  002C                     	ds	2
  1071  0011                     _PIR1bits	set	17
  1072  0095                     _OPTION_REGbits	set	149
  1073  008F                     _TRISD	set	143
  1074  008E                     _TRISC	set	142
  1075  008D                     _TRISB	set	141
  1076  008C                     _TRISA	set	140
  1077  0090                     _TRISE	set	144
  1078  0097                     _WDTCON	set	151
  1079  0098                     _OSCTUNE	set	152
  1080  0099                     _OSCCON	set	153
  1081  010F                     _LATDbits	set	271
  1082  011D                     _APFCON	set	285
  1083  010E                     _LATC	set	270
  1084  010D                     _LATB	set	269
  1085  010C                     _LATA	set	268
  1086  010F                     _LATD	set	271
  1087  0110                     _LATE	set	272
  1088  0116                     _BORCON	set	278
  1089  018C                     _ANSELA	set	396
  1090  0190                     _ANSELE	set	400
  1091  018D                     _ANSELB	set	397
  1092  018F                     _ANSELD	set	399
  1093  019A                     _TXREG	set	410
  1094  0199                     _RCREG	set	409
  1095  019D                     _RCSTAbits	set	413
  1096  019E                     _TXSTAbits	set	414
  1097  019C                     _SPBRGH	set	412
  1098  019B                     _SPBRGL	set	411
  1099  019E                     _TXSTA	set	414
  1100  019D                     _RCSTA	set	413
  1101  019F                     _BAUDCON	set	415
  1102  020D                     _WPUB	set	525
  1103  0210                     _WPUE	set	528
  1104                           
  1105                           	psect	stringtext1
  1106  0800                     __pstringtext1:
  1107  0800                     STR_3:
  1108  0800  3462               	retlw	98	;'b'
  1109  0801  3474               	retlw	116	;'t'
  1110  0802  346E               	retlw	110	;'n'
  1111  0803  3441               	retlw	65	;'A'
  1112  0804  343D               	retlw	61	;'='
  1113  0805  346F               	retlw	111	;'o'
  1114  0806  3466               	retlw	102	;'f'
  1115  0807  3466               	retlw	102	;'f'
  1116  0808  3400               	retlw	0
  1117                           
  1118                           	psect	stringtext2
  1119  0809                     __pstringtext2:
  1120  0809                     STR_7:
  1121  0809  3462               	retlw	98	;'b'
  1122  080A  3474               	retlw	116	;'t'
  1123  080B  346E               	retlw	110	;'n'
  1124  080C  3442               	retlw	66	;'B'
  1125  080D  343D               	retlw	61	;'='
  1126  080E  346F               	retlw	111	;'o'
  1127  080F  3466               	retlw	102	;'f'
  1128  0810  3466               	retlw	102	;'f'
  1129  0811  3400               	retlw	0
  1130                           
  1131                           	psect	stringtext3
  1132  0812                     __pstringtext3:
  1133  0812                     STR_11:
  1134  0812  3462               	retlw	98	;'b'
  1135  0813  3474               	retlw	116	;'t'
  1136  0814  346E               	retlw	110	;'n'
  1137  0815  3443               	retlw	67	;'C'
  1138  0816  343D               	retlw	61	;'='
  1139  0817  346F               	retlw	111	;'o'
  1140  0818  3466               	retlw	102	;'f'
  1141  0819  3466               	retlw	102	;'f'
  1142  081A  3400               	retlw	0
  1143                           
  1144                           	psect	stringtext4
  1145  081B                     __pstringtext4:
  1146  081B                     STR_1:
  1147  081B  3462               	retlw	98	;'b'
  1148  081C  3474               	retlw	116	;'t'
  1149  081D  346E               	retlw	110	;'n'
  1150  081E  3441               	retlw	65	;'A'
  1151  081F  343D               	retlw	61	;'='
  1152  0820  346F               	retlw	111	;'o'
  1153  0821  346E               	retlw	110	;'n'
  1154  0822  3400               	retlw	0
  1155                           
  1156                           	psect	stringtext5
  1157  0823                     __pstringtext5:
  1158  0823                     STR_5:
  1159  0823  3462               	retlw	98	;'b'
  1160  0824  3474               	retlw	116	;'t'
  1161  0825  346E               	retlw	110	;'n'
  1162  0826  3442               	retlw	66	;'B'
  1163  0827  343D               	retlw	61	;'='
  1164  0828  346F               	retlw	111	;'o'
  1165  0829  346E               	retlw	110	;'n'
  1166  082A  3400               	retlw	0
  1167                           
  1168                           	psect	stringtext6
  1169  082B                     __pstringtext6:
  1170  082B                     STR_9:
  1171  082B  3462               	retlw	98	;'b'
  1172  082C  3474               	retlw	116	;'t'
  1173  082D  346E               	retlw	110	;'n'
  1174  082E  3443               	retlw	67	;'C'
  1175  082F  343D               	retlw	61	;'='
  1176  0830  346F               	retlw	111	;'o'
  1177  0831  346E               	retlw	110	;'n'
  1178  0832  3400               	retlw	0
  1179                           
  1180                           	psect	stringtext7
  1181  0000                     __pstringtext7:
  1182  0800                     
  1183                           	psect	cinit
  1184  07EC                     start_initialization:	
  1185                           ; #config settings
  1186                           
  1187  07EC                     __initialization:	;BIGRAM
  1188                           
  1189                           ; Initialize objects allocated to BIGRAM
  1190  07EC  30FB               	movlw	low __pidataBIGRAM
  1191  07ED  0084               	movwf	4
  1192  07EE  3085               	movlw	(high __pidataBIGRAM)| (0+128)
  1193  07EF  0085               	movwf	5
  1194  07F0  308C               	movlw	low (0+9100)
  1195  07F1  0086               	movwf	6
  1196  07F2  3023               	movlw	high (0+9100)
  1197  07F3  0087               	movwf	7
  1198  07F4  3000               	movlw	0
  1199  07F5  00FF               	movwf	btemp+1
  1200  07F6  3064               	movlw	100
  1201  07F7  3184  24A8  3187   	fcall	init_ram
  1202                           
  1203                           ; Clear objects allocated to BANK0
  1204  07FA  01AE               	clrf	__pbssBANK0& (0+127)
  1205  07FB  01AF               	clrf	(__pbssBANK0+1)& (0+127)
  1206  07FC  01B0               	clrf	(__pbssBANK0+2)& (0+127)
  1207  07FD                     end_of_initialization:	
  1208                           ;End of C runtime variable initialization code
  1209                           
  1210  07FD                     __end_of__initialization:
  1211  07FD  0020               	movlb	0
  1212  07FE  3186  2E5F         	ljmp	_main	;jump to C main() function
  1213                           
  1214                           	psect	bssBANK0
  1215  002E                     __pbssBANK0:
  1216  002E                     _indiceRx:
  1217  002E                     	ds	1
  1218  002F                     _dataRx:
  1219  002F                     	ds	1
  1220  0030                     _eusartRxLastError:
  1221  0030                     	ds	1
  1222                           
  1223                           	psect	inittext
  1224  04A8                     init_ram:
  1225  04A8  00FE               	movwf	btemp
  1226  04A9                     initloop:
  1227  04A9  0012               	moviw fsr0++
  1228  04AA  001E               	movwi fsr1++
  1229  04AB  3001               	movlw	1
  1230  04AC  02FE               	subwf	btemp,f
  1231  04AD  3000               	movlw	0
  1232  04AE  3BFF               	subwfb	btemp+1,f
  1233  04AF  087F               	movf	btemp+1,w
  1234  04B0  047E               	iorwf	btemp,w
  1235  04B1  1D03               	skipz
  1236  04B2  2CA9               	goto	initloop
  1237  04B3  3400               	retlw	0
  1238                           
  1239                           	psect	cstackCOMMON
  1240  0070                     __pcstackCOMMON:
  1241  0070                     ?_PIN_MANAGER_Initialize:
  1242  0070                     ??_PIN_MANAGER_Initialize:	
  1243                           ; 1 bytes @ 0x0
  1244                           
  1245  0070                     ?_OSCILLATOR_Initialize:	
  1246                           ; 1 bytes @ 0x0
  1247                           
  1248  0070                     ??_OSCILLATOR_Initialize:	
  1249                           ; 1 bytes @ 0x0
  1250                           
  1251  0070                     ?_WDT_Initialize:	
  1252                           ; 1 bytes @ 0x0
  1253                           
  1254  0070                     ??_WDT_Initialize:	
  1255                           ; 1 bytes @ 0x0
  1256                           
  1257  0070                     ?_EUSART_Initialize:	
  1258                           ; 1 bytes @ 0x0
  1259                           
  1260  0070                     ?_EUSART_SetFramingErrorHandler:	
  1261                           ; 1 bytes @ 0x0
  1262                           
  1263  0070                     ?_EUSART_SetOverrunErrorHandler:	
  1264                           ; 1 bytes @ 0x0
  1265                           
  1266  0070                     ?_EUSART_SetErrorHandler:	
  1267                           ; 1 bytes @ 0x0
  1268                           
  1269  0070                     ?_SYSTEM_Initialize:	
  1270                           ; 1 bytes @ 0x0
  1271                           
  1272  0070                     ?_EUSART_is_rx_ready:	
  1273                           ; 1 bytes @ 0x0
  1274                           
  1275  0070                     ??_EUSART_is_rx_ready:	
  1276                           ; 1 bytes @ 0x0
  1277                           
  1278  0070                     ?_EUSART_Read:	
  1279                           ; 1 bytes @ 0x0
  1280                           
  1281  0070                     ??_EUSART_Read:	
  1282                           ; 1 bytes @ 0x0
  1283                           
  1284  0070                     ?_main:	
  1285                           ; 1 bytes @ 0x0
  1286                           
  1287  0070                     ?_memset:	
  1288                           ; 1 bytes @ 0x0
  1289                           
  1290  0070                     ?_strlen:	
  1291                           ; 2 bytes @ 0x0
  1292                           
  1293  0070                     ?_strncmp:	
  1294                           ; 2 bytes @ 0x0
  1295                           
  1296  0070                     ?_strchr:	
  1297                           ; 2 bytes @ 0x0
  1298                           
  1299  0070                     EUSART_SetFramingErrorHandler@interruptHandler:	
  1300                           ; 2 bytes @ 0x0
  1301                           
  1302  0070                     EUSART_SetOverrunErrorHandler@interruptHandler:	
  1303                           ; 2 bytes @ 0x0
  1304                           
  1305  0070                     EUSART_SetErrorHandler@interruptHandler:	
  1306                           ; 2 bytes @ 0x0
  1307                           
  1308  0070                     memset@dest:	
  1309                           ; 2 bytes @ 0x0
  1310                           
  1311  0070                     strchr@s:	
  1312                           ; 2 bytes @ 0x0
  1313                           
  1314  0070                     strlen@s:	
  1315                           ; 2 bytes @ 0x0
  1316                           
  1317  0070                     strncmp@_l:	
  1318                           ; 2 bytes @ 0x0
  1319                           
  1320                           
  1321                           ; 2 bytes @ 0x0
  1322  0070                     	ds	2
  1323  0072                     ??_EUSART_Initialize:
  1324  0072                     ??_EUSART_SetFramingErrorHandler:	
  1325                           ; 1 bytes @ 0x2
  1326                           
  1327  0072                     ??_EUSART_SetOverrunErrorHandler:	
  1328                           ; 1 bytes @ 0x2
  1329                           
  1330  0072                     ??_EUSART_SetErrorHandler:	
  1331                           ; 1 bytes @ 0x2
  1332                           
  1333  0072                     ??_strlen:	
  1334                           ; 1 bytes @ 0x2
  1335                           
  1336  0072                     ??_SYSTEM_Initialize:	
  1337                           ; 1 bytes @ 0x2
  1338                           
  1339  0072                     memset@c:	
  1340                           ; 1 bytes @ 0x2
  1341                           
  1342  0072                     strchr@c:	
  1343                           ; 2 bytes @ 0x2
  1344                           
  1345  0072                     strncmp@_r:	
  1346                           ; 2 bytes @ 0x2
  1347                           
  1348                           
  1349                           ; 2 bytes @ 0x2
  1350  0072                     	ds	1
  1351  0073                     strlen@a:
  1352                           
  1353                           ; 2 bytes @ 0x3
  1354  0073                     	ds	1
  1355  0074                     ??_strchr:
  1356  0074                     memset@n:	
  1357                           ; 1 bytes @ 0x4
  1358                           
  1359  0074                     strncmp@n:	
  1360                           ; 2 bytes @ 0x4
  1361                           
  1362                           
  1363                           ; 2 bytes @ 0x4
  1364  0074                     	ds	2
  1365  0076                     ??_memset:
  1366  0076                     ??_strncmp:	
  1367                           ; 1 bytes @ 0x6
  1368                           
  1369                           
  1370                           ; 1 bytes @ 0x6
  1371  0076                     	ds	1
  1372  0077                     strncmp@l:
  1373                           
  1374                           ; 2 bytes @ 0x7
  1375  0077                     	ds	2
  1376  0079                     strncmp@r:
  1377                           
  1378                           ; 2 bytes @ 0x9
  1379  0079                     	ds	1
  1380  007A                     memset@k:
  1381                           
  1382                           ; 2 bytes @ 0xA
  1383  007A                     	ds	1
  1384  007B                     ??_strstr:
  1385                           
  1386                           ; 1 bytes @ 0xB
  1387  007B                     	ds	1
  1388  007C                     memset@s:
  1389                           
  1390                           ; 2 bytes @ 0xC
  1391  007C                     	ds	2
  1392                           
  1393                           	psect	cstackBANK0
  1394  0020                     __pcstackBANK0:
  1395  0020                     ?_strstr:
  1396  0020                     strstr@h:	
  1397                           ; 2 bytes @ 0x0
  1398                           
  1399                           
  1400                           ; 2 bytes @ 0x0
  1401  0020                     	ds	2
  1402  0022                     strstr@n:
  1403                           
  1404                           ; 2 bytes @ 0x2
  1405  0022                     	ds	2
  1406  0024                     strstr@nl:
  1407                           
  1408                           ; 2 bytes @ 0x4
  1409  0024                     	ds	2
  1410  0026                     ??_main:
  1411                           
  1412                           ; 1 bytes @ 0x6
  1413  0026                     	ds	2
  1414                           
  1415                           	psect	maintext
  1416  065F                     __pmaintext:	
  1417 ;;
  1418 ;;Main: autosize = 0, tempsize = 2, incstack = 0, save=0
  1419 ;;
  1420 ;; *************** function _main *****************
  1421 ;; Defined at:
  1422 ;;		line 8 in file "main.c"
  1423 ;; Parameters:    Size  Location     Type
  1424 ;;		None
  1425 ;; Auto vars:     Size  Location     Type
  1426 ;;		None
  1427 ;; Return value:  Size  Location     Type
  1428 ;;                  1    wreg      void 
  1429 ;; Registers used:
  1430 ;;		wreg, fsr0l, fsr0h, fsr1l, fsr1h, status,2, status,0, pclath, cstack
  1431 ;; Tracked objects:
  1432 ;;		On entry : B1F/0
  1433 ;;		On exit  : 0/0
  1434 ;;		Unchanged: 0/0
  1435 ;; Data sizes:     COMMON   BANK0   BANK1   BANK2   BANK3   BANK4   BANK5   BANK6   BANK7   BANK8   BANK9  BANK10  BANK1
      +1  BANK12
  1436 ;;      Params:         0       0       0       0       0       0       0       0       0       0       0       0       
      +0       0
  1437 ;;      Locals:         0       0       0       0       0       0       0       0       0       0       0       0       
      +0       0
  1438 ;;      Temps:          0       2       0       0       0       0       0       0       0       0       0       0       
      +0       0
  1439 ;;      Totals:         0       2       0       0       0       0       0       0       0       0       0       0       
      +0       0
  1440 ;;Total ram usage:        2 bytes
  1441 ;; Hardware stack levels required when called: 3
  1442 ;; This function calls:
  1443 ;;		_EUSART_Read
  1444 ;;		_EUSART_is_rx_ready
  1445 ;;		_SYSTEM_Initialize
  1446 ;;		_memset
  1447 ;;		_strstr
  1448 ;; This function is called by:
  1449 ;;		Startup code after reset
  1450 ;; This function uses a non-reentrant model
  1451 ;;
  1452                           
  1453  065F                     _main:	
  1454                           ;psect for function _main
  1455                           
  1456  065F                     l1271:	
  1457                           ;incstack = 0
  1458                           ; Regs used in _main: [wreg-fsr1h+status,2+status,0+pclath+cstack]
  1459                           
  1460                           
  1461                           ;main.c: 11:     SYSTEM_Initialize();
  1462  065F  3184  24B4  3186   	fcall	_SYSTEM_Initialize
  1463  0662                     l186:	
  1464                           ;main.c: 13:     while (1){
  1465                           
  1466                           
  1467                           ;main.c: 15:         if(EUSART_is_rx_ready()){
  1468  0662  3184  248A  3186   	fcall	_EUSART_is_rx_ready
  1469  0665  3A00               	xorlw	0
  1470  0666  1903               	skipnz
  1471  0667  2E69               	goto	u501
  1472  0668  2E6A               	goto	u500
  1473  0669                     u501:
  1474  0669  2F16               	goto	l1297
  1475  066A                     u500:
  1476  066A                     l1273:
  1477                           
  1478                           ;main.c: 16:             dataRx = EUSART_Read();
  1479  066A  3184  24C1  3186   	fcall	_EUSART_Read
  1480  066D  0020               	movlb	0	; select bank0
  1481  066E  00A6               	movwf	??_main
  1482  066F  0826               	movf	??_main,w
  1483  0670  00AF               	movwf	_dataRx
  1484  0671                     l1275:
  1485                           
  1486                           ;main.c: 17:             tramaRx[indiceRx]=dataRx;
  1487  0671  082E               	movf	_indiceRx,w
  1488  0672  3E8C               	addlw	140
  1489  0673  00A6               	movwf	??_main
  1490  0674  01A7               	clrf	??_main+1
  1491  0675  3023               	movlw	35
  1492  0676  3DA7               	addwfc	??_main+1,f
  1493  0677  0826               	movf	??_main,w
  1494  0678  0086               	movwf	6
  1495  0679  0827               	movf	??_main+1,w
  1496  067A  0087               	movwf	7
  1497  067B  082F               	movf	_dataRx,w
  1498  067C  0081               	movwf	1
  1499  067D                     l1277:
  1500                           
  1501                           ;main.c: 18:             if(dataRx == '#'){
  1502  067D  3023               	movlw	35
  1503  067E  062F               	xorwf	_dataRx,w
  1504  067F  1D03               	btfss	3,2
  1505  0680  2E82               	goto	u511
  1506  0681  2E83               	goto	u510
  1507  0682                     u511:
  1508  0682  2F12               	goto	l1295
  1509  0683                     u510:
  1510  0683                     l1279:
  1511                           
  1512                           ;main.c: 19:                 if( strstr(tramaRx,"btnA=on") ) {
  1513  0683  308C               	movlw	140
  1514  0684  00A0               	movwf	strstr@h
  1515  0685  3023               	movlw	35
  1516  0686  00A1               	movwf	strstr@h+1
  1517  0687  301B               	movlw	low (STR_1| (0+32768))
  1518  0688  00A2               	movwf	strstr@n
  1519  0689  3088               	movlw	high (STR_1| (0+32768))
  1520  068A  00A3               	movwf	strstr@n+1
  1521  068B  3185  254B  3186   	fcall	_strstr
  1522  068E  0020               	movlb	0	; select bank0
  1523  068F  0820               	movf	?_strstr,w
  1524  0690  0421               	iorwf	?_strstr+1,w
  1525  0691  1903               	btfsc	3,2
  1526  0692  2E94               	goto	u521
  1527  0693  2E95               	goto	u520
  1528  0694                     u521:
  1529  0694  2E97               	goto	l1281
  1530  0695                     u520:
  1531  0695                     l190:	
  1532                           ;main.c: 20:                     do { LATDbits.LATD0 = 1; } while(0);
  1533                           
  1534  0695  0022               	movlb	2	; select bank2
  1535  0696  140F               	bsf	15,0	;volatile
  1536  0697                     l1281:
  1537                           
  1538                           ;main.c: 22:                 if( strstr(tramaRx,"btnA=off") ) {
  1539  0697  308C               	movlw	140
  1540  0698  0020               	movlb	0	; select bank0
  1541  0699  00A0               	movwf	strstr@h
  1542  069A  3023               	movlw	35
  1543  069B  00A1               	movwf	strstr@h+1
  1544  069C  3000               	movlw	low (STR_3| (0+32768))
  1545  069D  00A2               	movwf	strstr@n
  1546  069E  3088               	movlw	high (STR_3| (0+32768))
  1547  069F  00A3               	movwf	strstr@n+1
  1548  06A0  3185  254B  3186   	fcall	_strstr
  1549  06A3  0020               	movlb	0	; select bank0
  1550  06A4  0820               	movf	?_strstr,w
  1551  06A5  0421               	iorwf	?_strstr+1,w
  1552  06A6  1903               	btfsc	3,2
  1553  06A7  2EA9               	goto	u531
  1554  06A8  2EAA               	goto	u530
  1555  06A9                     u531:
  1556  06A9  2EAC               	goto	l1283
  1557  06AA                     u530:
  1558  06AA                     l193:	
  1559                           ;main.c: 23:                     do { LATDbits.LATD0 = 0; } while(0);
  1560                           
  1561  06AA  0022               	movlb	2	; select bank2
  1562  06AB  100F               	bcf	15,0	;volatile
  1563  06AC                     l1283:
  1564                           
  1565                           ;main.c: 25:                 if( strstr(tramaRx,"btnB=on") ) {
  1566  06AC  308C               	movlw	140
  1567  06AD  0020               	movlb	0	; select bank0
  1568  06AE  00A0               	movwf	strstr@h
  1569  06AF  3023               	movlw	35
  1570  06B0  00A1               	movwf	strstr@h+1
  1571  06B1  3023               	movlw	low (STR_5| (0+32768))
  1572  06B2  00A2               	movwf	strstr@n
  1573  06B3  3088               	movlw	high (STR_5| (0+32768))
  1574  06B4  00A3               	movwf	strstr@n+1
  1575  06B5  3185  254B  3186   	fcall	_strstr
  1576  06B8  0020               	movlb	0	; select bank0
  1577  06B9  0820               	movf	?_strstr,w
  1578  06BA  0421               	iorwf	?_strstr+1,w
  1579  06BB  1903               	btfsc	3,2
  1580  06BC  2EBE               	goto	u541
  1581  06BD  2EBF               	goto	u540
  1582  06BE                     u541:
  1583  06BE  2EC1               	goto	l1285
  1584  06BF                     u540:
  1585  06BF                     l196:	
  1586                           ;main.c: 26:                     do { LATDbits.LATD1 = 1; } while(0);
  1587                           
  1588  06BF  0022               	movlb	2	; select bank2
  1589  06C0  148F               	bsf	15,1	;volatile
  1590  06C1                     l1285:
  1591                           
  1592                           ;main.c: 28:                 if( strstr(tramaRx,"btnB=off") ) {
  1593  06C1  308C               	movlw	140
  1594  06C2  0020               	movlb	0	; select bank0
  1595  06C3  00A0               	movwf	strstr@h
  1596  06C4  3023               	movlw	35
  1597  06C5  00A1               	movwf	strstr@h+1
  1598  06C6  3009               	movlw	low (STR_7| (0+32768))
  1599  06C7  00A2               	movwf	strstr@n
  1600  06C8  3088               	movlw	high (STR_7| (0+32768))
  1601  06C9  00A3               	movwf	strstr@n+1
  1602  06CA  3185  254B  3186   	fcall	_strstr
  1603  06CD  0020               	movlb	0	; select bank0
  1604  06CE  0820               	movf	?_strstr,w
  1605  06CF  0421               	iorwf	?_strstr+1,w
  1606  06D0  1903               	btfsc	3,2
  1607  06D1  2ED3               	goto	u551
  1608  06D2  2ED4               	goto	u550
  1609  06D3                     u551:
  1610  06D3  2ED6               	goto	l1287
  1611  06D4                     u550:
  1612  06D4                     l199:	
  1613                           ;main.c: 29:                     do { LATDbits.LATD1 = 0; } while(0);
  1614                           
  1615  06D4  0022               	movlb	2	; select bank2
  1616  06D5  108F               	bcf	15,1	;volatile
  1617  06D6                     l1287:
  1618                           
  1619                           ;main.c: 31:                 if( strstr(tramaRx,"btnC=on") ) {
  1620  06D6  308C               	movlw	140
  1621  06D7  0020               	movlb	0	; select bank0
  1622  06D8  00A0               	movwf	strstr@h
  1623  06D9  3023               	movlw	35
  1624  06DA  00A1               	movwf	strstr@h+1
  1625  06DB  302B               	movlw	low (STR_9| (0+32768))
  1626  06DC  00A2               	movwf	strstr@n
  1627  06DD  3088               	movlw	high (STR_9| (0+32768))
  1628  06DE  00A3               	movwf	strstr@n+1
  1629  06DF  3185  254B  3186   	fcall	_strstr
  1630  06E2  0020               	movlb	0	; select bank0
  1631  06E3  0820               	movf	?_strstr,w
  1632  06E4  0421               	iorwf	?_strstr+1,w
  1633  06E5  1903               	btfsc	3,2
  1634  06E6  2EE8               	goto	u561
  1635  06E7  2EE9               	goto	u560
  1636  06E8                     u561:
  1637  06E8  2EEB               	goto	l1289
  1638  06E9                     u560:
  1639  06E9                     l202:	
  1640                           ;main.c: 32:                     do { LATDbits.LATD2 = 1; } while(0);
  1641                           
  1642  06E9  0022               	movlb	2	; select bank2
  1643  06EA  150F               	bsf	15,2	;volatile
  1644  06EB                     l1289:
  1645                           
  1646                           ;main.c: 34:                 if( strstr(tramaRx,"btnC=off") ) {
  1647  06EB  308C               	movlw	140
  1648  06EC  0020               	movlb	0	; select bank0
  1649  06ED  00A0               	movwf	strstr@h
  1650  06EE  3023               	movlw	35
  1651  06EF  00A1               	movwf	strstr@h+1
  1652  06F0  3012               	movlw	low (STR_11| (0+32768))
  1653  06F1  00A2               	movwf	strstr@n
  1654  06F2  3088               	movlw	high (STR_11| (0+32768))
  1655  06F3  00A3               	movwf	strstr@n+1
  1656  06F4  3185  254B  3186   	fcall	_strstr
  1657  06F7  0020               	movlb	0	; select bank0
  1658  06F8  0820               	movf	?_strstr,w
  1659  06F9  0421               	iorwf	?_strstr+1,w
  1660  06FA  1903               	btfsc	3,2
  1661  06FB  2EFD               	goto	u571
  1662  06FC  2EFE               	goto	u570
  1663  06FD                     u571:
  1664  06FD  2F00               	goto	l1291
  1665  06FE                     u570:
  1666  06FE                     l205:	
  1667                           ;main.c: 35:                     do { LATDbits.LATD2 = 0; } while(0);
  1668                           
  1669  06FE  0022               	movlb	2	; select bank2
  1670  06FF  110F               	bcf	15,2	;volatile
  1671  0700                     l1291:
  1672                           
  1673                           ;main.c: 37:                 memset(tramaRx,' ',50);
  1674  0700  308C               	movlw	140
  1675  0701  00F0               	movwf	memset@dest
  1676  0702  3023               	movlw	35
  1677  0703  00F1               	movwf	memset@dest+1
  1678  0704  3020               	movlw	32
  1679  0705  00F2               	movwf	memset@c
  1680  0706  3000               	movlw	0
  1681  0707  00F3               	movwf	memset@c+1
  1682  0708  3032               	movlw	50
  1683  0709  00F4               	movwf	memset@n
  1684  070A  3000               	movlw	0
  1685  070B  00F5               	movwf	memset@n+1
  1686  070C  3187  2722  3186   	fcall	_memset
  1687  070F                     l1293:
  1688                           
  1689                           ;main.c: 38:                 indiceRx = 0;
  1690  070F  0020               	movlb	0	; select bank0
  1691  0710  01AE               	clrf	_indiceRx
  1692                           
  1693                           ;main.c: 39:             }
  1694  0711  2F16               	goto	l1297
  1695  0712                     l1295:
  1696                           
  1697                           ;main.c: 41:                 indiceRx++;
  1698  0712  3001               	movlw	1
  1699  0713  00A6               	movwf	??_main
  1700  0714  0826               	movf	??_main,w
  1701  0715  07AE               	addwf	_indiceRx,f
  1702  0716                     l1297:
  1703                           
  1704                           ;main.c: 45:         _delay((unsigned long)((1)*(8000000/4000.0)));
  1705  0716  3003               	movlw	3
  1706  0717  0020               	movlb	0	; select bank0
  1707  0718  00A6               	movwf	??_main
  1708  0719  3097               	movlw	151
  1709  071A                     u587:
  1710  071A  0B89               	decfsz	9,f
  1711  071B  2F1A               	goto	u587
  1712  071C  0BA6               	decfsz	??_main,f
  1713  071D  2F1A               	goto	u587
  1714  071E  3200               	nop2
  1715  071F  2E62               	goto	l186
  1716  0720  3180  2802         	ljmp	start
  1717  0722                     __end_of_main:
  1718                           
  1719                           	psect	text1
  1720  054B                     __ptext1:	
  1721 ;; *************** function _strstr *****************
  1722 ;; Defined at:
  1723 ;;		line 4 in file "C:\Program Files\Microchip\xc8\v2.36\pic\sources\c99\common\strstr.c"
  1724 ;; Parameters:    Size  Location     Type
  1725 ;;  h               2    0[BANK0 ] PTR const unsigned char 
  1726 ;;		 -> NULL(0), tramaRx(100), 
  1727 ;;  n               2    2[BANK0 ] PTR const unsigned char 
  1728 ;;		 -> STR_12(9), STR_10(8), STR_8(9), STR_6(8), 
  1729 ;;		 -> STR_4(9), STR_2(8), 
  1730 ;; Auto vars:     Size  Location     Type
  1731 ;;  nl              2    4[BANK0 ] unsigned int 
  1732 ;; Return value:  Size  Location     Type
  1733 ;;                  2    0[BANK0 ] PTR unsigned char 
  1734 ;; Registers used:
  1735 ;;		wreg, fsr0l, fsr0h, fsr1l, fsr1h, status,2, status,0, pclath, cstack
  1736 ;; Tracked objects:
  1737 ;;		On entry : 0/0
  1738 ;;		On exit  : 0/0
  1739 ;;		Unchanged: 0/0
  1740 ;; Data sizes:     COMMON   BANK0   BANK1   BANK2   BANK3   BANK4   BANK5   BANK6   BANK7   BANK8   BANK9  BANK10  BANK1
      +1  BANK12
  1741 ;;      Params:         0       4       0       0       0       0       0       0       0       0       0       0       
      +0       0
  1742 ;;      Locals:         0       2       0       0       0       0       0       0       0       0       0       0       
      +0       0
  1743 ;;      Temps:          2       0       0       0       0       0       0       0       0       0       0       0       
      +0       0
  1744 ;;      Totals:         2       6       0       0       0       0       0       0       0       0       0       0       
      +0       0
  1745 ;;Total ram usage:        8 bytes
  1746 ;; Hardware stack levels used: 1
  1747 ;; Hardware stack levels required when called: 1
  1748 ;; This function calls:
  1749 ;;		_strchr
  1750 ;;		_strlen
  1751 ;;		_strncmp
  1752 ;; This function is called by:
  1753 ;;		_main
  1754 ;; This function uses a non-reentrant model
  1755 ;;
  1756                           
  1757  054B                     _strstr:	
  1758                           ;psect for function _strstr
  1759                           
  1760  054B                     l1207:	
  1761                           ;incstack = 0
  1762                           ; Regs used in _strstr: [wreg-fsr1h+status,2+status,0+pclath+cstack]
  1763                           
  1764  054B  0020               	movlb	0	; select bank0
  1765  054C  0822               	movf	strstr@n,w
  1766  054D  0423               	iorwf	strstr@n+1,w
  1767  054E  1903               	btfsc	3,2
  1768  054F  2D51               	goto	u411
  1769  0550  2D52               	goto	u410
  1770  0551                     u411:
  1771  0551  2D9E               	goto	l1221
  1772  0552                     u410:
  1773  0552                     l1209:
  1774  0552  0823               	movf	strstr@n+1,w
  1775  0553  00F1               	movwf	strlen@s+1
  1776  0554  0822               	movf	strstr@n,w
  1777  0555  00F0               	movwf	strlen@s
  1778  0556  3184  24D0  3185   	fcall	_strlen
  1779  0559  0871               	movf	?_strlen+1,w
  1780  055A  0020               	movlb	0	; select bank0
  1781  055B  00A5               	movwf	strstr@nl+1
  1782  055C  0870               	movf	?_strlen,w
  1783  055D  00A4               	movwf	strstr@nl
  1784  055E  2D8F               	goto	l1217
  1785  055F                     l1211:
  1786  055F  0821               	movf	strstr@h+1,w
  1787  0560  00F1               	movwf	strncmp@_l+1
  1788  0561  0820               	movf	strstr@h,w
  1789  0562  00F0               	movwf	strncmp@_l
  1790  0563  0823               	movf	strstr@n+1,w
  1791  0564  00F3               	movwf	strncmp@_r+1
  1792  0565  0822               	movf	strstr@n,w
  1793  0566  00F2               	movwf	strncmp@_r
  1794  0567  0825               	movf	strstr@nl+1,w
  1795  0568  00F5               	movwf	strncmp@n+1
  1796  0569  0824               	movf	strstr@nl,w
  1797  056A  00F4               	movwf	strncmp@n
  1798  056B  3185  25A1  3185   	fcall	_strncmp
  1799  056E  0870               	movf	?_strncmp,w
  1800  056F  0471               	iorwf	?_strncmp+1,w
  1801  0570  1D03               	btfss	3,2
  1802  0571  2D73               	goto	u421
  1803  0572  2D74               	goto	u420
  1804  0573                     u421:
  1805  0573  2D75               	goto	l1215
  1806  0574                     u420:
  1807  0574                     l1213:
  1808  0574  2DA0               	goto	l839
  1809  0575                     l1215:
  1810  0575  0020               	movlb	0	; select bank0
  1811  0576  0820               	movf	strstr@h,w
  1812  0577  3E01               	addlw	1
  1813  0578  00F0               	movwf	strchr@s
  1814  0579  3000               	movlw	0
  1815  057A  3D21               	addwfc	strstr@h+1,w
  1816  057B  00F1               	movwf	strchr@s+1
  1817  057C  0822               	movf	strstr@n,w
  1818  057D  0084               	movwf	4
  1819  057E  0823               	movf	strstr@n+1,w
  1820  057F  0085               	movwf	5
  1821  0580  0800               	movf	0,w	;code access
  1822  0581  00FB               	movwf	??_strstr
  1823  0582  01FC               	clrf	??_strstr+1
  1824  0583  087B               	movf	??_strstr,w
  1825  0584  00F2               	movwf	strchr@c
  1826  0585  087C               	movf	??_strstr+1,w
  1827  0586  00F3               	movwf	strchr@c+1
  1828  0587  3184  24E9  3185   	fcall	_strchr
  1829  058A  0871               	movf	?_strchr+1,w
  1830  058B  0020               	movlb	0	; select bank0
  1831  058C  00A1               	movwf	strstr@h+1
  1832  058D  0870               	movf	?_strchr,w
  1833  058E  00A0               	movwf	strstr@h
  1834  058F                     l1217:
  1835  058F  0820               	movf	strstr@h,w
  1836  0590  0421               	iorwf	strstr@h+1,w
  1837  0591  1903               	btfsc	3,2
  1838  0592  2D94               	goto	u431
  1839  0593  2D95               	goto	u430
  1840  0594                     u431:
  1841  0594  2D9E               	goto	l1221
  1842  0595                     u430:
  1843  0595                     l1219:
  1844  0595  0820               	movf	strstr@h,w
  1845  0596  0086               	movwf	6
  1846  0597  0821               	movf	strstr@h+1,w
  1847  0598  0087               	movwf	7
  1848  0599  0801               	movf	1,w
  1849  059A  1D03               	btfss	3,2
  1850  059B  2D9D               	goto	u441
  1851  059C  2D9E               	goto	u440
  1852  059D                     u441:
  1853  059D  2D5F               	goto	l1211
  1854  059E                     u440:
  1855  059E                     l1221:
  1856  059E  01A0               	clrf	?_strstr
  1857  059F  01A1               	clrf	?_strstr+1
  1858  05A0                     l839:
  1859  05A0  0008               	return
  1860  05A1                     __end_of_strstr:
  1861                           
  1862                           	psect	text2
  1863  05A1                     __ptext2:	
  1864 ;; *************** function _strncmp *****************
  1865 ;; Defined at:
  1866 ;;		line 3 in file "C:\Program Files\Microchip\xc8\v2.36\pic\sources\c99\common\strncmp.c"
  1867 ;; Parameters:    Size  Location     Type
  1868 ;;  _l              2    0[COMMON] PTR const unsigned char 
  1869 ;;		 -> NULL(0), tramaRx(100), 
  1870 ;;  _r              2    2[COMMON] PTR const unsigned char 
  1871 ;;		 -> STR_12(9), STR_10(8), STR_8(9), STR_6(8), 
  1872 ;;		 -> STR_4(9), STR_2(8), 
  1873 ;;  n               2    4[COMMON] unsigned int 
  1874 ;; Auto vars:     Size  Location     Type
  1875 ;;  r               2    9[COMMON] PTR const unsigned char 
  1876 ;;		 -> STR_12(9), STR_10(8), STR_8(9), STR_6(8), 
  1877 ;;		 -> STR_4(9), STR_2(8), 
  1878 ;;  l               2    7[COMMON] PTR const unsigned char 
  1879 ;;		 -> NULL(0), tramaRx(100), 
  1880 ;; Return value:  Size  Location     Type
  1881 ;;                  2    0[COMMON] int 
  1882 ;; Registers used:
  1883 ;;		wreg, fsr0l, fsr0h, fsr1l, fsr1h, status,2, status,0, pclath
  1884 ;; Tracked objects:
  1885 ;;		On entry : 0/0
  1886 ;;		On exit  : 0/0
  1887 ;;		Unchanged: 0/0
  1888 ;; Data sizes:     COMMON   BANK0   BANK1   BANK2   BANK3   BANK4   BANK5   BANK6   BANK7   BANK8   BANK9  BANK10  BANK1
      +1  BANK12
  1889 ;;      Params:         6       0       0       0       0       0       0       0       0       0       0       0       
      +0       0
  1890 ;;      Locals:         4       0       0       0       0       0       0       0       0       0       0       0       
      +0       0
  1891 ;;      Temps:          1       0       0       0       0       0       0       0       0       0       0       0       
      +0       0
  1892 ;;      Totals:        11       0       0       0       0       0       0       0       0       0       0       0       
      +0       0
  1893 ;;Total ram usage:       11 bytes
  1894 ;; Hardware stack levels used: 1
  1895 ;; This function calls:
  1896 ;;		Nothing
  1897 ;; This function is called by:
  1898 ;;		_strstr
  1899 ;; This function uses a non-reentrant model
  1900 ;;
  1901                           
  1902  05A1                     _strncmp:	
  1903                           ;psect for function _strncmp
  1904                           
  1905  05A1                     l1157:	
  1906                           ;incstack = 0
  1907                           ; Regs used in _strncmp: [wreg-fsr1h+status,2+status,0+pclath]
  1908                           
  1909  05A1  0871               	movf	strncmp@_l+1,w
  1910  05A2  00F8               	movwf	strncmp@l+1
  1911  05A3  0870               	movf	strncmp@_l,w
  1912  05A4  00F7               	movwf	strncmp@l
  1913  05A5  0873               	movf	strncmp@_r+1,w
  1914  05A6  00FA               	movwf	strncmp@r+1
  1915  05A7  0872               	movf	strncmp@_r,w
  1916  05A8  00F9               	movwf	strncmp@r
  1917  05A9                     l1159:
  1918  05A9  3001               	movlw	1
  1919  05AA  02F4               	subwf	strncmp@n,f
  1920  05AB  3000               	movlw	0
  1921  05AC  3BF5               	subwfb	strncmp@n+1,f
  1922  05AD  0A74               	incf	strncmp@n,w
  1923  05AE  1D03               	skipz
  1924  05AF  2DB4               	goto	u321
  1925  05B0  0A75               	incf	strncmp@n+1,w
  1926  05B1  1D03               	btfss	3,2
  1927  05B2  2DB4               	goto	u321
  1928  05B3  2DB5               	goto	u320
  1929  05B4                     u321:
  1930  05B4  2DC4               	goto	l1167
  1931  05B5                     u320:
  1932  05B5                     l1161:
  1933  05B5  01F0               	clrf	?_strncmp
  1934  05B6  01F1               	clrf	?_strncmp+1
  1935  05B7  2DFA               	goto	l858
  1936  05B8                     l1165:
  1937  05B8  3001               	movlw	1
  1938  05B9  07F7               	addwf	strncmp@l,f
  1939  05BA  3000               	movlw	0
  1940  05BB  3DF8               	addwfc	strncmp@l+1,f
  1941  05BC  3001               	movlw	1
  1942  05BD  07F9               	addwf	strncmp@r,f
  1943  05BE  3000               	movlw	0
  1944  05BF  3DFA               	addwfc	strncmp@r+1,f
  1945  05C0  3001               	movlw	1
  1946  05C1  02F4               	subwf	strncmp@n,f
  1947  05C2  3000               	movlw	0
  1948  05C3  3BF5               	subwfb	strncmp@n+1,f
  1949  05C4                     l1167:
  1950  05C4  0877               	movf	strncmp@l,w
  1951  05C5  0086               	movwf	6
  1952  05C6  0878               	movf	strncmp@l+1,w
  1953  05C7  0087               	movwf	7
  1954  05C8  0801               	movf	1,w
  1955  05C9  1903               	btfsc	3,2
  1956  05CA  2DCC               	goto	u331
  1957  05CB  2DCD               	goto	u330
  1958  05CC                     u331:
  1959  05CC  2DEC               	goto	l1175
  1960  05CD                     u330:
  1961  05CD                     l1169:
  1962  05CD  0879               	movf	strncmp@r,w
  1963  05CE  0084               	movwf	4
  1964  05CF  087A               	movf	strncmp@r+1,w
  1965  05D0  0085               	movwf	5
  1966  05D1  0012               	moviw fsr0++
  1967  05D2  1903               	btfsc	3,2
  1968  05D3  2DD5               	goto	u341
  1969  05D4  2DD6               	goto	u340
  1970  05D5                     u341:
  1971  05D5  2DEC               	goto	l1175
  1972  05D6                     u340:
  1973  05D6                     l1171:
  1974  05D6  0874               	movf	strncmp@n,w
  1975  05D7  0475               	iorwf	strncmp@n+1,w
  1976  05D8  1903               	btfsc	3,2
  1977  05D9  2DDB               	goto	u351
  1978  05DA  2DDC               	goto	u350
  1979  05DB                     u351:
  1980  05DB  2DEC               	goto	l1175
  1981  05DC                     u350:
  1982  05DC                     l1173:
  1983  05DC  0879               	movf	strncmp@r,w
  1984  05DD  0084               	movwf	4
  1985  05DE  087A               	movf	strncmp@r+1,w
  1986  05DF  0085               	movwf	5
  1987  05E0  0800               	movf	0,w	;code access
  1988  05E1  00F6               	movwf	??_strncmp
  1989  05E2  0877               	movf	strncmp@l,w
  1990  05E3  0086               	movwf	6
  1991  05E4  0878               	movf	strncmp@l+1,w
  1992  05E5  0087               	movwf	7
  1993  05E6  0801               	movf	1,w
  1994  05E7  0676               	xorwf	??_strncmp,w
  1995  05E8  1903               	skipnz
  1996  05E9  2DEB               	goto	u361
  1997  05EA  2DEC               	goto	u360
  1998  05EB                     u361:
  1999  05EB  2DB8               	goto	l1165
  2000  05EC                     u360:
  2001  05EC                     l1175:
  2002  05EC  0877               	movf	strncmp@l,w
  2003  05ED  0086               	movwf	6
  2004  05EE  0878               	movf	strncmp@l+1,w
  2005  05EF  0087               	movwf	7
  2006  05F0  0879               	movf	strncmp@r,w
  2007  05F1  0084               	movwf	4
  2008  05F2  087A               	movf	strncmp@r+1,w
  2009  05F3  0085               	movwf	5
  2010  05F4  0800               	movf	0,w	;code access
  2011  05F5  0201               	subwf	1,w
  2012  05F6  00F0               	movwf	?_strncmp
  2013  05F7  01F1               	clrf	?_strncmp+1
  2014  05F8  1C03               	skipc
  2015  05F9  03F1               	decf	?_strncmp+1,f
  2016  05FA                     l858:
  2017  05FA  0008               	return
  2018  05FB                     __end_of_strncmp:
  2019                           
  2020                           	psect	text3
  2021  04D0                     __ptext3:	
  2022 ;; *************** function _strlen *****************
  2023 ;; Defined at:
  2024 ;;		line 5 in file "C:\Program Files\Microchip\xc8\v2.36\pic\sources\c99\common\strlen.c"
  2025 ;; Parameters:    Size  Location     Type
  2026 ;;  s               2    0[COMMON] PTR const unsigned char 
  2027 ;;		 -> STR_12(9), STR_10(8), STR_8(9), STR_6(8), 
  2028 ;;		 -> STR_4(9), STR_2(8), 
  2029 ;; Auto vars:     Size  Location     Type
  2030 ;;  a               2    3[COMMON] PTR const unsigned char 
  2031 ;;		 -> STR_12(9), STR_10(8), STR_8(9), STR_6(8), 
  2032 ;;		 -> STR_4(9), STR_2(8), 
  2033 ;; Return value:  Size  Location     Type
  2034 ;;                  2    0[COMMON] unsigned int 
  2035 ;; Registers used:
  2036 ;;		wreg, fsr0l, fsr0h, status,2, status,0
  2037 ;; Tracked objects:
  2038 ;;		On entry : 0/0
  2039 ;;		On exit  : 0/0
  2040 ;;		Unchanged: 0/0
  2041 ;; Data sizes:     COMMON   BANK0   BANK1   BANK2   BANK3   BANK4   BANK5   BANK6   BANK7   BANK8   BANK9  BANK10  BANK1
      +1  BANK12
  2042 ;;      Params:         2       0       0       0       0       0       0       0       0       0       0       0       
      +0       0
  2043 ;;      Locals:         2       0       0       0       0       0       0       0       0       0       0       0       
      +0       0
  2044 ;;      Temps:          1       0       0       0       0       0       0       0       0       0       0       0       
      +0       0
  2045 ;;      Totals:         5       0       0       0       0       0       0       0       0       0       0       0       
      +0       0
  2046 ;;Total ram usage:        5 bytes
  2047 ;; Hardware stack levels used: 1
  2048 ;; This function calls:
  2049 ;;		Nothing
  2050 ;; This function is called by:
  2051 ;;		_strstr
  2052 ;; This function uses a non-reentrant model
  2053 ;;
  2054                           
  2055  04D0                     _strlen:	
  2056                           ;psect for function _strlen
  2057                           
  2058  04D0                     l1147:	
  2059                           ;incstack = 0
  2060                           ; Regs used in _strlen: [wreg-fsr0h+status,2+status,0]
  2061                           
  2062  04D0  0871               	movf	strlen@s+1,w
  2063  04D1  00F4               	movwf	strlen@a+1
  2064  04D2  0870               	movf	strlen@s,w
  2065  04D3  00F3               	movwf	strlen@a
  2066  04D4  2CD9               	goto	l1151
  2067  04D5                     l1149:
  2068  04D5  3001               	movlw	1
  2069  04D6  07F0               	addwf	strlen@s,f
  2070  04D7  3000               	movlw	0
  2071  04D8  3DF1               	addwfc	strlen@s+1,f
  2072  04D9                     l1151:
  2073  04D9  0870               	movf	strlen@s,w
  2074  04DA  0084               	movwf	4
  2075  04DB  0871               	movf	strlen@s+1,w
  2076  04DC  0085               	movwf	5
  2077  04DD  0012               	moviw fsr0++
  2078  04DE  1D03               	btfss	3,2
  2079  04DF  2CE1               	goto	u311
  2080  04E0  2CE2               	goto	u310
  2081  04E1                     u311:
  2082  04E1  2CD5               	goto	l1149
  2083  04E2                     u310:
  2084  04E2                     l1153:
  2085  04E2  0873               	movf	strlen@a,w
  2086  04E3  0270               	subwf	strlen@s,w
  2087  04E4  00F0               	movwf	?_strlen
  2088  04E5  0874               	movf	strlen@a+1,w
  2089  04E6  3B71               	subwfb	strlen@s+1,w
  2090  04E7  00F1               	movwf	?_strlen+1
  2091  04E8                     l854:
  2092  04E8  0008               	return
  2093  04E9                     __end_of_strlen:
  2094                           
  2095                           	psect	text4
  2096  04E9                     __ptext4:	
  2097 ;; *************** function _strchr *****************
  2098 ;; Defined at:
  2099 ;;		line 3 in file "C:\Program Files\Microchip\xc8\v2.36\pic\sources\c99\common\strchr.c"
  2100 ;; Parameters:    Size  Location     Type
  2101 ;;  s               2    0[COMMON] PTR const unsigned char 
  2102 ;;		 -> NULL(0), tramaRx(100), 
  2103 ;;  c               2    2[COMMON] int 
  2104 ;; Auto vars:     Size  Location     Type
  2105 ;;		None
  2106 ;; Return value:  Size  Location     Type
  2107 ;;                  2    0[COMMON] PTR unsigned char 
  2108 ;; Registers used:
  2109 ;;		wreg, fsr1l, fsr1h, status,2, status,0
  2110 ;; Tracked objects:
  2111 ;;		On entry : 0/0
  2112 ;;		On exit  : 0/0
  2113 ;;		Unchanged: 0/0
  2114 ;; Data sizes:     COMMON   BANK0   BANK1   BANK2   BANK3   BANK4   BANK5   BANK6   BANK7   BANK8   BANK9  BANK10  BANK1
      +1  BANK12
  2115 ;;      Params:         4       0       0       0       0       0       0       0       0       0       0       0       
      +0       0
  2116 ;;      Locals:         0       0       0       0       0       0       0       0       0       0       0       0       
      +0       0
  2117 ;;      Temps:          2       0       0       0       0       0       0       0       0       0       0       0       
      +0       0
  2118 ;;      Totals:         6       0       0       0       0       0       0       0       0       0       0       0       
      +0       0
  2119 ;;Total ram usage:        6 bytes
  2120 ;; Hardware stack levels used: 1
  2121 ;; This function calls:
  2122 ;;		Nothing
  2123 ;; This function is called by:
  2124 ;;		_strstr
  2125 ;; This function uses a non-reentrant model
  2126 ;;
  2127                           
  2128  04E9                     _strchr:	
  2129                           ;psect for function _strchr
  2130                           
  2131  04E9                     l845:	
  2132                           ;incstack = 0
  2133                           ; Regs used in _strchr: [wreg+fsr1l+fsr1h+status,2+status,0]
  2134                           
  2135  04E9                     l1179:
  2136  04E9  0870               	movf	strchr@s,w
  2137  04EA  0086               	movwf	6
  2138  04EB  0871               	movf	strchr@s+1,w
  2139  04EC  0087               	movwf	7
  2140  04ED  0801               	movf	1,w
  2141  04EE  0672               	xorwf	strchr@c,w
  2142  04EF  1D03               	skipz
  2143  04F0  2CF2               	goto	u371
  2144  04F1  2CF3               	goto	u370
  2145  04F2                     u371:
  2146  04F2  2CF4               	goto	l1183
  2147  04F3                     u370:
  2148  04F3                     l1181:
  2149  04F3  2D06               	goto	l847
  2150  04F4                     l1183:
  2151  04F4  0871               	movf	strchr@s+1,w
  2152  04F5  00F5               	movwf	??_strchr+1
  2153  04F6  0870               	movf	strchr@s,w
  2154  04F7  00F4               	movwf	??_strchr
  2155  04F8  0AF0               	incf	strchr@s,f
  2156  04F9  1903               	skipnz
  2157  04FA  0AF1               	incf	strchr@s+1,f
  2158  04FB  0874               	movf	??_strchr,w
  2159  04FC  0086               	movwf	6
  2160  04FD  0875               	movf	??_strchr+1,w
  2161  04FE  0087               	movwf	7
  2162  04FF  0801               	movf	1,w
  2163  0500  1D03               	btfss	3,2
  2164  0501  2D03               	goto	u381
  2165  0502  2D04               	goto	u380
  2166  0503                     u381:
  2167  0503  2CE9               	goto	l845
  2168  0504                     u380:
  2169  0504                     l1185:
  2170  0504  01F0               	clrf	?_strchr
  2171  0505  01F1               	clrf	?_strchr+1
  2172  0506                     l847:
  2173  0506  0008               	return
  2174  0507                     __end_of_strchr:
  2175                           
  2176                           	psect	text5
  2177  0722                     __ptext5:	
  2178 ;; *************** function _memset *****************
  2179 ;; Defined at:
  2180 ;;		line 4 in file "C:\Program Files\Microchip\xc8\v2.36\pic\sources\c99\common\memset.c"
  2181 ;; Parameters:    Size  Location     Type
  2182 ;;  dest            2    0[COMMON] PTR void 
  2183 ;;		 -> tramaRx(100), 
  2184 ;;  c               2    2[COMMON] int 
  2185 ;;  n               2    4[COMMON] unsigned int 
  2186 ;; Auto vars:     Size  Location     Type
  2187 ;;  s               2   12[COMMON] PTR unsigned char 
  2188 ;;		 -> tramaRx(100), 
  2189 ;;  k               2   10[COMMON] unsigned int 
  2190 ;; Return value:  Size  Location     Type
  2191 ;;                  2    0[COMMON] PTR void 
  2192 ;; Registers used:
  2193 ;;		wreg, fsr1l, fsr1h, status,2, status,0
  2194 ;; Tracked objects:
  2195 ;;		On entry : 0/0
  2196 ;;		On exit  : 0/0
  2197 ;;		Unchanged: 0/0
  2198 ;; Data sizes:     COMMON   BANK0   BANK1   BANK2   BANK3   BANK4   BANK5   BANK6   BANK7   BANK8   BANK9  BANK10  BANK1
      +1  BANK12
  2199 ;;      Params:         6       0       0       0       0       0       0       0       0       0       0       0       
      +0       0
  2200 ;;      Locals:         4       0       0       0       0       0       0       0       0       0       0       0       
      +0       0
  2201 ;;      Temps:          4       0       0       0       0       0       0       0       0       0       0       0       
      +0       0
  2202 ;;      Totals:        14       0       0       0       0       0       0       0       0       0       0       0       
      +0       0
  2203 ;;Total ram usage:       14 bytes
  2204 ;; Hardware stack levels used: 1
  2205 ;; This function calls:
  2206 ;;		Nothing
  2207 ;; This function is called by:
  2208 ;;		_main
  2209 ;; This function uses a non-reentrant model
  2210 ;;
  2211                           
  2212  0722                     _memset:	
  2213                           ;psect for function _memset
  2214                           
  2215  0722                     l1225:	
  2216                           ;incstack = 0
  2217                           ; Regs used in _memset: [wreg+fsr1l+fsr1h+status,2+status,0]
  2218                           
  2219  0722  0871               	movf	memset@dest+1,w
  2220  0723  00FD               	movwf	memset@s+1
  2221  0724  0870               	movf	memset@dest,w
  2222  0725  00FC               	movwf	memset@s
  2223  0726                     l1227:
  2224  0726  0874               	movf	memset@n,w
  2225  0727  0475               	iorwf	memset@n+1,w
  2226  0728  1D03               	btfss	3,2
  2227  0729  2F2B               	goto	u451
  2228  072A  2F2C               	goto	u450
  2229  072B                     u451:
  2230  072B  2F2D               	goto	l1231
  2231  072C                     u450:
  2232  072C  2FEB               	goto	l820
  2233  072D                     l1231:
  2234  072D  087C               	movf	memset@s,w
  2235  072E  0086               	movwf	6
  2236  072F  087D               	movf	memset@s+1,w
  2237  0730  0087               	movwf	7
  2238  0731  0872               	movf	memset@c,w
  2239  0732  0081               	movwf	1
  2240  0733                     l1233:
  2241  0733  0874               	movf	memset@n,w
  2242  0734  077C               	addwf	memset@s,w
  2243  0735  00F6               	movwf	??_memset
  2244  0736  0875               	movf	memset@n+1,w
  2245  0737  3D7D               	addwfc	memset@s+1,w
  2246  0738  00F7               	movwf	??_memset+1
  2247  0739  0876               	movf	??_memset,w
  2248  073A  3EFF               	addlw	255
  2249  073B  00F8               	movwf	??_memset+2
  2250  073C  30FF               	movlw	255
  2251  073D  3D77               	addwfc	??_memset+1,w
  2252  073E  00F9               	movwf	??_memset+3
  2253  073F  0878               	movf	??_memset+2,w
  2254  0740  0086               	movwf	6
  2255  0741  0879               	movf	??_memset+3,w
  2256  0742  0087               	movwf	7
  2257  0743  0872               	movf	memset@c,w
  2258  0744  0081               	movwf	1
  2259  0745                     l1235:
  2260  0745  3000               	movlw	0
  2261  0746  0275               	subwf	memset@n+1,w
  2262  0747  3003               	movlw	3
  2263  0748  1903               	skipnz
  2264  0749  0274               	subwf	memset@n,w
  2265  074A  1803               	skipnc
  2266  074B  2F4D               	goto	u461
  2267  074C  2F4E               	goto	u460
  2268  074D                     u461:
  2269  074D  2F4F               	goto	l1239
  2270  074E                     u460:
  2271  074E  2FEB               	goto	l820
  2272  074F                     l1239:
  2273  074F  087C               	movf	memset@s,w
  2274  0750  3E01               	addlw	1
  2275  0751  00F6               	movwf	??_memset
  2276  0752  3000               	movlw	0
  2277  0753  3D7D               	addwfc	memset@s+1,w
  2278  0754  00F7               	movwf	??_memset+1
  2279  0755  0876               	movf	??_memset,w
  2280  0756  0086               	movwf	6
  2281  0757  0877               	movf	??_memset+1,w
  2282  0758  0087               	movwf	7
  2283  0759  0872               	movf	memset@c,w
  2284  075A  0081               	movwf	1
  2285  075B  087C               	movf	memset@s,w
  2286  075C  3E02               	addlw	2
  2287  075D  00F6               	movwf	??_memset
  2288  075E  3000               	movlw	0
  2289  075F  3D7D               	addwfc	memset@s+1,w
  2290  0760  00F7               	movwf	??_memset+1
  2291  0761  0876               	movf	??_memset,w
  2292  0762  0086               	movwf	6
  2293  0763  0877               	movf	??_memset+1,w
  2294  0764  0087               	movwf	7
  2295  0765  0872               	movf	memset@c,w
  2296  0766  0081               	movwf	1
  2297  0767  0874               	movf	memset@n,w
  2298  0768  077C               	addwf	memset@s,w
  2299  0769  00F6               	movwf	??_memset
  2300  076A  0875               	movf	memset@n+1,w
  2301  076B  3D7D               	addwfc	memset@s+1,w
  2302  076C  00F7               	movwf	??_memset+1
  2303  076D  0876               	movf	??_memset,w
  2304  076E  3EFE               	addlw	254
  2305  076F  00F8               	movwf	??_memset+2
  2306  0770  30FF               	movlw	255
  2307  0771  3D77               	addwfc	??_memset+1,w
  2308  0772  00F9               	movwf	??_memset+3
  2309  0773  0878               	movf	??_memset+2,w
  2310  0774  0086               	movwf	6
  2311  0775  0879               	movf	??_memset+3,w
  2312  0776  0087               	movwf	7
  2313  0777  0872               	movf	memset@c,w
  2314  0778  0081               	movwf	1
  2315  0779  0874               	movf	memset@n,w
  2316  077A  077C               	addwf	memset@s,w
  2317  077B  00F6               	movwf	??_memset
  2318  077C  0875               	movf	memset@n+1,w
  2319  077D  3D7D               	addwfc	memset@s+1,w
  2320  077E  00F7               	movwf	??_memset+1
  2321  077F  0876               	movf	??_memset,w
  2322  0780  3EFD               	addlw	253
  2323  0781  00F8               	movwf	??_memset+2
  2324  0782  30FF               	movlw	255
  2325  0783  3D77               	addwfc	??_memset+1,w
  2326  0784  00F9               	movwf	??_memset+3
  2327  0785  0878               	movf	??_memset+2,w
  2328  0786  0086               	movwf	6
  2329  0787  0879               	movf	??_memset+3,w
  2330  0788  0087               	movwf	7
  2331  0789  0872               	movf	memset@c,w
  2332  078A  0081               	movwf	1
  2333  078B                     l1241:
  2334  078B  3000               	movlw	0
  2335  078C  0275               	subwf	memset@n+1,w
  2336  078D  3007               	movlw	7
  2337  078E  1903               	skipnz
  2338  078F  0274               	subwf	memset@n,w
  2339  0790  1803               	skipnc
  2340  0791  2F93               	goto	u471
  2341  0792  2F94               	goto	u470
  2342  0793                     u471:
  2343  0793  2F95               	goto	l1245
  2344  0794                     u470:
  2345  0794  2FEB               	goto	l820
  2346  0795                     l1245:
  2347  0795  087C               	movf	memset@s,w
  2348  0796  3E03               	addlw	3
  2349  0797  00F6               	movwf	??_memset
  2350  0798  3000               	movlw	0
  2351  0799  3D7D               	addwfc	memset@s+1,w
  2352  079A  00F7               	movwf	??_memset+1
  2353  079B  0876               	movf	??_memset,w
  2354  079C  0086               	movwf	6
  2355  079D  0877               	movf	??_memset+1,w
  2356  079E  0087               	movwf	7
  2357  079F  0872               	movf	memset@c,w
  2358  07A0  0081               	movwf	1
  2359  07A1  0874               	movf	memset@n,w
  2360  07A2  077C               	addwf	memset@s,w
  2361  07A3  00F6               	movwf	??_memset
  2362  07A4  0875               	movf	memset@n+1,w
  2363  07A5  3D7D               	addwfc	memset@s+1,w
  2364  07A6  00F7               	movwf	??_memset+1
  2365  07A7  0876               	movf	??_memset,w
  2366  07A8  3EFC               	addlw	252
  2367  07A9  00F8               	movwf	??_memset+2
  2368  07AA  30FF               	movlw	255
  2369  07AB  3D77               	addwfc	??_memset+1,w
  2370  07AC  00F9               	movwf	??_memset+3
  2371  07AD  0878               	movf	??_memset+2,w
  2372  07AE  0086               	movwf	6
  2373  07AF  0879               	movf	??_memset+3,w
  2374  07B0  0087               	movwf	7
  2375  07B1  0872               	movf	memset@c,w
  2376  07B2  0081               	movwf	1
  2377  07B3                     l1247:
  2378  07B3  3000               	movlw	0
  2379  07B4  0275               	subwf	memset@n+1,w
  2380  07B5  3009               	movlw	9
  2381  07B6  1903               	skipnz
  2382  07B7  0274               	subwf	memset@n,w
  2383  07B8  1803               	skipnc
  2384  07B9  2FBB               	goto	u481
  2385  07BA  2FBC               	goto	u480
  2386  07BB                     u481:
  2387  07BB  2FBD               	goto	l1251
  2388  07BC                     u480:
  2389  07BC  2FEB               	goto	l820
  2390  07BD                     l1251:
  2391  07BD  097C               	comf	memset@s,w
  2392  07BE  00F6               	movwf	??_memset
  2393  07BF  097D               	comf	memset@s+1,w
  2394  07C0  00F7               	movwf	??_memset+1
  2395  07C1  0AF6               	incf	??_memset,f
  2396  07C2  1903               	skipnz
  2397  07C3  0AF7               	incf	??_memset+1,f
  2398  07C4  3003               	movlw	3
  2399  07C5  0576               	andwf	??_memset,w
  2400  07C6  00FA               	movwf	memset@k
  2401  07C7  3000               	movlw	0
  2402  07C8  0577               	andwf	??_memset+1,w
  2403  07C9  00FB               	movwf	memset@k+1
  2404  07CA                     l1253:
  2405  07CA  087A               	movf	memset@k,w
  2406  07CB  07FC               	addwf	memset@s,f
  2407  07CC  087B               	movf	memset@k+1,w
  2408  07CD  3DFD               	addwfc	memset@s+1,f
  2409  07CE                     l1255:
  2410  07CE  087A               	movf	memset@k,w
  2411  07CF  02F4               	subwf	memset@n,f
  2412  07D0  087B               	movf	memset@k+1,w
  2413  07D1  3BF5               	subwfb	memset@n+1,f
  2414  07D2                     l1257:
  2415  07D2  30FC               	movlw	252
  2416  07D3  05F4               	andwf	memset@n,f
  2417  07D4  30FF               	movlw	255
  2418  07D5  05F5               	andwf	memset@n+1,f
  2419  07D6  2FE5               	goto	l1265
  2420  07D7                     l1259:
  2421  07D7  087C               	movf	memset@s,w
  2422  07D8  0086               	movwf	6
  2423  07D9  087D               	movf	memset@s+1,w
  2424  07DA  0087               	movwf	7
  2425  07DB  0872               	movf	memset@c,w
  2426  07DC  0081               	movwf	1
  2427  07DD                     l1261:
  2428  07DD  3001               	movlw	1
  2429  07DE  02F4               	subwf	memset@n,f
  2430  07DF  3000               	movlw	0
  2431  07E0  3BF5               	subwfb	memset@n+1,f
  2432  07E1                     l1263:
  2433  07E1  3001               	movlw	1
  2434  07E2  07FC               	addwf	memset@s,f
  2435  07E3  3000               	movlw	0
  2436  07E4  3DFD               	addwfc	memset@s+1,f
  2437  07E5                     l1265:
  2438  07E5  0874               	movf	memset@n,w
  2439  07E6  0475               	iorwf	memset@n+1,w
  2440  07E7  1D03               	btfss	3,2
  2441  07E8  2FEA               	goto	u491
  2442  07E9  2FEB               	goto	u490
  2443  07EA                     u491:
  2444  07EA  2FD7               	goto	l1259
  2445  07EB                     u490:
  2446  07EB                     l820:
  2447  07EB  0008               	return
  2448  07EC                     __end_of_memset:
  2449                           
  2450                           	psect	text6
  2451  04B4                     __ptext6:	
  2452 ;; *************** function _SYSTEM_Initialize *****************
  2453 ;; Defined at:
  2454 ;;		line 50 in file "mcc_generated_files/mcc.c"
  2455 ;; Parameters:    Size  Location     Type
  2456 ;;		None
  2457 ;; Auto vars:     Size  Location     Type
  2458 ;;		None
  2459 ;; Return value:  Size  Location     Type
  2460 ;;                  1    wreg      void 
  2461 ;; Registers used:
  2462 ;;		wreg, status,2, status,0, pclath, cstack
  2463 ;; Tracked objects:
  2464 ;;		On entry : 0/0
  2465 ;;		On exit  : 0/0
  2466 ;;		Unchanged: 0/0
  2467 ;; Data sizes:     COMMON   BANK0   BANK1   BANK2   BANK3   BANK4   BANK5   BANK6   BANK7   BANK8   BANK9  BANK10  BANK1
      +1  BANK12
  2468 ;;      Params:         0       0       0       0       0       0       0       0       0       0       0       0       
      +0       0
  2469 ;;      Locals:         0       0       0       0       0       0       0       0       0       0       0       0       
      +0       0
  2470 ;;      Temps:          0       0       0       0       0       0       0       0       0       0       0       0       
      +0       0
  2471 ;;      Totals:         0       0       0       0       0       0       0       0       0       0       0       0       
      +0       0
  2472 ;;Total ram usage:        0 bytes
  2473 ;; Hardware stack levels used: 1
  2474 ;; Hardware stack levels required when called: 2
  2475 ;; This function calls:
  2476 ;;		_EUSART_Initialize
  2477 ;;		_OSCILLATOR_Initialize
  2478 ;;		_PIN_MANAGER_Initialize
  2479 ;;		_WDT_Initialize
  2480 ;; This function is called by:
  2481 ;;		_main
  2482 ;; This function uses a non-reentrant model
  2483 ;;
  2484                           
  2485  04B4                     _SYSTEM_Initialize:	
  2486                           ;psect for function _SYSTEM_Initialize
  2487                           
  2488  04B4                     l1189:	
  2489                           ;incstack = 0
  2490                           ; Regs used in _SYSTEM_Initialize: [wreg+status,2+status,0+pclath+cstack]
  2491                           
  2492                           
  2493                           ;mcc_generated_files/mcc.c: 53:     PIN_MANAGER_Initialize();
  2494  04B4  3185  2529  3184   	fcall	_PIN_MANAGER_Initialize
  2495                           
  2496                           ;mcc_generated_files/mcc.c: 54:     OSCILLATOR_Initialize();
  2497  04B7  3184  24A1  3184   	fcall	_OSCILLATOR_Initialize
  2498                           
  2499                           ;mcc_generated_files/mcc.c: 55:     WDT_Initialize();
  2500  04BA  3184  2486  3184   	fcall	_WDT_Initialize
  2501                           
  2502                           ;mcc_generated_files/mcc.c: 56:     EUSART_Initialize();
  2503  04BD  3185  2507  3184   	fcall	_EUSART_Initialize
  2504  04C0                     l19:
  2505  04C0  0008               	return
  2506  04C1                     __end_of_SYSTEM_Initialize:
  2507                           
  2508                           	psect	text7
  2509  0486                     __ptext7:	
  2510 ;; *************** function _WDT_Initialize *****************
  2511 ;; Defined at:
  2512 ;;		line 69 in file "mcc_generated_files/mcc.c"
  2513 ;; Parameters:    Size  Location     Type
  2514 ;;		None
  2515 ;; Auto vars:     Size  Location     Type
  2516 ;;		None
  2517 ;; Return value:  Size  Location     Type
  2518 ;;                  1    wreg      void 
  2519 ;; Registers used:
  2520 ;;		wreg
  2521 ;; Tracked objects:
  2522 ;;		On entry : 0/0
  2523 ;;		On exit  : 0/0
  2524 ;;		Unchanged: 0/0
  2525 ;; Data sizes:     COMMON   BANK0   BANK1   BANK2   BANK3   BANK4   BANK5   BANK6   BANK7   BANK8   BANK9  BANK10  BANK1
      +1  BANK12
  2526 ;;      Params:         0       0       0       0       0       0       0       0       0       0       0       0       
      +0       0
  2527 ;;      Locals:         0       0       0       0       0       0       0       0       0       0       0       0       
      +0       0
  2528 ;;      Temps:          0       0       0       0       0       0       0       0       0       0       0       0       
      +0       0
  2529 ;;      Totals:         0       0       0       0       0       0       0       0       0       0       0       0       
      +0       0
  2530 ;;Total ram usage:        0 bytes
  2531 ;; Hardware stack levels used: 1
  2532 ;; This function calls:
  2533 ;;		Nothing
  2534 ;; This function is called by:
  2535 ;;		_SYSTEM_Initialize
  2536 ;; This function uses a non-reentrant model
  2537 ;;
  2538                           
  2539  0486                     _WDT_Initialize:	
  2540                           ;psect for function _WDT_Initialize
  2541                           
  2542  0486                     l1133:	
  2543                           ;incstack = 0
  2544                           ; Regs used in _WDT_Initialize: [wreg]
  2545                           
  2546                           
  2547                           ;mcc_generated_files/mcc.c: 72:     WDTCON = 0x16;
  2548  0486  3016               	movlw	22
  2549  0487  0021               	movlb	1	; select bank1
  2550  0488  0097               	movwf	23	;volatile
  2551  0489                     l25:
  2552  0489  0008               	return
  2553  048A                     __end_of_WDT_Initialize:
  2554                           
  2555                           	psect	text8
  2556  0529                     __ptext8:	
  2557 ;; *************** function _PIN_MANAGER_Initialize *****************
  2558 ;; Defined at:
  2559 ;;		line 55 in file "mcc_generated_files/pin_manager.c"
  2560 ;; Parameters:    Size  Location     Type
  2561 ;;		None
  2562 ;; Auto vars:     Size  Location     Type
  2563 ;;		None
  2564 ;; Return value:  Size  Location     Type
  2565 ;;                  1    wreg      void 
  2566 ;; Registers used:
  2567 ;;		wreg, status,2
  2568 ;; Tracked objects:
  2569 ;;		On entry : 0/0
  2570 ;;		On exit  : 0/0
  2571 ;;		Unchanged: 0/0
  2572 ;; Data sizes:     COMMON   BANK0   BANK1   BANK2   BANK3   BANK4   BANK5   BANK6   BANK7   BANK8   BANK9  BANK10  BANK1
      +1  BANK12
  2573 ;;      Params:         0       0       0       0       0       0       0       0       0       0       0       0       
      +0       0
  2574 ;;      Locals:         0       0       0       0       0       0       0       0       0       0       0       0       
      +0       0
  2575 ;;      Temps:          0       0       0       0       0       0       0       0       0       0       0       0       
      +0       0
  2576 ;;      Totals:         0       0       0       0       0       0       0       0       0       0       0       0       
      +0       0
  2577 ;;Total ram usage:        0 bytes
  2578 ;; Hardware stack levels used: 1
  2579 ;; This function calls:
  2580 ;;		Nothing
  2581 ;; This function is called by:
  2582 ;;		_SYSTEM_Initialize
  2583 ;; This function uses a non-reentrant model
  2584 ;;
  2585                           
  2586  0529                     _PIN_MANAGER_Initialize:	
  2587                           ;psect for function _PIN_MANAGER_Initialize
  2588                           
  2589  0529                     l1099:	
  2590                           ;incstack = 0
  2591                           ; Regs used in _PIN_MANAGER_Initialize: [wreg+status,2]
  2592                           
  2593                           
  2594                           ;mcc_generated_files/pin_manager.c: 60:     LATE = 0x00;
  2595  0529  0022               	movlb	2	; select bank2
  2596  052A  0190               	clrf	16	;volatile
  2597                           
  2598                           ;mcc_generated_files/pin_manager.c: 61:     LATD = 0x00;
  2599  052B  018F               	clrf	15	;volatile
  2600                           
  2601                           ;mcc_generated_files/pin_manager.c: 62:     LATA = 0x00;
  2602  052C  018C               	clrf	12	;volatile
  2603                           
  2604                           ;mcc_generated_files/pin_manager.c: 63:     LATB = 0x00;
  2605  052D  018D               	clrf	13	;volatile
  2606                           
  2607                           ;mcc_generated_files/pin_manager.c: 64:     LATC = 0x00;
  2608  052E  018E               	clrf	14	;volatile
  2609  052F                     l1101:
  2610                           
  2611                           ;mcc_generated_files/pin_manager.c: 69:     TRISE = 0x0F;
  2612  052F  300F               	movlw	15
  2613  0530  0021               	movlb	1	; select bank1
  2614  0531  0090               	movwf	16	;volatile
  2615  0532                     l1103:
  2616                           
  2617                           ;mcc_generated_files/pin_manager.c: 70:     TRISA = 0xFF;
  2618  0532  30FF               	movlw	255
  2619  0533  008C               	movwf	12	;volatile
  2620  0534                     l1105:
  2621                           
  2622                           ;mcc_generated_files/pin_manager.c: 71:     TRISB = 0xFF;
  2623  0534  30FF               	movlw	255
  2624  0535  008D               	movwf	13	;volatile
  2625  0536                     l1107:
  2626                           
  2627                           ;mcc_generated_files/pin_manager.c: 72:     TRISC = 0xBF;
  2628  0536  30BF               	movlw	191
  2629  0537  008E               	movwf	14	;volatile
  2630  0538                     l1109:
  2631                           
  2632                           ;mcc_generated_files/pin_manager.c: 73:     TRISD = 0xF8;
  2633  0538  30F8               	movlw	248
  2634  0539  008F               	movwf	15	;volatile
  2635  053A                     l1111:
  2636                           
  2637                           ;mcc_generated_files/pin_manager.c: 78:     ANSELD = 0xF8;
  2638  053A  30F8               	movlw	248
  2639  053B  0023               	movlb	3	; select bank3
  2640  053C  008F               	movwf	15	;volatile
  2641  053D                     l1113:
  2642                           
  2643                           ;mcc_generated_files/pin_manager.c: 79:     ANSELB = 0x3F;
  2644  053D  303F               	movlw	63
  2645  053E  008D               	movwf	13	;volatile
  2646  053F                     l1115:
  2647                           
  2648                           ;mcc_generated_files/pin_manager.c: 80:     ANSELE = 0x07;
  2649  053F  3007               	movlw	7
  2650  0540  0090               	movwf	16	;volatile
  2651  0541                     l1117:
  2652                           
  2653                           ;mcc_generated_files/pin_manager.c: 81:     ANSELA = 0x3F;
  2654  0541  303F               	movlw	63
  2655  0542  008C               	movwf	12	;volatile
  2656  0543                     l1119:
  2657                           
  2658                           ;mcc_generated_files/pin_manager.c: 86:     WPUE = 0x00;
  2659  0543  0024               	movlb	4	; select bank4
  2660  0544  0190               	clrf	16	;volatile
  2661  0545                     l1121:
  2662                           
  2663                           ;mcc_generated_files/pin_manager.c: 87:     WPUB = 0x00;
  2664  0545  018D               	clrf	13	;volatile
  2665  0546                     l1123:
  2666                           
  2667                           ;mcc_generated_files/pin_manager.c: 88:     OPTION_REGbits.nWPUEN = 1;
  2668  0546  0021               	movlb	1	; select bank1
  2669  0547  1795               	bsf	21,7	;volatile
  2670  0548                     l1125:
  2671                           
  2672                           ;mcc_generated_files/pin_manager.c: 94:     APFCON = 0x00;
  2673  0548  0022               	movlb	2	; select bank2
  2674  0549  019D               	clrf	29	;volatile
  2675  054A                     l158:
  2676  054A  0008               	return
  2677  054B                     __end_of_PIN_MANAGER_Initialize:
  2678                           
  2679                           	psect	text9
  2680  04A1                     __ptext9:	
  2681 ;; *************** function _OSCILLATOR_Initialize *****************
  2682 ;; Defined at:
  2683 ;;		line 59 in file "mcc_generated_files/mcc.c"
  2684 ;; Parameters:    Size  Location     Type
  2685 ;;		None
  2686 ;; Auto vars:     Size  Location     Type
  2687 ;;		None
  2688 ;; Return value:  Size  Location     Type
  2689 ;;                  1    wreg      void 
  2690 ;; Registers used:
  2691 ;;		wreg, status,2
  2692 ;; Tracked objects:
  2693 ;;		On entry : 0/0
  2694 ;;		On exit  : 0/0
  2695 ;;		Unchanged: 0/0
  2696 ;; Data sizes:     COMMON   BANK0   BANK1   BANK2   BANK3   BANK4   BANK5   BANK6   BANK7   BANK8   BANK9  BANK10  BANK1
      +1  BANK12
  2697 ;;      Params:         0       0       0       0       0       0       0       0       0       0       0       0       
      +0       0
  2698 ;;      Locals:         0       0       0       0       0       0       0       0       0       0       0       0       
      +0       0
  2699 ;;      Temps:          0       0       0       0       0       0       0       0       0       0       0       0       
      +0       0
  2700 ;;      Totals:         0       0       0       0       0       0       0       0       0       0       0       0       
      +0       0
  2701 ;;Total ram usage:        0 bytes
  2702 ;; Hardware stack levels used: 1
  2703 ;; This function calls:
  2704 ;;		Nothing
  2705 ;; This function is called by:
  2706 ;;		_SYSTEM_Initialize
  2707 ;; This function uses a non-reentrant model
  2708 ;;
  2709                           
  2710  04A1                     _OSCILLATOR_Initialize:	
  2711                           ;psect for function _OSCILLATOR_Initialize
  2712                           
  2713  04A1                     l1127:	
  2714                           ;incstack = 0
  2715                           ; Regs used in _OSCILLATOR_Initialize: [wreg+status,2]
  2716                           
  2717                           
  2718                           ;mcc_generated_files/mcc.c: 62:     OSCCON = 0x70;
  2719  04A1  3070               	movlw	112
  2720  04A2  0021               	movlb	1	; select bank1
  2721  04A3  0099               	movwf	25	;volatile
  2722  04A4                     l1129:
  2723                           
  2724                           ;mcc_generated_files/mcc.c: 64:     OSCTUNE = 0x00;
  2725  04A4  0198               	clrf	24	;volatile
  2726  04A5                     l1131:
  2727                           
  2728                           ;mcc_generated_files/mcc.c: 66:     BORCON = 0x00;
  2729  04A5  0022               	movlb	2	; select bank2
  2730  04A6  0196               	clrf	22	;volatile
  2731  04A7                     l22:
  2732  04A7  0008               	return
  2733  04A8                     __end_of_OSCILLATOR_Initialize:
  2734                           
  2735                           	psect	text10
  2736  0507                     __ptext10:	
  2737 ;; *************** function _EUSART_Initialize *****************
  2738 ;; Defined at:
  2739 ;;		line 66 in file "mcc_generated_files/eusart.c"
  2740 ;; Parameters:    Size  Location     Type
  2741 ;;		None
  2742 ;; Auto vars:     Size  Location     Type
  2743 ;;		None
  2744 ;; Return value:  Size  Location     Type
  2745 ;;                  1    wreg      void 
  2746 ;; Registers used:
  2747 ;;		wreg, status,2, status,0, pclath, cstack
  2748 ;; Tracked objects:
  2749 ;;		On entry : 0/0
  2750 ;;		On exit  : 0/0
  2751 ;;		Unchanged: 0/0
  2752 ;; Data sizes:     COMMON   BANK0   BANK1   BANK2   BANK3   BANK4   BANK5   BANK6   BANK7   BANK8   BANK9  BANK10  BANK1
      +1  BANK12
  2753 ;;      Params:         0       0       0       0       0       0       0       0       0       0       0       0       
      +0       0
  2754 ;;      Locals:         0       0       0       0       0       0       0       0       0       0       0       0       
      +0       0
  2755 ;;      Temps:          0       0       0       0       0       0       0       0       0       0       0       0       
      +0       0
  2756 ;;      Totals:         0       0       0       0       0       0       0       0       0       0       0       0       
      +0       0
  2757 ;;Total ram usage:        0 bytes
  2758 ;; Hardware stack levels used: 1
  2759 ;; Hardware stack levels required when called: 1
  2760 ;; This function calls:
  2761 ;;		_EUSART_SetErrorHandler
  2762 ;;		_EUSART_SetFramingErrorHandler
  2763 ;;		_EUSART_SetOverrunErrorHandler
  2764 ;; This function is called by:
  2765 ;;		_SYSTEM_Initialize
  2766 ;; This function uses a non-reentrant model
  2767 ;;
  2768                           
  2769  0507                     _EUSART_Initialize:	
  2770                           ;psect for function _EUSART_Initialize
  2771                           
  2772  0507                     l1135:	
  2773                           ;incstack = 0
  2774                           ; Regs used in _EUSART_Initialize: [wreg+status,2+status,0+pclath+cstack]
  2775                           
  2776                           
  2777                           ;mcc_generated_files/eusart.c: 71:     BAUDCON = 0x08;
  2778  0507  3008               	movlw	8
  2779  0508  0023               	movlb	3	; select bank3
  2780  0509  009F               	movwf	31	;volatile
  2781                           
  2782                           ;mcc_generated_files/eusart.c: 74:     RCSTA = 0x90;
  2783  050A  3090               	movlw	144
  2784  050B  009D               	movwf	29	;volatile
  2785                           
  2786                           ;mcc_generated_files/eusart.c: 77:     TXSTA = 0x24;
  2787  050C  3024               	movlw	36
  2788  050D  009E               	movwf	30	;volatile
  2789                           
  2790                           ;mcc_generated_files/eusart.c: 80:     SPBRGL = 0xCF;
  2791  050E  30CF               	movlw	207
  2792  050F  009B               	movwf	27	;volatile
  2793  0510                     l1137:
  2794                           
  2795                           ;mcc_generated_files/eusart.c: 83:     SPBRGH = 0x00;
  2796  0510  019C               	clrf	28	;volatile
  2797  0511                     l1139:
  2798                           
  2799                           ;mcc_generated_files/eusart.c: 86:     EUSART_SetFramingErrorHandler(EUSART_DefaultFrami
      +                          ngErrorHandler);
  2800  0511  3000               	movlw	0
  2801  0512  00F0               	movwf	EUSART_SetFramingErrorHandler@interruptHandler
  2802  0513  3000               	movlw	0
  2803  0514  00F1               	movwf	EUSART_SetFramingErrorHandler@interruptHandler+1
  2804  0515  3184  2495  3185   	fcall	_EUSART_SetFramingErrorHandler
  2805  0518                     l1141:
  2806                           
  2807                           ;mcc_generated_files/eusart.c: 87:     EUSART_SetOverrunErrorHandler(EUSART_DefaultOverr
      +                          unErrorHandler);
  2808  0518  3000               	movlw	0
  2809  0519  00F0               	movwf	EUSART_SetOverrunErrorHandler@interruptHandler
  2810  051A  3000               	movlw	0
  2811  051B  00F1               	movwf	EUSART_SetOverrunErrorHandler@interruptHandler+1
  2812  051C  3184  249B  3185   	fcall	_EUSART_SetOverrunErrorHandler
  2813  051F                     l1143:
  2814                           
  2815                           ;mcc_generated_files/eusart.c: 88:     EUSART_SetErrorHandler(EUSART_DefaultErrorHandler
      +                          );
  2816  051F  3000               	movlw	0
  2817  0520  00F0               	movwf	EUSART_SetErrorHandler@interruptHandler
  2818  0521  3000               	movlw	0
  2819  0522  00F1               	movwf	EUSART_SetErrorHandler@interruptHandler+1
  2820  0523  3184  248F  3185   	fcall	_EUSART_SetErrorHandler
  2821  0526                     l1145:
  2822                           
  2823                           ;mcc_generated_files/eusart.c: 90:     eusartRxLastError.status = 0;
  2824  0526  0020               	movlb	0	; select bank0
  2825  0527  01B0               	clrf	_eusartRxLastError	;volatile
  2826  0528                     l68:
  2827  0528  0008               	return
  2828  0529                     __end_of_EUSART_Initialize:
  2829                           
  2830                           	psect	text11
  2831  049B                     __ptext11:	
  2832 ;; *************** function _EUSART_SetOverrunErrorHandler *****************
  2833 ;; Defined at:
  2834 ;;		line 170 in file "mcc_generated_files/eusart.c"
  2835 ;; Parameters:    Size  Location     Type
  2836 ;;  interruptHan    2    0[COMMON] PTR FTN()void 
  2837 ;;		 -> EUSART_DefaultOverrunErrorHandler(1), 
  2838 ;; Auto vars:     Size  Location     Type
  2839 ;;		None
  2840 ;; Return value:  Size  Location     Type
  2841 ;;                  1    wreg      void 
  2842 ;; Registers used:
  2843 ;;		wreg
  2844 ;; Tracked objects:
  2845 ;;		On entry : 0/0
  2846 ;;		On exit  : 0/0
  2847 ;;		Unchanged: 0/0
  2848 ;; Data sizes:     COMMON   BANK0   BANK1   BANK2   BANK3   BANK4   BANK5   BANK6   BANK7   BANK8   BANK9  BANK10  BANK1
      +1  BANK12
  2849 ;;      Params:         2       0       0       0       0       0       0       0       0       0       0       0       
      +0       0
  2850 ;;      Locals:         0       0       0       0       0       0       0       0       0       0       0       0       
      +0       0
  2851 ;;      Temps:          0       0       0       0       0       0       0       0       0       0       0       0       
      +0       0
  2852 ;;      Totals:         2       0       0       0       0       0       0       0       0       0       0       0       
      +0       0
  2853 ;;Total ram usage:        2 bytes
  2854 ;; Hardware stack levels used: 1
  2855 ;; This function calls:
  2856 ;;		Nothing
  2857 ;; This function is called by:
  2858 ;;		_EUSART_Initialize
  2859 ;; This function uses a non-reentrant model
  2860 ;;
  2861                           
  2862  049B                     _EUSART_SetOverrunErrorHandler:	
  2863                           ;psect for function _EUSART_SetOverrunErrorHandler
  2864                           
  2865  049B                     l1095:	
  2866                           ;incstack = 0
  2867                           ; Regs used in _EUSART_SetOverrunErrorHandler: [wreg]
  2868                           
  2869                           
  2870                           ;mcc_generated_files/eusart.c: 171:     EUSART_OverrunErrorHandler = interruptHandler;
  2871  049B  0871               	movf	EUSART_SetOverrunErrorHandler@interruptHandler+1,w
  2872  049C  0020               	movlb	0	; select bank0
  2873  049D  00AB               	movwf	_EUSART_OverrunErrorHandler+1
  2874  049E  0870               	movf	EUSART_SetOverrunErrorHandler@interruptHandler,w
  2875  049F  00AA               	movwf	_EUSART_OverrunErrorHandler
  2876  04A0                     l116:
  2877  04A0  0008               	return
  2878  04A1                     __end_of_EUSART_SetOverrunErrorHandler:
  2879                           
  2880                           	psect	text12
  2881  0495                     __ptext12:	
  2882 ;; *************** function _EUSART_SetFramingErrorHandler *****************
  2883 ;; Defined at:
  2884 ;;		line 166 in file "mcc_generated_files/eusart.c"
  2885 ;; Parameters:    Size  Location     Type
  2886 ;;  interruptHan    2    0[COMMON] PTR FTN()void 
  2887 ;;		 -> EUSART_DefaultFramingErrorHandler(1), 
  2888 ;; Auto vars:     Size  Location     Type
  2889 ;;		None
  2890 ;; Return value:  Size  Location     Type
  2891 ;;                  1    wreg      void 
  2892 ;; Registers used:
  2893 ;;		wreg
  2894 ;; Tracked objects:
  2895 ;;		On entry : 0/0
  2896 ;;		On exit  : 0/0
  2897 ;;		Unchanged: 0/0
  2898 ;; Data sizes:     COMMON   BANK0   BANK1   BANK2   BANK3   BANK4   BANK5   BANK6   BANK7   BANK8   BANK9  BANK10  BANK1
      +1  BANK12
  2899 ;;      Params:         2       0       0       0       0       0       0       0       0       0       0       0       
      +0       0
  2900 ;;      Locals:         0       0       0       0       0       0       0       0       0       0       0       0       
      +0       0
  2901 ;;      Temps:          0       0       0       0       0       0       0       0       0       0       0       0       
      +0       0
  2902 ;;      Totals:         2       0       0       0       0       0       0       0       0       0       0       0       
      +0       0
  2903 ;;Total ram usage:        2 bytes
  2904 ;; Hardware stack levels used: 1
  2905 ;; This function calls:
  2906 ;;		Nothing
  2907 ;; This function is called by:
  2908 ;;		_EUSART_Initialize
  2909 ;; This function uses a non-reentrant model
  2910 ;;
  2911                           
  2912  0495                     _EUSART_SetFramingErrorHandler:	
  2913                           ;psect for function _EUSART_SetFramingErrorHandler
  2914                           
  2915  0495                     l1093:	
  2916                           ;incstack = 0
  2917                           ; Regs used in _EUSART_SetFramingErrorHandler: [wreg]
  2918                           
  2919                           
  2920                           ;mcc_generated_files/eusart.c: 167:     EUSART_FramingErrorHandler = interruptHandler;
  2921  0495  0871               	movf	EUSART_SetFramingErrorHandler@interruptHandler+1,w
  2922  0496  0020               	movlb	0	; select bank0
  2923  0497  00AD               	movwf	_EUSART_FramingErrorHandler+1
  2924  0498  0870               	movf	EUSART_SetFramingErrorHandler@interruptHandler,w
  2925  0499  00AC               	movwf	_EUSART_FramingErrorHandler
  2926  049A                     l113:
  2927  049A  0008               	return
  2928  049B                     __end_of_EUSART_SetFramingErrorHandler:
  2929                           
  2930                           	psect	text13
  2931  048F                     __ptext13:	
  2932 ;; *************** function _EUSART_SetErrorHandler *****************
  2933 ;; Defined at:
  2934 ;;		line 174 in file "mcc_generated_files/eusart.c"
  2935 ;; Parameters:    Size  Location     Type
  2936 ;;  interruptHan    2    0[COMMON] PTR FTN()void 
  2937 ;;		 -> EUSART_DefaultErrorHandler(1), 
  2938 ;; Auto vars:     Size  Location     Type
  2939 ;;		None
  2940 ;; Return value:  Size  Location     Type
  2941 ;;                  1    wreg      void 
  2942 ;; Registers used:
  2943 ;;		wreg
  2944 ;; Tracked objects:
  2945 ;;		On entry : 0/0
  2946 ;;		On exit  : 0/0
  2947 ;;		Unchanged: 0/0
  2948 ;; Data sizes:     COMMON   BANK0   BANK1   BANK2   BANK3   BANK4   BANK5   BANK6   BANK7   BANK8   BANK9  BANK10  BANK1
      +1  BANK12
  2949 ;;      Params:         2       0       0       0       0       0       0       0       0       0       0       0       
      +0       0
  2950 ;;      Locals:         0       0       0       0       0       0       0       0       0       0       0       0       
      +0       0
  2951 ;;      Temps:          0       0       0       0       0       0       0       0       0       0       0       0       
      +0       0
  2952 ;;      Totals:         2       0       0       0       0       0       0       0       0       0       0       0       
      +0       0
  2953 ;;Total ram usage:        2 bytes
  2954 ;; Hardware stack levels used: 1
  2955 ;; This function calls:
  2956 ;;		Nothing
  2957 ;; This function is called by:
  2958 ;;		_EUSART_Initialize
  2959 ;; This function uses a non-reentrant model
  2960 ;;
  2961                           
  2962  048F                     _EUSART_SetErrorHandler:	
  2963                           ;psect for function _EUSART_SetErrorHandler
  2964                           
  2965  048F                     l1097:	
  2966                           ;incstack = 0
  2967                           ; Regs used in _EUSART_SetErrorHandler: [wreg]
  2968                           
  2969                           
  2970                           ;mcc_generated_files/eusart.c: 175:     EUSART_ErrorHandler = interruptHandler;
  2971  048F  0871               	movf	EUSART_SetErrorHandler@interruptHandler+1,w
  2972  0490  0020               	movlb	0	; select bank0
  2973  0491  00A9               	movwf	_EUSART_ErrorHandler+1
  2974  0492  0870               	movf	EUSART_SetErrorHandler@interruptHandler,w
  2975  0493  00A8               	movwf	_EUSART_ErrorHandler
  2976  0494                     l119:
  2977  0494  0008               	return
  2978  0495                     __end_of_EUSART_SetErrorHandler:
  2979                           
  2980                           	psect	text14
  2981  048A                     __ptext14:	
  2982 ;; *************** function _EUSART_is_rx_ready *****************
  2983 ;; Defined at:
  2984 ;;		line 99 in file "mcc_generated_files/eusart.c"
  2985 ;; Parameters:    Size  Location     Type
  2986 ;;		None
  2987 ;; Auto vars:     Size  Location     Type
  2988 ;;		None
  2989 ;; Return value:  Size  Location     Type
  2990 ;;                  1    wreg      _Bool 
  2991 ;; Registers used:
  2992 ;;		wreg, status,2, status,0
  2993 ;; Tracked objects:
  2994 ;;		On entry : 0/0
  2995 ;;		On exit  : 0/0
  2996 ;;		Unchanged: 0/0
  2997 ;; Data sizes:     COMMON   BANK0   BANK1   BANK2   BANK3   BANK4   BANK5   BANK6   BANK7   BANK8   BANK9  BANK10  BANK1
      +1  BANK12
  2998 ;;      Params:         0       0       0       0       0       0       0       0       0       0       0       0       
      +0       0
  2999 ;;      Locals:         0       0       0       0       0       0       0       0       0       0       0       0       
      +0       0
  3000 ;;      Temps:          0       0       0       0       0       0       0       0       0       0       0       0       
      +0       0
  3001 ;;      Totals:         0       0       0       0       0       0       0       0       0       0       0       0       
      +0       0
  3002 ;;Total ram usage:        0 bytes
  3003 ;; Hardware stack levels used: 1
  3004 ;; This function calls:
  3005 ;;		Nothing
  3006 ;; This function is called by:
  3007 ;;		_main
  3008 ;; This function uses a non-reentrant model
  3009 ;;
  3010                           
  3011  048A                     _EUSART_is_rx_ready:	
  3012                           ;psect for function _EUSART_is_rx_ready
  3013                           
  3014  048A                     l1191:	
  3015                           ;incstack = 0
  3016                           ; Regs used in _EUSART_is_rx_ready: [wreg+status,2+status,0]
  3017                           
  3018                           
  3019                           ;mcc_generated_files/eusart.c: 101:     return (_Bool)(PIR1bits.RCIF);
  3020  048A  0020               	movlb	0	; select bank0
  3021  048B  0E11               	swapf	17,w	;volatile
  3022  048C  0C89               	rrf	9,f
  3023  048D  3901               	andlw	1
  3024  048E                     l76:
  3025  048E  0008               	return
  3026  048F                     __end_of_EUSART_is_rx_ready:
  3027                           
  3028                           	psect	text15
  3029  04C1                     __ptext15:	
  3030 ;; *************** function _EUSART_Read *****************
  3031 ;; Defined at:
  3032 ;;		line 113 in file "mcc_generated_files/eusart.c"
  3033 ;; Parameters:    Size  Location     Type
  3034 ;;		None
  3035 ;; Auto vars:     Size  Location     Type
  3036 ;;		None
  3037 ;; Return value:  Size  Location     Type
  3038 ;;                  1    wreg      unsigned char 
  3039 ;; Registers used:
  3040 ;;		wreg, status,2
  3041 ;; Tracked objects:
  3042 ;;		On entry : 0/0
  3043 ;;		On exit  : 0/0
  3044 ;;		Unchanged: 0/0
  3045 ;; Data sizes:     COMMON   BANK0   BANK1   BANK2   BANK3   BANK4   BANK5   BANK6   BANK7   BANK8   BANK9  BANK10  BANK1
      +1  BANK12
  3046 ;;      Params:         0       0       0       0       0       0       0       0       0       0       0       0       
      +0       0
  3047 ;;      Locals:         0       0       0       0       0       0       0       0       0       0       0       0       
      +0       0
  3048 ;;      Temps:          0       0       0       0       0       0       0       0       0       0       0       0       
      +0       0
  3049 ;;      Totals:         0       0       0       0       0       0       0       0       0       0       0       0       
      +0       0
  3050 ;;Total ram usage:        0 bytes
  3051 ;; Hardware stack levels used: 1
  3052 ;; This function calls:
  3053 ;;		Nothing
  3054 ;; This function is called by:
  3055 ;;		_main
  3056 ;;		_getch
  3057 ;; This function uses a non-reentrant model
  3058 ;;
  3059                           
  3060  04C1                     _EUSART_Read:	
  3061                           ;psect for function _EUSART_Read
  3062                           
  3063  04C1                     l1195:	
  3064                           ;incstack = 0
  3065                           ; Regs used in _EUSART_Read: [wreg+status,2]
  3066                           
  3067  04C1                     l85:	
  3068                           ;mcc_generated_files/eusart.c: 116:     {;mcc_generated_files/eusart.c: 117:     }
  3069                           
  3070                           
  3071                           ;mcc_generated_files/eusart.c: 115:     while(!PIR1bits.RCIF)
  3072  04C1  0020               	movlb	0	; select bank0
  3073  04C2  1E91               	btfss	17,5	;volatile
  3074  04C3  2CC5               	goto	u391
  3075  04C4  2CC6               	goto	u390
  3076  04C5                     u391:
  3077  04C5  2CC1               	goto	l85
  3078  04C6                     u390:
  3079  04C6                     l1197:
  3080                           
  3081                           ;mcc_generated_files/eusart.c: 119:     eusartRxLastError.status = 0;
  3082  04C6  01B0               	clrf	_eusartRxLastError	;volatile
  3083  04C7                     l1199:
  3084                           
  3085                           ;mcc_generated_files/eusart.c: 121:     if(1 == RCSTAbits.OERR)
  3086  04C7  0023               	movlb	3	; select bank3
  3087  04C8  1C9D               	btfss	29,1	;volatile
  3088  04C9  2CCB               	goto	u401
  3089  04CA  2CCC               	goto	u400
  3090  04CB                     u401:
  3091  04CB  2CCE               	goto	l1203
  3092  04CC                     u400:
  3093  04CC                     l1201:
  3094                           
  3095                           ;mcc_generated_files/eusart.c: 122:     {;mcc_generated_files/eusart.c: 125:         RCS
      +                          TAbits.CREN = 0;
  3096  04CC  121D               	bcf	29,4	;volatile
  3097                           
  3098                           ;mcc_generated_files/eusart.c: 126:         RCSTAbits.CREN = 1;
  3099  04CD  161D               	bsf	29,4	;volatile
  3100  04CE                     l1203:
  3101                           
  3102                           ;mcc_generated_files/eusart.c: 129:     return RCREG;
  3103  04CE  0819               	movf	25,w	;volatile
  3104  04CF                     l89:
  3105  04CF  0008               	return
  3106  04D0                     __end_of_EUSART_Read:
  3107  007E                     btemp	set	126	;btemp
  3108  007E                     wtemp0	set	126
  3109  238C                     
  3110                           	psect	idloc
  3111                           
  3112                           ;Config register IDLOC0 @ 0x8000
  3113                           ;	unspecified, using default values
  3114  8000                     	org	32768
  3115  8000  3FFF               	dw	16383
  3116                           
  3117                           ;Config register IDLOC1 @ 0x8001
  3118                           ;	unspecified, using default values
  3119  8001                     	org	32769
  3120  8001  3FFF               	dw	16383
  3121                           
  3122                           ;Config register IDLOC2 @ 0x8002
  3123                           ;	unspecified, using default values
  3124  8002                     	org	32770
  3125  8002  3FFF               	dw	16383
  3126                           
  3127                           ;Config register IDLOC3 @ 0x8003
  3128                           ;	unspecified, using default values
  3129  8003                     	org	32771
  3130  8003  3FFF               	dw	16383
  3131                           
  3132                           	psect	config
  3133                           
  3134                           ;Config register CONFIG1 @ 0x8007
  3135                           ;	Oscillator Selection
  3136                           ;	FOSC = INTOSC, INTOSC oscillator: I/O function on CLKIN pin
  3137                           ;	Watchdog Timer Enable
  3138                           ;	WDTE = OFF, WDT disabled
  3139                           ;	Power-up Timer Enable
  3140                           ;	PWRTE = OFF, PWRT disabled
  3141                           ;	MCLR Pin Function Select
  3142                           ;	MCLRE = ON, MCLR/VPP pin function is MCLR
  3143                           ;	Flash Program Memory Code Protection
  3144                           ;	CP = OFF, Program memory code protection is disabled
  3145                           ;	Data Memory Code Protection
  3146                           ;	CPD = OFF, Data memory code protection is disabled
  3147                           ;	Brown-out Reset Enable
  3148                           ;	BOREN = ON, Brown-out Reset enabled
  3149                           ;	Clock Out Enable
  3150                           ;	CLKOUTEN = OFF, CLKOUT function is disabled. I/O or oscillator function on the CLKOUT 
      +                          pin
  3151                           ;	Internal/External Switchover
  3152                           ;	IESO = ON, Internal/External Switchover mode is enabled
  3153                           ;	Fail-Safe Clock Monitor Enable
  3154                           ;	FCMEN = ON, Fail-Safe Clock Monitor is enabled
  3155  8007                     	org	32775
  3156  8007  3FE4               	dw	16356
  3157                           
  3158                           ;Config register CONFIG2 @ 0x8008
  3159                           ;	Flash Memory Self-Write Protection
  3160                           ;	WRT = OFF, Write protection off
  3161                           ;	Voltage Regulator Capacitor Enable
  3162                           ;	VCAPEN = OFF, All VCAP pin functionality is disabled
  3163                           ;	PLL Enable
  3164                           ;	PLLEN = OFF, 4x PLL disabled
  3165                           ;	Stack Overflow/Underflow Reset Enable
  3166                           ;	STVREN = ON, Stack Overflow or Underflow will cause a Reset
  3167                           ;	Brown-out Reset Voltage Selection
  3168                           ;	BORV = LO, Brown-out Reset Voltage (Vbor), low trip point selected.
  3169                           ;	Low-Voltage Programming Enable
  3170                           ;	LVP = ON, Low-voltage programming enabled
  3171  8008                     	org	32776
  3172  8008  3EFF               	dw	16127

Data Sizes:
    Strings     51
    Constant    0
    Data        100
    BSS         3
    Persistent  38
    Stack       0

Auto Spaces:
    Space          Size  Autos    Used
    COMMON           14     14      14
    BANK0            80      8      17
    BANK1            80      0       0
    BANK2            80      0       0
    BANK3            80      0       0
    BANK4            80      0       0
    BANK5            80      0       0
    BANK6            80      0       0
    BANK7            80      0       0
    BANK8            80      0       0
    BANK9            80      0       0
    BANK10           80      0       0
    BANK11           28      0       0
    BANK12            0      0       0

Pointer List with Targets:

    strncmp@_r	PTR const unsigned char  size(2) Largest target is 9
		 -> STR_12(CODE[9]), STR_10(CODE[8]), STR_8(CODE[9]), STR_6(CODE[8]), 
		 -> STR_4(CODE[9]), STR_2(CODE[8]), 

    strncmp@r	PTR const unsigned char  size(2) Largest target is 9
		 -> STR_12(CODE[9]), STR_10(CODE[8]), STR_8(CODE[9]), STR_6(CODE[8]), 
		 -> STR_4(CODE[9]), STR_2(CODE[8]), 

    strncmp@_l	PTR const unsigned char  size(2) Largest target is 100
		 -> NULL(NULL[0]), tramaRx(BIGRAM[100]), 

    strncmp@l	PTR const unsigned char  size(2) Largest target is 100
		 -> NULL(NULL[0]), tramaRx(BIGRAM[100]), 

    strlen@s	PTR const unsigned char  size(2) Largest target is 9
		 -> STR_12(CODE[9]), STR_10(CODE[8]), STR_8(CODE[9]), STR_6(CODE[8]), 
		 -> STR_4(CODE[9]), STR_2(CODE[8]), 

    strlen@a	PTR const unsigned char  size(2) Largest target is 9
		 -> STR_12(CODE[9]), STR_10(CODE[8]), STR_8(CODE[9]), STR_6(CODE[8]), 
		 -> STR_4(CODE[9]), STR_2(CODE[8]), 

    strchr@s	PTR const unsigned char  size(2) Largest target is 100
		 -> NULL(NULL[0]), tramaRx(BIGRAM[100]), 

    sp__strchr	PTR unsigned char  size(2) Largest target is 100
		 -> NULL(NULL[0]), tramaRx(BIGRAM[100]), 

    strstr@h	PTR const unsigned char  size(2) Largest target is 100
		 -> NULL(NULL[0]), tramaRx(BIGRAM[100]), 

    strstr@n	PTR const unsigned char  size(2) Largest target is 9
		 -> STR_12(CODE[9]), STR_10(CODE[8]), STR_8(CODE[9]), STR_6(CODE[8]), 
		 -> STR_4(CODE[9]), STR_2(CODE[8]), 

    memset@dest	PTR void  size(2) Largest target is 100
		 -> tramaRx(BIGRAM[100]), 

    memset@s	PTR unsigned char  size(2) Largest target is 100
		 -> tramaRx(BIGRAM[100]), 

    sp__memset	PTR void  size(2) Largest target is 100
		 -> tramaRx(BIGRAM[100]), 

    sp__strstr	PTR unsigned char  size(2) Largest target is 100
		 -> NULL(NULL[0]), tramaRx(BIGRAM[100]), 

    EUSART_SetErrorHandler@interruptHandler	PTR FTN()void  size(2) Largest target is 1
		 -> EUSART_DefaultErrorHandler(), 

    EUSART_ErrorHandler	PTR FTN()void  size(2) Largest target is 1
		 -> Absolute function(), EUSART_DefaultErrorHandler(), 

    EUSART_SetOverrunErrorHandler@interruptHandler	PTR FTN()void  size(2) Largest target is 1
		 -> EUSART_DefaultOverrunErrorHandler(), 

    EUSART_OverrunErrorHandler	PTR FTN()void  size(2) Largest target is 1
		 -> Absolute function(), EUSART_DefaultOverrunErrorHandler(), 

    EUSART_SetFramingErrorHandler@interruptHandler	PTR FTN()void  size(2) Largest target is 1
		 -> EUSART_DefaultFramingErrorHandler(), 

    EUSART_FramingErrorHandler	PTR FTN()void  size(2) Largest target is 1
		 -> Absolute function(), EUSART_DefaultFramingErrorHandler(), 


Critical Paths under _main in COMMON

    _main->_memset
    _strstr->_strncmp
    _EUSART_Initialize->_EUSART_SetErrorHandler
    _EUSART_Initialize->_EUSART_SetFramingErrorHandler
    _EUSART_Initialize->_EUSART_SetOverrunErrorHandler

Critical Paths under _main in BANK0

    _main->_strstr

Critical Paths under _main in BANK1

    None.

Critical Paths under _main in BANK2

    None.

Critical Paths under _main in BANK3

    None.

Critical Paths under _main in BANK4

    None.

Critical Paths under _main in BANK5

    None.

Critical Paths under _main in BANK6

    None.

Critical Paths under _main in BANK7

    None.

Critical Paths under _main in BANK8

    None.

Critical Paths under _main in BANK9

    None.

Critical Paths under _main in BANK10

    None.

Critical Paths under _main in BANK11

    None.

Critical Paths under _main in BANK12

    None.

Call Graph Tables:

 ---------------------------------------------------------------------------------
 (Depth) Function   	        Calls       Base Space   Used Autos Params    Refs
 ---------------------------------------------------------------------------------
 (0) _main                                                 2     2      0    3234
                                              6 BANK0      2     2      0
                        _EUSART_Read
                 _EUSART_is_rx_ready
                  _SYSTEM_Initialize
                             _memset
                             _strstr
 ---------------------------------------------------------------------------------
 (1) _strstr                                               8     4      4    1993
                                             11 COMMON     2     2      0
                                              0 BANK0      6     2      4
                             _strchr
                             _strlen
                            _strncmp
 ---------------------------------------------------------------------------------
 (2) _strncmp                                             11     5      6     453
                                              0 COMMON    11     5      6
 ---------------------------------------------------------------------------------
 (2) _strlen                                               5     3      2     166
                                              0 COMMON     5     3      2
 ---------------------------------------------------------------------------------
 (2) _strchr                                               6     2      4     240
                                              0 COMMON     6     2      4
 ---------------------------------------------------------------------------------
 (1) _memset                                              14     8      6     947
                                              0 COMMON    14     8      6
 ---------------------------------------------------------------------------------
 (1) _SYSTEM_Initialize                                    0     0      0     294
                  _EUSART_Initialize
              _OSCILLATOR_Initialize
             _PIN_MANAGER_Initialize
                     _WDT_Initialize
 ---------------------------------------------------------------------------------
 (2) _WDT_Initialize                                       0     0      0       0
 ---------------------------------------------------------------------------------
 (2) _PIN_MANAGER_Initialize                               0     0      0       0
 ---------------------------------------------------------------------------------
 (2) _OSCILLATOR_Initialize                                0     0      0       0
 ---------------------------------------------------------------------------------
 (2) _EUSART_Initialize                                    0     0      0     294
             _EUSART_SetErrorHandler
      _EUSART_SetFramingErrorHandler
      _EUSART_SetOverrunErrorHandler
 ---------------------------------------------------------------------------------
 (3) _EUSART_SetOverrunErrorHandler                        2     0      2      98
                                              0 COMMON     2     0      2
 ---------------------------------------------------------------------------------
 (3) _EUSART_SetFramingErrorHandler                        2     0      2      98
                                              0 COMMON     2     0      2
 ---------------------------------------------------------------------------------
 (3) _EUSART_SetErrorHandler                               2     0      2      98
                                              0 COMMON     2     0      2
 ---------------------------------------------------------------------------------
 (1) _EUSART_is_rx_ready                                   0     0      0       0
 ---------------------------------------------------------------------------------
 (1) _EUSART_Read                                          0     0      0       0
 ---------------------------------------------------------------------------------
 Estimated maximum stack depth 3
 ---------------------------------------------------------------------------------

 Call Graph Graphs:

 _main (ROOT)
   _EUSART_Read
   _EUSART_is_rx_ready
   _SYSTEM_Initialize
     _EUSART_Initialize
       _EUSART_SetErrorHandler
       _EUSART_SetFramingErrorHandler
       _EUSART_SetOverrunErrorHandler
     _OSCILLATOR_Initialize
     _PIN_MANAGER_Initialize
     _WDT_Initialize
   _memset
   _strstr
     _strchr
     _strlen
     _strncmp

 Address spaces:
Name               Size   Autos  Total    Cost      Usage
BIGRAM             3F0      0       0       0        0.0%
EEDATA             100      0       0       0        0.0%
NULL                 0      0       0       0        0.0%
CODE                 0      0       0       0        0.0%
BITCOMMON            E      0       0       1        0.0%
BITSFR0              0      0       0       1        0.0%
SFR0                 0      0       0       1        0.0%
COMMON               E      E       E       2      100.0%
BITSFR1              0      0       0       2        0.0%
SFR1                 0      0       0       2        0.0%
BITSFR2              0      0       0       3        0.0%
SFR2                 0      0       0       3        0.0%
STACK                0      0       0       3        0.0%
BITBANK0            50      0       0       4        0.0%
BITSFR3              0      0       0       4        0.0%
SFR3                 0      0       0       4        0.0%
BANK0               50      8      11       5       21.2%
BITSFR4              0      0       0       5        0.0%
SFR4                 0      0       0       5        0.0%
BITBANK1            50      0       0       6        0.0%
BITSFR5              0      0       0       6        0.0%
SFR5                 0      0       0       6        0.0%
BANK1               50      0       0       7        0.0%
BITSFR6              0      0       0       7        0.0%
SFR6                 0      0       0       7        0.0%
BITBANK2            50      0       0       8        0.0%
BITSFR7              0      0       0       8        0.0%
SFR7                 0      0       0       8        0.0%
BANK2               50      0       0       9        0.0%
BITSFR8              0      0       0       9        0.0%
SFR8                 0      0       0       9        0.0%
BITBANK3            50      0       0      10        0.0%
BITSFR9              0      0       0      10        0.0%
SFR9                 0      0       0      10        0.0%
BANK3               50      0       0      11        0.0%
BITSFR10             0      0       0      11        0.0%
SFR10                0      0       0      11        0.0%
BITBANK4            50      0       0      12        0.0%
BITSFR11             0      0       0      12        0.0%
SFR11                0      0       0      12        0.0%
BANK4               50      0       0      13        0.0%
BITSFR12             0      0       0      13        0.0%
SFR12                0      0       0      13        0.0%
BITBANK5            50      0       0      14        0.0%
BITSFR13             0      0       0      14        0.0%
SFR13                0      0       0      14        0.0%
BANK5               50      0       0      15        0.0%
BITSFR14             0      0       0      15        0.0%
SFR14                0      0       0      15        0.0%
BITBANK6            50      0       0      16        0.0%
BITSFR15             0      0       0      16        0.0%
SFR15                0      0       0      16        0.0%
BANK6               50      0       0      17        0.0%
BITSFR16             0      0       0      17        0.0%
SFR16                0      0       0      17        0.0%
BITBANK7            50      0       0      18        0.0%
BITSFR17             0      0       0      18        0.0%
SFR17                0      0       0      18        0.0%
BANK7               50      0       0      19        0.0%
BITSFR18             0      0       0      19        0.0%
SFR18                0      0       0      19        0.0%
BITSFR19             0      0       0      20        0.0%
SFR19                0      0       0      20        0.0%
ABS                  0      0      1F      20        0.0%
BITBANK8            50      0       0      21        0.0%
BITSFR20             0      0       0      21        0.0%
SFR20                0      0       0      21        0.0%
BANK8               50      0       0      22        0.0%
BITSFR21             0      0       0      22        0.0%
SFR21                0      0       0      22        0.0%
BITBANK9            50      0       0      23        0.0%
BITSFR22             0      0       0      23        0.0%
SFR22                0      0       0      23        0.0%
BANK9               50      0       0      24        0.0%
BITSFR23             0      0       0      24        0.0%
SFR23                0      0       0      24        0.0%
BITBANK10           50      0       0      25        0.0%
BITSFR24             0      0       0      25        0.0%
SFR24                0      0       0      25        0.0%
BANK10              50      0       0      26        0.0%
BITSFR25             0      0       0      26        0.0%
SFR25                0      0       0      26        0.0%
BITBANK11           50      0       0      27        0.0%
BITSFR26             0      0       0      27        0.0%
SFR26                0      0       0      27        0.0%
BANK11              1C      0       0      28        0.0%
BITSFR27             0      0       0      28        0.0%
SFR27                0      0       0      28        0.0%
BITBANK12           30      0       0      29        0.0%
BITSFR28             0      0       0      29        0.0%
SFR28                0      0       0      29        0.0%
BITSFR29             0      0       0      30        0.0%
SFR29                0      0       0      30        0.0%
BANK12               0      0       0      30        0.0%
BITSFR30             0      0       0      31        0.0%
SFR30                0      0       0      31        0.0%
DATA                 0      0      1F      31        0.0%
BITSFR31             0      0       0      32        0.0%
SFR31                0      0       0      32        0.0%


Microchip Technology PIC Macro Assembler V2.36 build 20220127204148 
Symbol Table                                                                                   Sat Apr 01 21:49:15 2023

                                           l22 04A7                                             l25 0489  
                                           l19 04C0                                             l76 048E  
                                           l68 0528                                             l85 04C1  
                                           l89 04CF                                            l113 049A  
                                          l202 06E9                                            l116 04A0  
                                          l205 06FE                                            l119 0494  
                                          l158 054A                                            l190 0695  
                                          l193 06AA                                            l186 0662  
                                          l196 06BF                                            l199 06D4  
                                          l820 07EB                                            l845 04E9  
                                          l854 04E8                                            l847 0506  
                                          l839 05A0                                            l858 05FA  
                                          u310 04E2                                            u311 04E1  
                                          u400 04CC                                            u320 05B5  
                                          u401 04CB                                            u321 05B4  
                                          u330 05CD                                            u410 0552  
                                          u331 05CC                                            u411 0551  
                                          u340 05D6                                            u420 0574  
                                          u500 066A                                            u341 05D5  
                                          u421 0573                                            u501 0669  
                                          u350 05DC                                            u430 0595  
                                          u510 0683                                            u351 05DB  
                                          u431 0594                                            u511 0682  
                                          u360 05EC                                            u440 059E  
                                          u520 0695                                            u361 05EB  
                                          u441 059D                                            u521 0694  
                                          u450 072C                                            u370 04F3  
                                          u530 06AA                                            u451 072B  
                                          u371 04F2                                            u531 06A9  
                                          u460 074E                                            u380 0504  
                                          u540 06BF                                            u461 074D  
                                          u381 0503                                            u541 06BE  
                                          u390 04C6                                            u470 0794  
                                          u550 06D4                                            u391 04C5  
                                          u471 0793                                            u551 06D3  
                                          u480 07BC                                            u560 06E9  
                                          u481 07BB                                            u561 06E8  
                                          u490 07EB                                            u570 06FE  
                                          u491 07EA                                            u571 06FD  
                                          u587 071A                 ?_EUSART_SetFramingErrorHandler 0070  
                                          wreg 0009                                   ?_EUSART_Read 0070  
                                         l1101 052F                                           l1111 053A  
                                         l1103 0532                                           l1201 04CC  
                                         l1121 0545                                           l1113 053D  
                                         l1105 0534                                           l1203 04CE  
                                         l1131 04A5                                           l1123 0546  
                                         l1115 053F                                           l1107 0536  
                                         l1211 055F                                           l1141 0518  
                                         l1125 0548                                           l1117 0541  
                                         l1109 0538                                           l1133 0486  
                                         l1213 0574                                           l1221 059E  
                                         l1143 051F                                           l1135 0507  
                                         l1127 04A1                                           l1119 0543  
                                         l1231 072D                                           l1151 04D9  
                                         l1215 0575                                           l1207 054B  
                                         l1145 0526                                           l1137 0510  
                                         l1129 04A4                                           l1241 078B  
                                         l1233 0733                                           l1225 0722  
                                         l1153 04E2                                           l1161 05B5  
                                         l1217 058F                                           l1209 0552  
                                         l1139 0511                                           l1251 07BD  
                                         l1235 0745                                           l1227 0726  
                                         l1147 04D0                                           l1171 05D6  
                                         l1219 0595                                           l1093 0495  
                                         l1261 07DD                                           l1253 07CA  
                                         l1245 0795                                           l1181 04F3  
                                         l1149 04D5                                           l1173 05DC  
                                         l1165 05B8                                           l1157 05A1  
                                         l1191 048A                                           l1095 049B  
                                         l1263 07E1                                           l1255 07CE  
                                         l1247 07B3                                           l1239 074F  
                                         l1183 04F4                                           l1175 05EC  
                                         l1167 05C4                                           l1159 05A9  
                                         l1271 065F                                           l1097 048F  
                                         l1265 07E5                                           l1257 07D2  
                                         l1185 0504                                           l1169 05CD  
                                         l1281 0697                                           l1273 066A  
                                         l1195 04C1                                           l1099 0529  
                                         l1259 07D7                                           l1179 04E9  
                                         l1291 0700                                           l1283 06AC  
                                         l1275 0671                                           l1197 04C6  
                                         l1189 04B4                                           l1293 070F  
                                         l1285 06C1                                           l1277 067D  
                                         l1199 04C7                                           l1287 06D6  
                                         l1279 0683                                           l1295 0712  
                                         l1289 06EB                                           l1297 0716  
                                         STR_1 081B                                           STR_2 081B  
                                         STR_3 0800                                           STR_4 0800  
                                         STR_5 0823                                           STR_6 0823  
                                         STR_7 0809                                           STR_8 0809  
                                         STR_9 082B                                           _LATA 010C  
                                         _LATB 010D                                           _LATC 010E  
                                         _LATD 010F                                           _LATE 0110  
                                         _WPUB 020D                                           _WPUE 0210  
                                         _main 065F                                           fsr0h 0005  
                                         fsr1h 0007                                           indf0 0000  
                                         fsr0l 0004                                           indf1 0001  
                                         fsr1l 0006                                           btemp 007E  
                                         start 0002                  __end_of_OSCILLATOR_Initialize 04A8  
                                        ?_main 0070                                          STR_10 082B  
                                        STR_11 0812                                          STR_12 0812  
                                        _RCREG 0199                                          _RCSTA 019D  
                                        _TRISA 008C                                          _TRISB 008D  
                                        _TRISC 008E                                          _TRISD 008F  
                                        _TRISE 0090                                          _TXREG 019A  
                                        _TXSTA 019E                                 _WDT_Initialize 0486  
                                        status 0003                                          wtemp0 007E  
                              __end_of_strncmp 05FB                                __initialization 07EC  
                                 __end_of_main 0722                                         ??_main 0026  
                       __end_of_WDT_Initialize 048A              _EUSART_DefaultFramingErrorHandler 0000  
                   _EUSART_OverrunErrorHandler 002A                                         _APFCON 011D  
                                       _ANSELA 018C                                         _ANSELB 018D  
                                       _ANSELD 018F                                         _ANSELE 0190  
                   __end_of_EUSART_is_rx_ready 048F                                         _BORCON 0116  
                                       _OSCCON 0099                                         _SPBRGH 019C  
                                       _SPBRGL 019B                                         _WDTCON 0097  
                                       _dataRx 002F                                         _memset 0722  
                                       _strchr 04E9                                         _strlen 04D0  
                                       _strstr 054B                                   __pdataBIGRAM 238C  
                              ?_WDT_Initialize 0070                                      ??_strncmp 0076  
                            _SYSTEM_Initialize 04B4                        __end_of__initialization 07FD  
                           ?_SYSTEM_Initialize 0070                                 __pcstackCOMMON 0070  
                          ??_SYSTEM_Initialize 0072                                 _OPTION_REGbits 0095  
              ??_EUSART_SetOverrunErrorHandler 0072                      __end_of_SYSTEM_Initialize 04C1  
                                   __pbssBANK0 002E                                     __pmaintext 065F  
                                      _BAUDCON 019F                                        ?_memset 0070  
                                      ?_strchr 0070                                        ?_strlen 0070  
                                      ?_strstr 0020                                        _OSCTUNE 0098  
                     ??_EUSART_SetErrorHandler 0072                                        __ptext1 054B  
                                      __ptext2 05A1                                        __ptext3 04D0  
                                      __ptext4 04E9                                        __ptext5 0722  
                                      __ptext6 04B4                                        __ptext7 0486  
                                      __ptext8 0529                                        __ptext9 04A1  
                        _OSCILLATOR_Initialize 04A1                       ??_PIN_MANAGER_Initialize 0070  
                                      _tramaRx 238C                                        _strncmp 05A1  
                         end_of_initialization 07FD          __end_of_EUSART_SetOverrunErrorHandler 04A1  
                _EUSART_SetOverrunErrorHandler 049B                                        init_ram 04A8  
                                      memset@c 0072                                        memset@k 007A  
                                      memset@n 0074                                        memset@s 007C  
                                      initloop 04A9                              _EUSART_Initialize 0507  
                           ?_EUSART_Initialize 0070                                      _RCSTAbits 019D  
                           _EUSART_is_rx_ready 048A                                        strchr@c 0072  
                                      strchr@s 0070                                        strlen@a 0073  
                                      strlen@s 0070                            ??_EUSART_Initialize 0072  
                             ??_WDT_Initialize 0070                                        strstr@h 0020  
                                      strstr@n 0022                            ?_EUSART_is_rx_ready 0070  
                    __end_of_EUSART_Initialize 0529                           ??_EUSART_is_rx_ready 0070  
                                    _TXSTAbits 019E                     _EUSART_DefaultErrorHandler 0000  
                                __pidataBIGRAM 05FB                         ?_OSCILLATOR_Initialize 0070  
                               __end_of_memset 07EC                                 __end_of_strchr 0507  
                               __end_of_strlen 04E9                                 __end_of_strstr 05A1  
                          start_initialization 07EC                                  ??_EUSART_Read 0070  
               ?_EUSART_SetOverrunErrorHandler 0070                     _EUSART_FramingErrorHandler 002C  
                       _EUSART_SetErrorHandler 048F                                       ??_memset 0076  
                                   memset@dest 0070                                       ??_strchr 0074  
                                     ??_strlen 0072                                       ??_strstr 007B  
                                    ___latbits 0003                                  __pcstackBANK0 0020  
                          __end_of_EUSART_Read 04D0                                      __pnvBANK0 0028  
                       _PIN_MANAGER_Initialize 0529                                       ?_strncmp 0070  
       EUSART_SetErrorHandler@interruptHandler 0070                                       _LATDbits 010F  
                            _eusartRxLastError 0030                                       _PIR1bits 0011  
              ??_EUSART_SetFramingErrorHandler 0072              _EUSART_DefaultOverrunErrorHandler 0000  
                                  _EUSART_Read 04C1                        ??_OSCILLATOR_Initialize 0070  
                          _EUSART_ErrorHandler 0028                                       __ptext10 0507  
                                     __ptext11 049B                                       __ptext12 0495  
                                     __ptext13 048F                                       __ptext14 048A  
                                     __ptext15 04C1                                       _indiceRx 002E  
                      ?_EUSART_SetErrorHandler 0070  EUSART_SetOverrunErrorHandler@interruptHandler 0070  
        __end_of_EUSART_SetFramingErrorHandler 049B                  _EUSART_SetFramingErrorHandler 0495  
                      ?_PIN_MANAGER_Initialize 0070                 __end_of_EUSART_SetErrorHandler 0495  
                                    strncmp@_l 0070                                      strncmp@_r 0072  
EUSART_SetFramingErrorHandler@interruptHandler 0070                                  __pstringtext1 0800  
                                __pstringtext2 0809                                  __pstringtext3 0812  
                                __pstringtext4 081B                                  __pstringtext5 0823  
                                __pstringtext6 082B                                  __pstringtext7 0000  
                                     strncmp@l 0077                                       strncmp@n 0074  
                                     strncmp@r 0079                                       strstr@nl 0024  
               __end_of_PIN_MANAGER_Initialize 054B  
